ZX Spectrum Alt ROM Disassembly (First 16KB)
================================================================================
File: enAltZX.rom
Address Range: $0000 - $3FFF (0 - 16383)
Total Instructions: 13597
================================================================================

0000 00                         nop
0001 18 08                      jr L000B
0003 11 08 02                   ld de,$0208
0006 C9                         ret
0007 00                         nop
0008 C3 B6 00                   jp L00B6
000B C3 CD 00      L000B:       jp L00CD
000E 00                         nop
000F 00                         nop
0010 C3 68 00                   jp L0068
0013 00                         nop
0014 00                         nop
0015 00                         nop
0016 00                         nop
0017 00                         nop
0018 C3 80 00                   jp L0080
001B 00                         nop
001C 00                         nop
001D 00                         nop
001E 00                         nop
001F 00                         nop
0020 C3 99 00                   jp L0099
0023 00                         nop
0024 00                         nop
0025 00                         nop
0026 00                         nop
0027 00                         nop
0028 ED 43 54 5B   L0028:       ld ($5B54),bc
002C C3 94 00                   jp L0094
002F 00                         nop
0030 00                         nop
0031 00                         nop
0032 00                         nop
0033 00                         nop
0034 00                         nop
0035 00                         nop
0036 00                         nop
0037 00                         nop
0038 F5                         push af
0039 E5                         push hl
003A 26 00                      ld h,$00
003C 3E 80                      ld a,$80
003E C3 46 00                   jp L0046
0041 00                         nop
0042 00                         nop
0043 00                         nop
0044 00                         nop
0045 00                         nop
0046 D3 E3         L0046:       out ($E3),a
0048 00                         nop
0049 00                         nop
004A 00                         nop
004B 00                         nop
004C 00                         nop
004D 00                         nop
004E 00                         nop
004F 00                         nop
0050 00                         nop
0051 00                         nop
0052 00                         nop
0053 00                         nop
0054 00                         nop
0055 00                         nop
0056 00                         nop
0057 00                         nop
0058 00                         nop
0059 00                         nop
005A 00                         nop
005B 00                         nop
005C 00                         nop
005D 00                         nop
005E 00                         nop
005F 00                         nop
0060 E1                         pop hl
0061 F1                         pop af
0062 FB                         ei
0063 C9                         ret
0064 00                         nop
0065 00                         nop
0066 ED 45                      retn
0068 ED 43 54 5B   L0068:       ld ($5B54),bc
006C E3                         ex (sp),hl
006D 4E                         ld c,(hl)
006E 23                         inc hl
006F 46                         ld b,(hl)
0070 23                         inc hl
0071 E3                         ex (sp),hl
0072 ED 8A 00 7B                push $007B
0076 C5                         push bc
0077 ED 4B 54 5B                ld bc,($5B54)
007B ED 91 8C 00   L007B:       nextreg $8C,$00
007F C9                         ret
0080 ED 43 54 5B   L0080:       ld ($5B54),bc
0084 E3                         ex (sp),hl
0085 4E                         ld c,(hl)
0086 23                         inc hl
0087 46                         ld b,(hl)
0088 23                         inc hl
0089 E3                         ex (sp),hl
008A ED 8A 00 7B                push $007B
008E ED 8A 3E 8A                push $3E8A
0092 18 E7                      jr L007B
0094 01 10 00      L0094:       ld bc,$0010
0097 18 0A                      jr L00A3
0099 ED 43 54 5B   L0099:       ld ($5B54),bc
009D E3                         ex (sp),hl
009E 4E                         ld c,(hl)
009F 23                         inc hl
00A0 46                         ld b,(hl)
00A1 23                         inc hl
00A2 E3                         ex (sp),hl
00A3 ED 8A 00 7B   L00A3:       push $007B
00A7 ED 8A 5B 4D                push $5B4D
00AB C5                         push bc
00AC ED 8A 5B 48                push $5B48
00B0 ED 4B 54 5B                ld bc,($5B54)
00B4 18 C5                      jr L007B
00B6 ED 91 8E 08   L00B6:       nextreg $8E,$08
00BA 08                         ex af,af'
00BB F1                         pop af
00BC 22 52 5B                   ld ($5B52),hl
00BF 2A 6A 5B                   ld hl,($5B6A)
00C2 ED 73 6A 5B                ld ($5B6A),sp
00C6 F9                         ld sp,hl
00C7 2A 52 5B                   ld hl,($5B52)
00CA F5                         push af
00CB 08                         ex af,af'
00CC C9                         ret
00CD 08            L00CD:       ex af,af'
00CE F1                         pop af
00CF 22 52 5B                   ld ($5B52),hl
00D2 2A 6A 5B                   ld hl,($5B6A)
00D5 ED 73 6A 5B                ld ($5B6A),sp
00D9 F9                         ld sp,hl
00DA 2A 52 5B                   ld hl,($5B52)
00DD F5                         push af
00DE 08                         ex af,af'
00DF ED 91 8E 78                nextreg $8E,$78
00E3 C9                         ret
00E4 ED 8A 01 07   L00E4:       push $0107
00E8 D5                         push de
00E9 C5                         push bc
00EA 46            L00EA:       ld b,(hl)
00EB 04                         inc b
00EC 28 0B                      jr z,L00F9
00EE 05                         dec b
00EF 23                         inc hl
00F0 5E                         ld e,(hl)
00F1 23                         inc hl
00F2 56                         ld d,(hl)
00F3 23                         inc hl
00F4 B8                         cp b
00F5 28 08                      jr z,L00FF
00F7 18 F1                      jr L00EA
00F9 A7            L00F9:       and a
00FA 05                         dec b
00FB C1                         pop bc
00FC D1                         pop de
00FD E1                         pop hl
00FE C9                         ret
00FF C1            L00FF:       pop bc
0100 EB                         ex de,hl
0101 E3                         ex (sp),hl
0102 EB                         ex de,hl
0103 C9                         ret
0104 CD 0B 01                   call L010B
0107 26 01                      ld h,$01
0109 25                         dec h
010A C9                         ret
010B E9            L010B:       jp (hl)
010C 21 41 D7      L010C:       ld hl,$D741
010F CB 86                      res 0,(hl)
0111 CB CE                      set 1,(hl)
0113 3A B8 D5                   ld a,($D5B8)
0116 A7                         and a
0117 28 06                      jr z,L011F
0119 21 00 00                   ld hl,$0000
011C 22 49 5C                   ld ($5C49),hl
011F 2A 49 5C      L011F:       ld hl,($5C49)
0122 7C                         ld a,h
0123 B5                         or l
0124 20 03                      jr nz,L0129
0126 22 B5 D5                   ld ($D5B5),hl
0129 3A 73 CE      L0129:       ld a,($CE73)
012C F5                         push af
012D 2A 4E D7                   ld hl,($D74E)
0130 CD F9 13                   call L13F9
0133 22 4C D7                   ld ($D74C),hl
0136 CD C3 0D                   call L0DC3
0139 CD 6E 0C                   call L0C6E
013C F1                         pop af
013D B7            L013D:       or a
013E 28 0C                      jr z,L014C
0140 F5                         push af
0141 CD 73 0C                   call L0C73
0144 EB                         ex de,hl
0145 CD 0F 0E                   call L0E0F
0148 F1                         pop af
0149 3D                         dec a
014A 18 F1                      jr L013D
014C 0E 00         L014C:       ld c,$00
014E CD 51 0C                   call L0C51
0151 41                         ld b,c
0152 3A 3C D7                   ld a,($D73C)
0155 4F                         ld c,a
0156 C5                         push bc
0157 D5                         push de
0158 CD 73 0C      L0158:       call L0C73
015B 3A 41 D7                   ld a,($D741)
015E CB 4F                      bit 1,a
0160 28 1E                      jr z,L0180
0162 D5                         push de
0163 E5                         push hl
0164 ED 5B 3D D7                ld de,($D73D)
0168 19                         add hl,de
0169 CB 46                      bit 0,(hl)
016B 28 11                      jr z,L017E
016D 23                         inc hl
016E 56                         ld d,(hl)
016F 23                         inc hl
0170 5E                         ld e,(hl)
0171 B7                         or a
0172 2A 49 5C                   ld hl,($5C49)
0175 ED 52                      sbc hl,de
0177 20 05                      jr nz,L017E
0179 21 41 D7                   ld hl,$D741
017C CB C6                      set 0,(hl)
017E E1            L017E:       pop hl
017F D1                         pop de
0180 C5            L0180:       push bc
0181 E5                         push hl
0182 ED 4B 3F D7                ld bc,($D73F)
0186 ED B0                      ldir
0188 E1                         pop hl
0189 C1                         pop bc
018A D5                         push de
018B C5                         push bc
018C EB                         ex de,hl
018D 21 41 D7                   ld hl,$D741
0190 CB 46                      bit 0,(hl)
0192 28 48                      jr z,L01DC
0194 06 00                      ld b,$00
0196 2A B5 D5      L0196:       ld hl,($D5B5)
0199 7C                         ld a,h
019A B5                         or l
019B 28 2C                      jr z,L01C9
019D E5                         push hl
019E CD A2 09                   call L09A2
01A1 D5                         push de
01A2 F5                         push af
01A3 2A 3D D7                   ld hl,($D73D)
01A6 19                         add hl,de
01A7 EB                         ex de,hl
01A8 F1                         pop af
01A9 38 15                      jr c,L01C0
01AB 1A                         ld a,(de)
01AC CB 4F                      bit 1,a
01AE 20 0B                      jr nz,L01BB
01B0 D1                         pop de
01B1 E1                         pop hl
01B2 21 00 00                   ld hl,$0000
01B5 22 B5 D5                   ld ($D5B5),hl
01B8 C3 C9 01                   jp L01C9
01BB D1            L01BB:       pop de
01BC E1                         pop hl
01BD C3 D4 01                   jp L01D4
01C0 D1            L01C0:       pop de
01C1 E1                         pop hl
01C2 2B                         dec hl
01C3 04                         inc b
01C4 22 B5 D5                   ld ($D5B5),hl
01C7 18 CD                      jr L0196
01C9 CD A2 09      L01C9:       call L09A2
01CC D4 C5 09                   call nc,L09C5
01CF 21 41 D7                   ld hl,$D741
01D2 36 00                      ld (hl),$00
01D4 78            L01D4:       ld a,b
01D5 C1                         pop bc
01D6 C5                         push bc
01D7 48                         ld c,b
01D8 47                         ld b,a
01D9 CD 62 05                   call L0562
01DC C1            L01DC:       pop bc
01DD D1                         pop de
01DE 79                         ld a,c
01DF 04                         inc b
01E0 B8                         cp b
01E1 D2 58 01                   jp nc,L0158
01E4 3A 41 D7                   ld a,($D741)
01E7 CB 4F                      bit 1,a
01E9 28 21                      jr z,L020C
01EB CB 47                      bit 0,a
01ED 20 1D                      jr nz,L020C
01EF 2A 49 5C                   ld hl,($5C49)
01F2 7C                         ld a,h
01F3 B5                         or l
01F4 28 08                      jr z,L01FE
01F6 22 4E D7                   ld ($D74E),hl
01F9 CD C3 0D                   call L0DC3
01FC 18 09                      jr L0207
01FE 22 4E D7      L01FE:       ld ($D74E),hl
0201 CD 01 14                   call L1401
0204 22 49 5C                   ld ($5C49),hl
0207 D1            L0207:       pop de
0208 C1                         pop bc
0209 C3 1F 01                   jp L011F
020C D1            L020C:       pop de
020D C1                         pop bc
020E BF                         cp a
020F F5            L020F:       push af
0210 79                         ld a,c
0211 48                         ld c,b
0212 CD 51 0C                   call L0C51
0215 EB                         ex de,hl
0216 F5            L0216:       push af
0217 CD 69 11                   call L1169
021A F1                         pop af
021B ED 5B 3F D7                ld de,($D73F)
021F 19                         add hl,de
0220 0C                         inc c
0221 B9                         cp c
0222 30 F2                      jr nc,L0216
0224 F1                         pop af
0225 C8                         ret z
0226 CD 58 05                   call L0558
0229 CD C1 06      L0229:       call L06C1
022C 2A B5 D5                   ld hl,($D5B5)
022F 2B                         dec hl
0230 7C                         ld a,h
0231 B5                         or l
0232 22 B5 D5                   ld ($D5B5),hl
0235 20 F2                      jr nz,L0229
0237 C3 62 05                   jp L0562
023A 06 00         L023A:       ld b,$00
023C E5                         push hl
023D 48                         ld c,b
023E CD 51 0C                   call L0C51
0241 CD 0F 0E                   call L0E0F
0244 E1                         pop hl
0245 D0                         ret nc
0246 CD 73 0C                   call L0C73
0249 C5            L0249:       push bc
024A E5                         push hl
024B 2A 3F D7                   ld hl,($D73F)
024E 19                         add hl,de
024F 3A 3C D7                   ld a,($D73C)
0252 4F                         ld c,a
0253 B8                         cp b
0254 28 0F                      jr z,L0265
0256 C5                         push bc
0257 C5            L0257:       push bc
0258 ED 4B 3F D7                ld bc,($D73F)
025C ED B0                      ldir
025E C1                         pop bc
025F 79                         ld a,c
0260 04                         inc b
0261 B8                         cp b
0262 20 F3                      jr nz,L0257
0264 C1                         pop bc
0265 E1            L0265:       pop hl
0266 CD 1C 10                   call L101C
0269 ED 4B 3F D7                ld bc,($D73F)
026D ED B0                      ldir
026F 37                         scf
0270 C1                         pop bc
0271 C9                         ret
0272 06 00         L0272:       ld b,$00
0274 CD CC 0D                   call L0DCC
0277 D0                         ret nc
0278 C5            L0278:       push bc
0279 E5                         push hl
027A 3A 3C D7                   ld a,($D73C)
027D 4F                         ld c,a
027E CD 51 0C                   call L0C51
0281 CD BA 0C                   call L0CBA
0284 30 28                      jr nc,L02AE
0286 1B                         dec de
0287 2A 3F D7                   ld hl,($D73F)
028A 19                         add hl,de
028B EB                         ex de,hl
028C C5                         push bc
028D 78                         ld a,b
028E B9                         cp c
028F 28 0D                      jr z,L029E
0291 C5            L0291:       push bc
0292 ED 4B 3F D7                ld bc,($D73F)
0296 ED B8                      lddr
0298 C1                         pop bc
0299 78                         ld a,b
029A 0D                         dec c
029B B9                         cp c
029C 38 F3                      jr c,L0291
029E EB            L029E:       ex de,hl
029F 13                         inc de
02A0 C1                         pop bc
02A1 E1                         pop hl
02A2 CD 30 10                   call L1030
02A5 ED 4B 3F D7                ld bc,($D73F)
02A9 ED B0                      ldir
02AB 37                         scf
02AC C1                         pop bc
02AD C9                         ret
02AE E1            L02AE:       pop hl
02AF C1                         pop bc
02B0 C9                         ret
02B1 D5            L02B1:       push de
02B2 26 00                      ld h,$00
02B4 68                         ld l,b
02B5 19                         add hl,de
02B6 57                         ld d,a
02B7 78                         ld a,b
02B8 5E            L02B8:       ld e,(hl)
02B9 72                         ld (hl),d
02BA 53                         ld d,e
02BB 23                         inc hl
02BC 3C                         inc a
02BD E5                         push hl
02BE 2A 3D D7                   ld hl,($D73D)
02C1 BD                         cp l
02C2 E1                         pop hl
02C3 38 F3                      jr c,L02B8
02C5 7B                         ld a,e
02C6 A7                         and a
02C7 D1                         pop de
02C8 C9                         ret
02C9 D5            L02C9:       push de
02CA 2A 3D D7                   ld hl,($D73D)
02CD 19                         add hl,de
02CE E5                         push hl
02CF 57                         ld d,a
02D0 3A 3D D7                   ld a,($D73D)
02D3 3D                         dec a
02D4 18 07                      jr L02DD
02D6 5E            L02D6:       ld e,(hl)
02D7 72                         ld (hl),d
02D8 53                         ld d,e
02D9 B8                         cp b
02DA 28 04                      jr z,L02E0
02DC 3D                         dec a
02DD 2B            L02DD:       dec hl
02DE 18 F6                      jr L02D6
02E0 7B            L02E0:       ld a,e
02E1 A7                         and a
02E2 E1                         pop hl
02E3 D1                         pop de
02E4 C9                         ret
02E5 3A EC D5                   ld a,($D5EC)
02E8 A7                         and a
02E9 20 04                      jr nz,L02EF
02EB FD CB 01 EE                set 5,(iy+$01)
02EF 21 B8 D5      L02EF:       ld hl,$D5B8
02F2 BE                         cp (hl)
02F3 20 05                      jr nz,L02FA
02F5 D7                         rst $10
02F6 9A                         sbc a,d
02F7 0E 18                      ld c,$18
02F9 52                         ld d,d
02FA 77            L02FA:       ld (hl),a
02FB 0F                         rrca
02FC 87                         add a,a
02FD 21 00 00                   ld hl,$0000
0300 22 49 5C                   ld ($5C49),hl
0303 32 B8 D5                   ld ($D5B8),a
0306 32 EC D5                   ld ($D5EC),a
0309 2A 49 5C                   ld hl,($5C49)
030C 22 4E D7                   ld ($D74E),hl
030F 21 00 C0                   ld hl,$C000
0312 11 01 C0                   ld de,$C001
0315 01 AD 15                   ld bc,$15AD
0318 36 00                      ld (hl),$00
031A ED B0                      ldir
031C 21 B7 D5                   ld hl,$D5B7
031F 36 80                      ld (hl),$80
0321 FD CB 02 86                res 0,(iy+$02)
0325 F5                         push af
0326 D7                         rst $10
0327 9A                         sbc a,d
0328 0E CD                      ld c,$CD
032A BD                         cp l
032B 03                         inc bc
032C F1                         pop af
032D A7                         and a
032E 28 15                      jr z,L0345
0330 D6 04                      sub $04
0332 28 0B                      jr z,L033F
0334 CD 2F 04                   call L042F
0337 CD E4 12                   call L12E4
033A CD 1D 04                   call L041D
033D 18 09                      jr L0348
033F AF            L033F:       xor a
0340 47                         ld b,a
0341 4F                         ld c,a
0342 CD 62 05                   call L0562
0345 CD 2F 04      L0345:       call L042F
0348 CD D3 0F      L0348:       call L0FD3
034B AF                         xor a
034C 21 B7 D5                   ld hl,$D5B7
034F CB 9E                      res 3,(hl)
0351 CB 76                      bit 6,(hl)
0353 20 09                      jr nz,L035E
0355 D7                         rst $10
0356 38 3F                      jr c,L0397
0358 D7                         rst $10
0359 9A                         sbc a,d
035A 0E D7                      ld c,$D7
035C 82                         add a,d
035D 0F                         rrca
035E DD 21 D9 D7   L035E:       ld ix,$D7D9
0362 FD 36 31 02                ld (iy+$31),$02
0366 CD 6E 0C                   call L0C6E
0369 CD C3 0D                   call L0DC3
036C 21 00 00                   ld hl,$0000
036F 22 B5 D5                   ld ($D5B5),hl
0372 3A B8 D5                   ld a,($D5B8)
0375 FE 04                      cp $04
0377 CC 52 05                   call z,L0552
037A 28 18                      jr z,L0394
037C 2A 49 5C                   ld hl,($5C49)
037F CF                         rst $08
0380 E7                         rst $20
0381 6E                         ld l,(hl)
0382 19                         add hl,de
0383 E7                         rst $20
0384 95                         sub l
0385 16 C7                      ld d,$C7
0387 ED 53 49 5C                ld ($5C49),de
038B CD 0C 01                   call L010C
038E CD 52 05                   call L0552
0391 CD C2 04                   call L04C2
0394 31 FF 5B      L0394:       ld sp,$5BFF
0397 D7            L0397:       rst $10
0398 55                         ld d,l
0399 12                         ld (de),a
039A CD 9F 03                   call L039F
039D 18 F5                      jr L0394
039F 21 B3 13      L039F:       ld hl,$13B3
03A2 F5                         push af
03A3 CD E4 00                   call L00E4
03A6 20 05                      jr nz,L03AD
03A8 D4 B9 03                   call nc,L03B9
03AB F1                         pop af
03AC C9                         ret
03AD F1            L03AD:       pop af
03AE 21 B7 D5                   ld hl,$D5B7
03B1 CB 46                      bit 0,(hl)
03B3 C2 B9 03                   jp nz,L03B9
03B6 C3 61 04                   jp L0461
03B9 D7            L03B9:       rst $10
03BA 18 3E                      jr L03FA
03BC C9                         ret
03BD 3A 3D D7                   ld a,($D73D)
03C0 FE 20                      cp $20
03C2 DD 21 00 F7                ld ix,$F700
03C6 28 04                      jr z,L03CC
03C8 DD 21 00 FB                ld ix,$FB00
03CC 3E 0E         L03CC:       ld a,$0E
03CE D7                         rst $10
03CF 5B                         ld e,e
03D0 27                         daa
03D1 DD 21 D9 D7                ld ix,$D7D9
03D5 C9                         ret
03D6 E5                         push hl
03D7 D5                         push de
03D8 C7                         rst $00
03D9 21 B7 D5                   ld hl,$D5B7
03DC CB 9E                      res 3,(hl)
03DE F5                         push af
03DF CD 52 05                   call L0552
03E2 3E 02                      ld a,$02
03E4 E7                         rst $20
03E5 01 16 F1                   ld bc,$F116
03E8 CD 9F 03                   call L039F
03EB 21 B7 D5                   ld hl,$D5B7
03EE CB 9E                      res 3,(hl)
03F0 CD 40 05                   call L0540
03F3 CF                         rst $08
03F4 D1                         pop de
03F5 E1                         pop hl
03F6 C9                         ret
03F7 CD 40 05                   call L0540
03FA 3A B8 D5      L03FA:       ld a,($D5B8)
03FD 0F                         rrca
03FE 0F                         rrca
03FF C6 02                      add a,$02
0401 D7                         rst $10
0402 45                         ld b,l
0403 06 D7                      ld b,$D7
0405 9A                         sbc a,d
0406 0E 37                      ld c,$37
0408 DD 21 D9 D7                ld ix,$D7D9
040C C3 52 05                   jp L0552
040F 3A B8 D5                   ld a,($D5B8)
0412 A7                         and a
0413 C0                         ret nz
0414 CD 40 05                   call L0540
0417 CD 32 13                   call L1332
041A C3 52 05                   jp L0552
041D 21 B7 D5      L041D:       ld hl,$D5B7
0420 CB F6                      set 6,(hl)
0422 CD 90 09                   call L0990
0425 CD 7D 10                   call L107D
0428 CD 4F 04                   call L044F
042B D7                         rst $10
042C 74                         ld (hl),h
042D 12                         ld (de),a
042E C9                         ret
042F 21 B7 D5      L042F:       ld hl,$D5B7
0432 CB B6                      res 6,(hl)
0434 CD 85 09                   call L0985
0437 CD 74 10                   call L1074
043A CD 54 04                   call L0454
043D D7                         rst $10
043E 38 3F                      jr c,L047F
0440 C9                         ret
0441 06 00                      ld b,$00
0443 00                         nop
0444 00                         nop
0445 04                         inc b
0446 10 14                      djnz L045C
0448 06 00                      ld b,$00
044A 00                         nop
044B 00                         nop
044C 00                         nop
044D 01 01 21                   ld bc,$2101
0450 48                         ld c,b
0451 04                         inc b
0452 18 03                      jr L0457
0454 21 41 04      L0454:       ld hl,$0441
0457 11 45 D7      L0457:       ld de,$D745
045A 4E            L045A:       ld c,(hl)
045B 06 00                      ld b,$00
045D 23                         inc hl
045E ED B0                      ldir
0460 C9                         ret
0461 F5            L0461:       push af
0462 CD 40 05                   call L0540
0465 F1                         pop af
0466 FE 20                      cp $20
0468 38 18                      jr c,L0482
046A CD E1 09                   call L09E1
046D 21 B7 D5                   ld hl,$D5B7
0470 CB BE                      res 7,(hl)
0472 CB DE                      set 3,(hl)
0474 78                         ld a,b
0475 E5                         push hl
0476 CD C1 06                   call L06C1
0479 E1                         pop hl
047A CB FE                      set 7,(hl)
047C 30 07                      jr nc,L0485
047E 78                         ld a,b
047F C3 46 05      L047F:       jp L0546
0482 CD 86 10      L0482:       call L1086
0485 C3 52 05      L0485:       jp L0552
0488 CD 40 05                   call L0540
048B 21 B7 D5      L048B:       ld hl,$D5B7
048E CB DE                      set 3,(hl)
0490 CD 66 0A                   call L0A66
0493 CD E9 0A                   call L0AE9
0496 37            L0496:       scf
0497 78                         ld a,b
0498 C3 46 05                   jp L0546
049B 21 B7 D5                   ld hl,$D5B7
049E CB 86                      res 0,(hl)
04A0 CD 40 05                   call L0540
04A3 CD 51 0C                   call L0C51
04A6 2A 3D D7                   ld hl,($D73D)
04A9 19                         add hl,de
04AA CB 46                      bit 0,(hl)
04AC 28 0B                      jr z,L04B9
04AE C5                         push bc
04AF CD 78 07                   call L0778
04B2 78                         ld a,b
04B3 C1                         pop bc
04B4 30 E0                      jr nc,L0496
04B6 B8                         cp b
04B7 28 DD                      jr z,L0496
04B9 CD A1 06      L04B9:       call L06A1
04BC 3F                         ccf
04BD DA 52 05                   jp c,L0552
04C0 18 C9                      jr L048B
04C2 CD 40 05      L04C2:       call L0540
04C5 F5                         push af
04C6 CD 51 0C                   call L0C51
04C9 C5                         push bc
04CA 06 00                      ld b,$00
04CC CD A2 09                   call L09A2
04CF C1                         pop bc
04D0 38 0A                      jr c,L04DC
04D2 2A 3D D7                   ld hl,($D73D)
04D5 19                         add hl,de
04D6 7E                         ld a,(hl)
04D7 2F                         cpl
04D8 E6 09                      and $09
04DA 28 1B                      jr z,L04F7
04DC 3A B7 D5      L04DC:       ld a,($D5B7)
04DF CB 5F                      bit 3,a
04E1 28 05                      jr z,L04E8
04E3 CD D8 07                   call L07D8
04E6 30 13                      jr nc,L04FB
04E8 CD 93 07      L04E8:       call L0793
04EB CD C1 06                   call L06C1
04EE CD 34 0A                   call L0A34
04F1 06 00                      ld b,$00
04F3 F1                         pop af
04F4 37                         scf
04F5 18 4F                      jr L0546
04F7 F1            L04F7:       pop af
04F8 37                         scf
04F9 18 57                      jr L0552
04FB F1            L04FB:       pop af
04FC 18 54                      jr L0552
04FE 11 00 00                   ld de,$0000
0501 3A B8 D5      L0501:       ld a,($D5B8)
0504 A7                         and a
0505 C0                         ret nz
0506 CD 40 05                   call L0540
0509 CF                         rst $08
050A EB                         ex de,hl
050B E5                         push hl
050C E7                         rst $20
050D 6E                         ld l,(hl)
050E 19                         add hl,de
050F F1                         pop af
0510 A7                         and a
0511 28 01                      jr z,L0514
0513 EB                         ex de,hl
0514 E7            L0514:       rst $20
0515 95                         sub l
0516 16 C7                      ld d,$C7
0518 ED 53 49 5C                ld ($5C49),de
051C CD 86 10                   call L1086
051F CD 0C 01                   call L010C
0522 37                         scf
0523 18 2D                      jr L0552
0525 11 10 27                   ld de,$2710
0528 18 D7                      jr L0501
052A CD 40 05                   call L0540
052D CD 36 07                   call L0736
0530 30 20                      jr nc,L0552
0532 78                         ld a,b
0533 18 11                      jr L0546
0535 CD 40 05                   call L0540
0538 CD 55 07                   call L0755
053B 30 15                      jr nc,L0552
053D 78                         ld a,b
053E 18 06                      jr L0546
0540 CD 58 05      L0540:       call L0558
0543 C3 53 10                   jp L1053
0546 2A 4E D7      L0546:       ld hl,($D74E)
0549 22 49 5C                   ld ($5C49),hl
054C CD 86 10                   call L1086
054F CD 62 05                   call L0562
0552 CD 58 05      L0552:       call L0558
0555 C3 44 10                   jp L1044
0558 21 45 D7      L0558:       ld hl,$D745
055B 4E                         ld c,(hl)
055C 23                         inc hl
055D 46                         ld b,(hl)
055E 23                         inc hl
055F 7E                         ld a,(hl)
0560 23                         inc hl
0561 C9                         ret
0562 21 45 D7      L0562:       ld hl,$D745
0565 71                         ld (hl),c
0566 23                         inc hl
0567 70                         ld (hl),b
0568 23                         inc hl
0569 77                         ld (hl),a
056A C9                         ret
056B E5            L056B:       push hl
056C CD 51 0C                   call L0C51
056F 26 00                      ld h,$00
0571 68                         ld l,b
0572 19                         add hl,de
0573 7E                         ld a,(hl)
0574 E1                         pop hl
0575 C9                         ret
0576 CD 40 05                   call L0540
0579 5F                         ld e,a
057A 16 0A                      ld d,$0A
057C D5            L057C:       push de
057D CD 76 06                   call L0676
0580 D1                         pop de
0581 30 CF                      jr nc,L0552
0583 7B                         ld a,e
0584 CD 62 05                   call L0562
0587 43                         ld b,e
0588 CD 3F 06                   call L063F
058B 30 06                      jr nc,L0593
058D 15                         dec d
058E 20 EC                      jr nz,L057C
0590 7B                         ld a,e
0591 38 B3                      jr c,L0546
0593 D5            L0593:       push de
0594 CD 51 06                   call L0651
0597 D1                         pop de
0598 43                         ld b,e
0599 CD 3F 06                   call L063F
059C 7B                         ld a,e
059D B7                         or a
059E 18 A6                      jr L0546
05A0 CD 40 05                   call L0540
05A3 5F                         ld e,a
05A4 16 0A                      ld d,$0A
05A6 D5            L05A6:       push de
05A7 CD 51 06                   call L0651
05AA D1                         pop de
05AB 30 A5                      jr nc,L0552
05AD 7B                         ld a,e
05AE CD 62 05                   call L0562
05B1 43                         ld b,e
05B2 CD 48 06                   call L0648
05B5 30 06                      jr nc,L05BD
05B7 15                         dec d
05B8 20 EC                      jr nz,L05A6
05BA 7B                         ld a,e
05BB 38 89                      jr c,L0546
05BD F5            L05BD:       push af
05BE CD 76 06                   call L0676
05C1 06 00                      ld b,$00
05C3 CD 20 07                   call L0720
05C6 F1                         pop af
05C7 C3 46 05                   jp L0546
05CA CD 40 05                   call L0540
05CD CD 93 07                   call L0793
05D0 D2 52 05                   jp nc,L0552
05D3 78                         ld a,b
05D4 C3 46 05                   jp L0546
05D7 CD 40 05                   call L0540
05DA CD 78 07                   call L0778
05DD D2 52 05                   jp nc,L0552
05E0 78                         ld a,b
05E1 C3 46 05                   jp L0546
05E4 CD 40 05                   call L0540
05E7 5F                         ld e,a
05E8 D5                         push de
05E9 CD 51 06                   call L0651
05EC D1                         pop de
05ED D2 52 05                   jp nc,L0552
05F0 43                         ld b,e
05F1 CD 48 06                   call L0648
05F4 7B                         ld a,e
05F5 DA 46 05                   jp c,L0546
05F8 F5                         push af
05F9 CD 76 06                   call L0676
05FC 06 00                      ld b,$00
05FE CD 3F 06                   call L063F
0601 F1                         pop af
0602 C3 46 05                   jp L0546
0605 CD 40 05                   call L0540
0608 5F                         ld e,a
0609 D5                         push de
060A CD 76 06                   call L0676
060D D1                         pop de
060E D2 52 05                   jp nc,L0552
0611 43                         ld b,e
0612 CD 48 06                   call L0648
0615 7B                         ld a,e
0616 DA 46 05                   jp c,L0546
0619 D5                         push de
061A CD 51 06                   call L0651
061D D1                         pop de
061E 43                         ld b,e
061F CD 3F 06                   call L063F
0622 7B                         ld a,e
0623 B7                         or a
0624 C3 46 05                   jp L0546
0627 CD 40 05                   call L0540
062A CD A1 06                   call L06A1
062D DA 46 05                   jp c,L0546
0630 C3 52 05                   jp L0552
0633 CD 40 05                   call L0540
0636 CD C1 06                   call L06C1
0639 DA 46 05                   jp c,L0546
063C C3 52 05                   jp L0552
063F D5            L063F:       push de
0640 CD 20 07                   call L0720
0643 D4 2B 07                   call nc,L072B
0646 D1                         pop de
0647 C9                         ret
0648 D5            L0648:       push de
0649 CD 2B 07                   call L072B
064C D4 20 07                   call nc,L0720
064F D1                         pop de
0650 C9                         ret
0651 CD C6 07      L0651:       call L07C6
0654 30 1F                      jr nc,L0675
0656 C5                         push bc
0657 CD 51 0C                   call L0C51
065A 06 00                      ld b,$00
065C CD A2 09                   call L09A2
065F D4 23 0B                   call nc,L0B23
0662 C1                         pop bc
0663 21 48 D7                   ld hl,$D748
0666 7E                         ld a,(hl)
0667 B9                         cp c
0668 38 09                      jr c,L0673
066A C5                         push bc
066B CD 72 02                   call L0272
066E C1                         pop bc
066F D8                         ret c
0670 79                         ld a,c
0671 B7                         or a
0672 C8                         ret z
0673 0D            L0673:       dec c
0674 37                         scf
0675 C9            L0675:       ret
0676 C5            L0676:       push bc
0677 CD 51 0C                   call L0C51
067A 06 00                      ld b,$00
067C CD A2 09                   call L09A2
067F C1                         pop bc
0680 38 03                      jr c,L0685
0682 C3 23 0B                   jp L0B23
0685 CD B2 07      L0685:       call L07B2
0688 30 16                      jr nc,L06A0
068A 21 48 D7                   ld hl,$D748
068D 23                         inc hl
068E 79                         ld a,c
068F BE                         cp (hl)
0690 38 0C                      jr c,L069E
0692 C5                         push bc
0693 E5                         push hl
0694 CD 3A 02                   call L023A
0697 E1                         pop hl
0698 C1                         pop bc
0699 D8                         ret c
069A 23                         inc hl
069B 7E                         ld a,(hl)
069C B9                         cp c
069D C8                         ret z
069E 0C            L069E:       inc c
069F 37                         scf
06A0 C9            L06A0:       ret
06A1 57            L06A1:       ld d,a
06A2 05                         dec b
06A3 FA AC 06                   jp m,L06AC
06A6 58                         ld e,b
06A7 CD 2B 07                   call L072B
06AA 7B                         ld a,e
06AB D8                         ret c
06AC D5            L06AC:       push de
06AD CD 51 06                   call L0651
06B0 D1                         pop de
06B1 7B                         ld a,e
06B2 D0                         ret nc
06B3 3A 3D D7                   ld a,($D73D)
06B6 47                         ld b,a
06B7 05                         dec b
06B8 CD 2B 07                   call L072B
06BB 78                         ld a,b
06BC D8                         ret c
06BD 7A                         ld a,d
06BE 06 00                      ld b,$00
06C0 C9                         ret
06C1 57            L06C1:       ld d,a
06C2 04                         inc b
06C3 3A 3D D7                   ld a,($D73D)
06C6 3D                         dec a
06C7 B8                         cp b
06C8 38 06                      jr c,L06D0
06CA 58                         ld e,b
06CB CD 20 07                   call L0720
06CE 7B                         ld a,e
06CF D8                         ret c
06D0 05            L06D0:       dec b
06D1 C5                         push bc
06D2 E5                         push hl
06D3 21 B7 D5                   ld hl,$D5B7
06D6 CB 7E                      bit 7,(hl)
06D8 20 32                      jr nz,L070C
06DA CD 51 0C                   call L0C51
06DD 2A 3D D7                   ld hl,($D73D)
06E0 19                         add hl,de
06E1 7E                         ld a,(hl)
06E2 CB 4F                      bit 1,a
06E4 20 26                      jr nz,L070C
06E6 CB CE                      set 1,(hl)
06E8 CB 9E                      res 3,(hl)
06EA EB                         ex de,hl
06EB CD A9 11                   call L11A9
06EE E1                         pop hl
06EF C1                         pop bc
06F0 F5                         push af
06F1 CD 76 06                   call L0676
06F4 F1                         pop af
06F5 CD 51 0C                   call L0C51
06F8 D5                         push de
06F9 2A 3F D7                   ld hl,($D73F)
06FC 19                         add hl,de
06FD EB                         ex de,hl
06FE E6 FC                      and $FC
0700 CB DF                      set 3,a
0702 CD 39 0A                   call L0A39
0705 D1                         pop de
0706 CD 0C 10                   call L100C
0709 78                         ld a,b
070A 37                         scf
070B C9                         ret
070C E1            L070C:       pop hl
070D C1                         pop bc
070E D5                         push de
070F CD 76 06                   call L0676
0712 D1                         pop de
0713 78                         ld a,b
0714 D0                         ret nc
0715 06 00                      ld b,$00
0717 CD 20 07                   call L0720
071A 78                         ld a,b
071B D8                         ret c
071C 7B                         ld a,e
071D 06 00                      ld b,$00
071F C9                         ret
0720 D5            L0720:       push de
0721 E5                         push hl
0722 CD 51 0C                   call L0C51
0725 CD A2 09                   call L09A2
0728 C3 AF 07                   jp L07AF
072B D5            L072B:       push de
072C E5                         push hl
072D CD 51 0C                   call L0C51
0730 CD C5 09                   call L09C5
0733 C3 AF 07                   jp L07AF
0736 D5            L0736:       push de
0737 E5                         push hl
0738 CD A1 06      L0738:       call L06A1
073B 30 16                      jr nc,L0753
073D CD 6B 05                   call L056B
0740 FE 20                      cp $20
0742 28 F4                      jr z,L0738
0744 CD A1 06      L0744:       call L06A1
0747 30 0A                      jr nc,L0753
0749 CD 6B 05                   call L056B
074C FE 20                      cp $20
074E 20 F4                      jr nz,L0744
0750 CD C1 06                   call L06C1
0753 18 5A         L0753:       jr L07AF
0755 D5            L0755:       push de
0756 E5                         push hl
0757 CD C1 06      L0757:       call L06C1
075A 30 16                      jr nc,L0772
075C CD 6B 05                   call L056B
075F FE 20                      cp $20
0761 20 F4                      jr nz,L0757
0763 CD C1 06      L0763:       call L06C1
0766 30 0A                      jr nc,L0772
0768 CD 6B 05                   call L056B
076B FE 20                      cp $20
076D 28 F4                      jr z,L0763
076F 37                         scf
0770 18 3D                      jr L07AF
0772 D4 A1 06      L0772:       call nc,L06A1
0775 B7                         or a
0776 18 37                      jr L07AF
0778 D5            L0778:       push de
0779 E5                         push hl
077A CD 51 0C      L077A:       call L0C51
077D 2A 3D D7                   ld hl,($D73D)
0780 19                         add hl,de
0781 CB 46                      bit 0,(hl)
0783 20 07                      jr nz,L078C
0785 CD 51 06                   call L0651
0788 38 F0                      jr c,L077A
078A 18 23                      jr L07AF
078C 06 00         L078C:       ld b,$00
078E CD 20 07                   call L0720
0791 18 1C                      jr L07AF
0793 D5            L0793:       push de
0794 E5                         push hl
0795 CD 51 0C      L0795:       call L0C51
0798 2A 3D D7                   ld hl,($D73D)
079B 19                         add hl,de
079C CB 5E                      bit 3,(hl)
079E 20 07                      jr nz,L07A7
07A0 CD 76 06                   call L0676
07A3 38 F0                      jr c,L0795
07A5 18 08                      jr L07AF
07A7 3A 3D D7      L07A7:       ld a,($D73D)
07AA 47                         ld b,a
07AB 05                         dec b
07AC CD 2B 07                   call L072B
07AF E1            L07AF:       pop hl
07B0 D1                         pop de
07B1 C9                         ret
07B2 3A B7 D5      L07B2:       ld a,($D5B7)
07B5 CB 5F                      bit 3,a
07B7 37                         scf
07B8 C8                         ret z
07B9 CD 51 0C                   call L0C51
07BC 2A 3D D7                   ld hl,($D73D)
07BF 19                         add hl,de
07C0 CB 5E                      bit 3,(hl)
07C2 37                         scf
07C3 C8                         ret z
07C4 18 12                      jr L07D8
07C6 3A B7 D5      L07C6:       ld a,($D5B7)
07C9 CB 5F                      bit 3,a
07CB 37                         scf
07CC C8                         ret z
07CD CD 51 0C                   call L0C51
07D0 2A 3D D7                   ld hl,($D73D)
07D3 19                         add hl,de
07D4 CB 46                      bit 0,(hl)
07D6 37                         scf
07D7 C8                         ret z
07D8 3E 02         L07D8:       ld a,$02
07DA CD 51 0C      L07DA:       call L0C51
07DD 2A 3D D7                   ld hl,($D73D)
07E0 19                         add hl,de
07E1 CB 46                      bit 0,(hl)
07E3 20 08                      jr nz,L07ED
07E5 0D                         dec c
07E6 F2 DA 07                   jp p,L07DA
07E9 0E 00                      ld c,$00
07EB 3E 01                      ld a,$01
07ED 21 AF D5      L07ED:       ld hl,$D5AF
07F0 11 B2 D5                   ld de,$D5B2
07F3 F6 80                      or $80
07F5 77                         ld (hl),a
07F6 12                         ld (de),a
07F7 23                         inc hl
07F8 13                         inc de
07F9 AF                         xor a
07FA 77                         ld (hl),a
07FB 12                         ld (de),a
07FC 23                         inc hl
07FD 13                         inc de
07FE 79                         ld a,c
07FF 77                         ld (hl),a
0800 12                         ld (de),a
0801 21 00 00                   ld hl,$0000
0804 22 B5 D5                   ld ($D5B5),hl
0807 CF                         rst $08
0808 21 91 0B                   ld hl,$0B91
080B 22 6C 5B                   ld ($5B6C),hl
080E 21 3A 5B                   ld hl,$5B3A
0811 E5                         push hl
0812 ED 73 3D 5C                ld ($5C3D),sp
0816 C7                         rst $00
0817 CD EE 14                   call L14EE
081A CF                         rst $08
081B E1                         pop hl
081C C7                         rst $00
081D ED 4B F3 D7                ld bc,($D7F3)
0821 21 00 05                   ld hl,$0500
0824 A7                         and a
0825 ED 42                      sbc hl,bc
0827 38 38                      jr c,L0861
0829 DD E5                      push ix
082B CF                         rst $08
082C DF                         rst $18
082D FE 09                      cp $09
082F C7                         rst $00
0830 FB                         ei
0831 DD E1                      pop ix
0833 3A 3A 5C                   ld a,($5C3A)
0836 3C                         inc a
0837 20 13                      jr nz,L084C
0839 21 B7 D5                   ld hl,$D5B7
083C CB 9E                      res 3,(hl)
083E D7                         rst $10
083F 82                         add a,d
0840 0F                         rrca
0841 CD 0C 01                   call L010C
0844 D7                         rst $10
0845 2B                         dec hl
0846 3E CD                      ld a,$CD
0848 58                         ld e,b
0849 05                         dec b
084A 37                         scf
084B C9                         ret
084C 21 AF D5      L084C:       ld hl,$D5AF
084F 11 B2 D5                   ld de,$D5B2
0852 1A                         ld a,(de)
0853 CB BF                      res 7,a
0855 77                         ld (hl),a
0856 23                         inc hl
0857 13                         inc de
0858 1A                         ld a,(de)
0859 77                         ld (hl),a
085A 23                         inc hl
085B 13                         inc de
085C 1A                         ld a,(de)
085D 77                         ld (hl),a
085E CD EA 14                   call L14EA
0861 2A B5 D5      L0861:       ld hl,($D5B5)
0864 B7                         or a
0865 ED 42                      sbc hl,bc
0867 F5                         push af
0868 E5                         push hl
0869 CD 58 05                   call L0558
086C E1                         pop hl
086D F1                         pop af
086E 38 11                      jr c,L0881
0870 28 2A                      jr z,L089C
0872 E5            L0872:       push hl
0873 78                         ld a,b
0874 CD A1 06                   call L06A1
0877 E1                         pop hl
0878 30 22                      jr nc,L089C
087A 2B                         dec hl
087B 7C                         ld a,h
087C B5                         or l
087D 20 F3                      jr nz,L0872
087F 18 1B                      jr L089C
0881 E5            L0881:       push hl
0882 21 B7 D5                   ld hl,$D5B7
0885 CB BE                      res 7,(hl)
0887 E1                         pop hl
0888 EB                         ex de,hl
0889 21 00 00                   ld hl,$0000
088C B7                         or a
088D ED 52                      sbc hl,de
088F E5            L088F:       push hl
0890 78                         ld a,b
0891 CD C1 06                   call L06C1
0894 E1                         pop hl
0895 30 05                      jr nc,L089C
0897 2B                         dec hl
0898 7C                         ld a,h
0899 B5                         or l
089A 20 F3                      jr nz,L088F
089C 21 B7 D5      L089C:       ld hl,$D5B7
089F CB FE                      set 7,(hl)
08A1 3A 47 D7                   ld a,($D747)
08A4 CD 62 05                   call L0562
08A7 3E 04                      ld a,$04
08A9 CD 8F 10                   call L108F
08AC B7                         or a
08AD C9                         ret
08AE 21 AF D5      L08AE:       ld hl,$D5AF
08B1 CB 7E                      bit 7,(hl)
08B3 28 07                      jr z,L08BC
08B5 2A B5 D5                   ld hl,($D5B5)
08B8 23                         inc hl
08B9 22 B5 D5                   ld ($D5B5),hl
08BC 21 AF D5      L08BC:       ld hl,$D5AF
08BF 7E                         ld a,(hl)
08C0 23                         inc hl
08C1 46                         ld b,(hl)
08C2 23                         inc hl
08C3 4E                         ld c,(hl)
08C4 E5                         push hl
08C5 E6 0F                      and $0F
08C7 21 F4 08                   ld hl,$08F4
08CA CD E4 00                   call L00E4
08CD 5D                         ld e,l
08CE E1                         pop hl
08CF A7                         and a
08D0 20 04                      jr nz,L08D6
08D2 3E 0D                      ld a,$0D
08D4 18 12                      jr L08E8
08D6 FE 20         L08D6:       cp $20
08D8 30 0E                      jr nc,L08E8
08DA C6 3B                      add a,$3B
08DC FE 41                      cp $41
08DE 30 08                      jr nc,L08E8
08E0 C6 E4                      add a,$E4
08E2 FE 22                      cp $22
08E4 20 02                      jr nz,L08E8
08E6 3E 52                      ld a,$52
08E8 71            L08E8:       ld (hl),c
08E9 2B                         dec hl
08EA 70                         ld (hl),b
08EB 2B                         dec hl
08EC F5                         push af
08ED 7E                         ld a,(hl)
08EE E6 F0                      and $F0
08F0 B3                         or e
08F1 77                         ld (hl),a
08F2 F1                         pop af
08F3 C9                         ret
08F4 02                         ld (bc),a
08F5 19                         add hl,de
08F6 09                         add hl,bc
08F7 04                         inc b
08F8 53                         ld d,e
08F9 09                         add hl,bc
08FA 01 FE 08                   ld bc,$08FE
08FD FF                         rst $38
08FE CD 5E 0E      L08FE:       call L0E5E
0901 CD 76 09      L0901:       call L0976
0904 30 06                      jr nc,L090C
0906 A7                         and a
0907 28 F8                      jr z,L0901
0909 2E 01                      ld l,$01
090B C9                         ret
090C 0C            L090C:       inc c
090D 06 00                      ld b,$00
090F 21 73 CE                   ld hl,$CE73
0912 79                         ld a,c
0913 BE                         cp (hl)
0914 38 E8                      jr c,L08FE
0916 06 00                      ld b,$00
0918 48                         ld c,b
0919 E5            L0919:       push hl
091A 21 45 D7                   ld hl,$D745
091D 7E                         ld a,(hl)
091E B9                         cp c
091F 20 0A                      jr nz,L092B
0921 23                         inc hl
0922 7E                         ld a,(hl)
0923 B8                         cp b
0924 20 05                      jr nz,L092B
0926 21 AF D5                   ld hl,$D5AF
0929 CB BE                      res 7,(hl)
092B E1            L092B:       pop hl
092C CD 51 0C      L092C:       call L0C51
092F CD 76 09                   call L0976
0932 30 06                      jr nc,L093A
0934 A7                         and a
0935 28 E2                      jr z,L0919
0937 2E 02                      ld l,$02
0939 C9                         ret
093A 2A 3D D7      L093A:       ld hl,($D73D)
093D 19                         add hl,de
093E CB 5E                      bit 3,(hl)
0940 28 04                      jr z,L0946
0942 2E 08                      ld l,$08
0944 AF                         xor a
0945 C9                         ret
0946 21 4A D7      L0946:       ld hl,$D74A
0949 0C                         inc c
094A 7E                         ld a,(hl)
094B B9                         cp c
094C 06 00                      ld b,$00
094E 30 DC                      jr nc,L092C
0950 01 01 00                   ld bc,$0001
0953 CD 64 0D      L0953:       call L0D64
0956 CD 76 09      L0956:       call L0976
0959 30 06                      jr nc,L0961
095B A7                         and a
095C 28 F8                      jr z,L0956
095E 2E 04                      ld l,$04
0960 C9                         ret
0961 2A 3D D7      L0961:       ld hl,($D73D)
0964 19                         add hl,de
0965 CB 5E                      bit 3,(hl)
0967 20 09                      jr nz,L0972
0969 0C                         inc c
096A 06 00                      ld b,$00
096C 3A 38 C7                   ld a,($C738)
096F B9                         cp c
0970 30 E1                      jr nc,L0953
0972 2E 08         L0972:       ld l,$08
0974 AF                         xor a
0975 C9                         ret
0976 3A 3D D7      L0976:       ld a,($D73D)
0979 3D                         dec a
097A B8                         cp b
097B 3F                         ccf
097C D0                         ret nc
097D 68                         ld l,b
097E 26 00                      ld h,$00
0980 19                         add hl,de
0981 7E                         ld a,(hl)
0982 04                         inc b
0983 37                         scf
0984 C9                         ret
0985 21 3C 5C      L0985:       ld hl,$5C3C
0988 CB 86                      res 0,(hl)
098A 3E 14                      ld a,$14
098C 32 3C D7      L098C:       ld ($D73C),a
098F C9                         ret
0990 21 3C 5C      L0990:       ld hl,$5C3C
0993 CB C6                      set 0,(hl)
0995 01 00 00                   ld bc,$0000
0998 CD E1 10                   call L10E1
099B D7                         rst $10
099C BA                         cp d
099D 07                         rlca
099E 3E 01                      ld a,$01
09A0 18 EA                      jr L098C
09A2 26 00         L09A2:       ld h,$00
09A4 68                         ld l,b
09A5 19                         add hl,de
09A6 7E                         ld a,(hl)
09A7 A7                         and a
09A8 37                         scf
09A9 C0                         ret nz
09AA 78                         ld a,b
09AB B7                         or a
09AC 28 0B                      jr z,L09B9
09AE E5                         push hl
09AF 2B                         dec hl
09B0 7E                         ld a,(hl)
09B1 A7                         and a
09B2 37                         scf
09B3 E1                         pop hl
09B4 C0                         ret nz
09B5 7E            L09B5:       ld a,(hl)
09B6 A7                         and a
09B7 37                         scf
09B8 C0                         ret nz
09B9 23            L09B9:       inc hl
09BA 04                         inc b
09BB 3A 3D D7                   ld a,($D73D)
09BE 3D                         dec a
09BF 3D                         dec a
09C0 B8                         cp b
09C1 3F                         ccf
09C2 38 F1                      jr c,L09B5
09C4 C9                         ret
09C5 26 00         L09C5:       ld h,$00
09C7 68                         ld l,b
09C8 19                         add hl,de
09C9 7E                         ld a,(hl)
09CA A7                         and a
09CB 37                         scf
09CC C0                         ret nz
09CD 7E            L09CD:       ld a,(hl)
09CE A7                         and a
09CF 20 07                      jr nz,L09D8
09D1 78                         ld a,b
09D2 B7                         or a
09D3 C8                         ret z
09D4 2B                         dec hl
09D5 05                         dec b
09D6 18 F5                      jr L09CD
09D8 04            L09D8:       inc b
09D9 37                         scf
09DA C9                         ret
09DB 26 00                      ld h,$00
09DD 68                         ld l,b
09DE 19                         add hl,de
09DF 7E                         ld a,(hl)
09E0 C9                         ret
09E1 21 B7 D5      L09E1:       ld hl,$D5B7
09E4 A7                         and a
09E5 CB 46                      bit 0,(hl)
09E7 C0                         ret nz
09E8 C5                         push bc
09E9 CD 51 0C                   call L0C51
09EC CD B1 02      L09EC:       call L02B1
09EF F5                         push af
09F0 EB                         ex de,hl
09F1 CD 69 11                   call L1169
09F4 EB                         ex de,hl
09F5 F1                         pop af
09F6 3F                         ccf
09F7 28 39                      jr z,L0A32
09F9 F5                         push af
09FA 0C                         inc c
09FB 3A 3C D7                   ld a,($D73C)
09FE B9                         cp c
09FF 38 2D                      jr c,L0A2E
0A01 7E                         ld a,(hl)
0A02 CB 9E                      res 3,(hl)
0A04 BE                         cp (hl)
0A05 CB CE         L0A05:       set 1,(hl)
0A07 F5                         push af
0A08 CD 51 0C                   call L0C51
0A0B 19                         add hl,de
0A0C 2B                         dec hl
0A0D 2B                         dec hl
0A0E 2B                         dec hl
0A0F F1                         pop af
0A10 28 10                      jr z,L0A22
0A12 E6 1E                      and $1E
0A14 B0                         or b
0A15 CD 39 0A                   call L0A39
0A18 E1                         pop hl
0A19 30 17                      jr nc,L0A32
0A1B E5                         push hl
0A1C CD 0C 10                   call L100C
0A1F F1                         pop af
0A20 18 CA                      jr L09EC
0A22 CD 1C 0B      L0A22:       call L0B1C
0A25 EB                         ex de,hl
0A26 06 00                      ld b,$00
0A28 CD A2 09                   call L09A2
0A2B F1                         pop af
0A2C 18 BE                      jr L09EC
0A2E F1            L0A2E:       pop af
0A2F CD 11 0D                   call L0D11
0A32 C1            L0A32:       pop bc
0A33 C9                         ret
0A34 CD 51 0C      L0A34:       call L0C51
0A37 3E 29                      ld a,$29
0A39 C5            L0A39:       push bc
0A3A D5                         push de
0A3B 41                         ld b,c
0A3C 21 90 E0                   ld hl,$E090
0A3F 4F                         ld c,a
0A40 E5                         push hl
0A41 3A 3D D7                   ld a,($D73D)
0A44 36 00         L0A44:       ld (hl),$00
0A46 23                         inc hl
0A47 3D                         dec a
0A48 20 FA                      jr nz,L0A44
0A4A 36 29                      ld (hl),$29
0A4C 23                         inc hl
0A4D 77                         ld (hl),a
0A4E 23                         inc hl
0A4F 77                         ld (hl),a
0A50 E1                         pop hl
0A51 C5                         push bc
0A52 CD 78 02                   call L0278
0A55 C1                         pop bc
0A56 79                         ld a,c
0A57 30 0A                      jr nc,L0A63
0A59 48                         ld c,b
0A5A CD 51 0C                   call L0C51
0A5D 2A 3D D7                   ld hl,($D73D)
0A60 19                         add hl,de
0A61 77                         ld (hl),a
0A62 37                         scf
0A63 D1            L0A63:       pop de
0A64 C1                         pop bc
0A65 C9                         ret
0A66 C5            L0A66:       push bc
0A67 CD 51 0C                   call L0C51
0A6A C5                         push bc
0A6B 2A 3D D7      L0A6B:       ld hl,($D73D)
0A6E 19                         add hl,de
0A6F AF                         xor a
0A70 CB 4E                      bit 1,(hl)
0A72 28 10                      jr z,L0A84
0A74 0C                         inc c
0A75 2A 3F D7                   ld hl,($D73F)
0A78 19                         add hl,de
0A79 EB                         ex de,hl
0A7A 3A 3C D7                   ld a,($D73C)
0A7D B9                         cp c
0A7E 30 EB                      jr nc,L0A6B
0A80 0D                         dec c
0A81 CD 6A 0D                   call L0D6A
0A84 E1            L0A84:       pop hl
0A85 E5            L0A85:       push hl
0A86 CD 51 0C                   call L0C51
0A89 E1                         pop hl
0A8A 47                         ld b,a
0A8B 79                         ld a,c
0A8C BD                         cp l
0A8D 78                         ld a,b
0A8E F5                         push af
0A8F 20 03                      jr nz,L0A94
0A91 44                         ld b,h
0A92 18 09                      jr L0A9D
0A94 F5            L0A94:       push af
0A95 E5                         push hl
0A96 06 00                      ld b,$00
0A98 CD A2 09                   call L09A2
0A9B E1                         pop hl
0A9C F1                         pop af
0A9D E5            L0A9D:       push hl
0A9E 21 4B D7                   ld hl,$D74B
0AA1 CB C6                      set 0,(hl)
0AA3 28 02                      jr z,L0AA7
0AA5 CB 86                      res 0,(hl)
0AA7 CD C9 02      L0AA7:       call L02C9
0AAA F5                         push af
0AAB C5                         push bc
0AAC D5                         push de
0AAD 21 4B D7                   ld hl,$D74B
0AB0 CB 46                      bit 0,(hl)
0AB2 20 0E                      jr nz,L0AC2
0AB4 06 00                      ld b,$00
0AB6 CD 20 07                   call L0720
0AB9 38 07                      jr c,L0AC2
0ABB CD 23 0B                   call L0B23
0ABE D1                         pop de
0ABF C1                         pop bc
0AC0 18 05                      jr L0AC7
0AC2 E1            L0AC2:       pop hl
0AC3 C1                         pop bc
0AC4 CD 69 11                   call L1169
0AC7 F1            L0AC7:       pop af
0AC8 0D                         dec c
0AC9 47                         ld b,a
0ACA E1                         pop hl
0ACB F1                         pop af
0ACC 78                         ld a,b
0ACD C2 85 0A                   jp nz,L0A85
0AD0 D5                         push de
0AD1 2A 3D D7                   ld hl,($D73D)
0AD4 19                         add hl,de
0AD5 D1                         pop de
0AD6 CB 46                      bit 0,(hl)
0AD8 28 0C                      jr z,L0AE6
0ADA 06 00                      ld b,$00
0ADC CD A2 09                   call L09A2
0ADF 38 05                      jr c,L0AE6
0AE1 21 B7 D5                   ld hl,$D5B7
0AE4 CB 9E                      res 3,(hl)
0AE6 AF            L0AE6:       xor a
0AE7 C1                         pop bc
0AE8 C9                         ret
0AE9 C5            L0AE9:       push bc
0AEA CD 51 0C                   call L0C51
0AED EB                         ex de,hl
0AEE CD 69 11      L0AEE:       call L1169
0AF1 CB 5F                      bit 3,a
0AF3 20 1B                      jr nz,L0B10
0AF5 0C                         inc c
0AF6 3A 3C D7                   ld a,($D73C)
0AF9 B9                         cp c
0AFA 38 05                      jr c,L0B01
0AFC CD 12 0B                   call L0B12
0AFF 18 ED                      jr L0AEE
0B01 21 3B C7      L0B01:       ld hl,$C73B
0B04 CD 12 0B      L0B04:       call L0B12
0B07 CD A9 11                   call L11A9
0B0A CB 5F                      bit 3,a
0B0C 20 02                      jr nz,L0B10
0B0E 18 F4                      jr L0B04
0B10 C1            L0B10:       pop bc
0B11 C9                         ret
0B12 ED 5B 3F D7   L0B12:       ld de,($D73F)
0B16 19                         add hl,de
0B17 EB                         ex de,hl
0B18 2A 3D D7                   ld hl,($D73D)
0B1B 19                         add hl,de
0B1C 7E            L0B1C:       ld a,(hl)
0B1D E6 1F                      and $1F
0B1F B0                         or b
0B20 77                         ld (hl),a
0B21 EB                         ex de,hl
0B22 C9                         ret
0B23 2A 3D D7      L0B23:       ld hl,($D73D)
0B26 19                         add hl,de
0B27 7E                         ld a,(hl)
0B28 CB 46                      bit 0,(hl)
0B2A 20 29                      jr nz,L0B55
0B2C F5                         push af
0B2D C5                         push bc
0B2E 79                         ld a,c
0B2F B7                         or a
0B30 20 15                      jr nz,L0B47
0B32 C5                         push bc
0B33 2A 4E D7                   ld hl,($D74E)
0B36 CD F9 13                   call L13F9
0B39 22 4E D7                   ld ($D74E),hl
0B3C 3A 73 CE                   ld a,($CE73)
0B3F 4F                         ld c,a
0B40 0D                         dec c
0B41 CD 5E 0E                   call L0E5E
0B44 C1                         pop bc
0B45 18 04                      jr L0B4B
0B47 0D            L0B47:       dec c
0B48 CD 51 0C                   call L0C51
0B4B C1            L0B4B:       pop bc
0B4C F1                         pop af
0B4D 2A 3D D7                   ld hl,($D73D)
0B50 19                         add hl,de
0B51 CB 8E                      res 1,(hl)
0B53 B6                         or (hl)
0B54 77                         ld (hl),a
0B55 41            L0B55:       ld b,c
0B56 CD 51 0C                   call L0C51
0B59 CD 73 0C                   call L0C73
0B5C C3 49 02                   jp L0249
0B5F CD 27 0C                   call L0C27
0B62 E5            L0B62:       push hl
0B63 CD 38 0C                   call L0C38
0B66 28 32                      jr z,L0B9A
0B68 CD A1 06                   call L06A1
0B6B E1                         pop hl
0B6C 30 2D                      jr nc,L0B9B
0B6E CD 6B 05                   call L056B
0B71 F5                         push af
0B72 E5                         push hl
0B73 CD 66 0A                   call L0A66
0B76 E1                         pop hl
0B77 F1                         pop af
0B78 FE 20                      cp $20
0B7A 28 E6                      jr z,L0B62
0B7C E5            L0B7C:       push hl
0B7D CD 38 0C                   call L0C38
0B80 28 18                      jr z,L0B9A
0B82 CD A1 06                   call L06A1
0B85 E1                         pop hl
0B86 30 13                      jr nc,L0B9B
0B88 CD 6B 05                   call L056B
0B8B FE 20                      cp $20
0B8D 28 07                      jr z,L0B96
0B8F E5                         push hl
0B90 CD 66 0A                   call L0A66
0B93 E1                         pop hl
0B94 18 E6                      jr L0B7C
0B96 E5            L0B96:       push hl
0B97 CD C1 06                   call L06C1
0B9A E1            L0B9A:       pop hl
0B9B 78            L0B9B:       ld a,b
0B9C F5                         push af
0B9D E5                         push hl
0B9E CD E9 0A                   call L0AE9
0BA1 21 41 D7                   ld hl,$D741
0BA4 CB 96                      res 2,(hl)
0BA6 3A 3C D7                   ld a,($D73C)
0BA9 C5                         push bc
0BAA 06 00                      ld b,$00
0BAC 4F                         ld c,a
0BAD BF                         cp a
0BAE CD 0F 02                   call L020F
0BB1 C1                         pop bc
0BB2 21 B7 D5                   ld hl,$D5B7
0BB5 CB DE                      set 3,(hl)
0BB7 E1                         pop hl
0BB8 78                         ld a,b
0BB9 CD 46 05                   call L0546
0BBC F1                         pop af
0BBD C9                         ret
0BBE CD 27 0C                   call L0C27
0BC1 E5            L0BC1:       push hl
0BC2 CD 6B 05                   call L056B
0BC5 E1                         pop hl
0BC6 A7                         and a
0BC7 37                         scf
0BC8 28 D1                      jr z,L0B9B
0BCA F5                         push af
0BCB E5                         push hl
0BCC CD 66 0A                   call L0A66
0BCF E1                         pop hl
0BD0 F1                         pop af
0BD1 FE 20                      cp $20
0BD3 20 EC                      jr nz,L0BC1
0BD5 CD 6B 05      L0BD5:       call L056B
0BD8 FE 20                      cp $20
0BDA 37                         scf
0BDB 20 BE                      jr nz,L0B9B
0BDD E5                         push hl
0BDE CD 66 0A                   call L0A66
0BE1 E1                         pop hl
0BE2 18 F1                      jr L0BD5
0BE4 CD 27 0C                   call L0C27
0BE7 E5            L0BE7:       push hl
0BE8 CD 51 0C                   call L0C51
0BEB 2A 3D D7                   ld hl,($D73D)
0BEE 19                         add hl,de
0BEF CB 46                      bit 0,(hl)
0BF1 20 0C                      jr nz,L0BFF
0BF3 CD A1 06                   call L06A1
0BF6 30 19                      jr nc,L0C11
0BF8 CD 66 0A                   call L0A66
0BFB E1                         pop hl
0BFC 18 E9                      jr L0BE7
0BFE E5                         push hl
0BFF 78            L0BFF:       ld a,b
0C00 A7                         and a
0C01 28 0E                      jr z,L0C11
0C03 05                         dec b
0C04 CD 6B 05                   call L056B
0C07 04                         inc b
0C08 A7                         and a
0C09 28 06                      jr z,L0C11
0C0B 05                         dec b
0C0C CD 66 0A                   call L0A66
0C0F 18 EE                      jr L0BFF
0C11 E1            L0C11:       pop hl
0C12 37            L0C12:       scf
0C13 C3 9B 0B                   jp L0B9B
0C16 CD 27 0C                   call L0C27
0C19 CD 6B 05      L0C19:       call L056B
0C1C A7                         and a
0C1D 37                         scf
0C1E 28 F2                      jr z,L0C12
0C20 E5                         push hl
0C21 CD 66 0A                   call L0A66
0C24 E1                         pop hl
0C25 18 F2                      jr L0C19
0C27 21 B7 D5      L0C27:       ld hl,$D5B7
0C2A CB 86                      res 0,(hl)
0C2C CD 40 05                   call L0540
0C2F 21 41 D7                   ld hl,$D741
0C32 CB D6                      set 2,(hl)
0C34 21 48 D7                   ld hl,$D748
0C37 C9                         ret
0C38 CD 51 0C      L0C38:       call L0C51
0C3B 2A 3D D7                   ld hl,($D73D)
0C3E 19                         add hl,de
0C3F CB 46                      bit 0,(hl)
0C41 28 0A                      jr z,L0C4D
0C43 78                         ld a,b
0C44 A7                         and a
0C45 C8                         ret z
0C46 05                         dec b
0C47 CD 6B 05                   call L056B
0C4A 04                         inc b
0C4B A7                         and a
0C4C C8                         ret z
0C4D 3E 01         L0C4D:       ld a,$01
0C4F B7                         or a
0C50 C9                         ret
0C51 21 00 C0      L0C51:       ld hl,$C000
0C54 F5            L0C54:       push af
0C55 79                         ld a,c
0C56 ED 5B 3F D7                ld de,($D73F)
0C5A B7            L0C5A:       or a
0C5B 28 04                      jr z,L0C61
0C5D 19                         add hl,de
0C5E 3D                         dec a
0C5F 18 F9                      jr L0C5A
0C61 EB            L0C61:       ex de,hl
0C62 F1                         pop af
0C63 C9                         ret
0C64 D5                         push de
0C65 CD 51 0C                   call L0C51
0C68 26 00                      ld h,$00
0C6A 68                         ld l,b
0C6B 19                         add hl,de
0C6C D1                         pop de
0C6D C9                         ret
0C6E AF            L0C6E:       xor a
0C6F 32 38 C7                   ld ($C738),a
0C72 C9                         ret
0C73 C5            L0C73:       push bc
0C74 D5                         push de
0C75 21 38 C7                   ld hl,$C738
0C78 E5                         push hl
0C79 7E                         ld a,(hl)
0C7A B7                         or a
0C7B 20 1B                      jr nz,L0C98
0C7D E5                         push hl
0C7E 2A 4C D7                   ld hl,($D74C)
0C81 CD 01 14      L0C81:       call L1401
0C84 30 09                      jr nc,L0C8F
0C86 7C                         ld a,h
0C87 B5                         or l
0C88 23                         inc hl
0C89 28 F6                      jr z,L0C81
0C8B 2B                         dec hl
0C8C 22 4C D7                   ld ($D74C),hl
0C8F 44            L0C8F:       ld b,h
0C90 4D                         ld c,l
0C91 E1                         pop hl
0C92 CD 64 0E                   call L0E64
0C95 3D                         dec a
0C96 18 1A                      jr L0CB2
0C98 21 B7 D5      L0C98:       ld hl,$D5B7
0C9B CB 86                      res 0,(hl)
0C9D ED 5B 3F D7                ld de,($D73F)
0CA1 21 38 07                   ld hl,$0738
0CA4 A7                         and a
0CA5 ED 52                      sbc hl,de
0CA7 44                         ld b,h
0CA8 4D                         ld c,l
0CA9 EB                         ex de,hl
0CAA 11 3B C7                   ld de,$C73B
0CAD 19                         add hl,de
0CAE ED B0                      ldir
0CB0 3D                         dec a
0CB1 37                         scf
0CB2 D1            L0CB2:       pop de
0CB3 12                         ld (de),a
0CB4 21 3B C7                   ld hl,$C73B
0CB7 D1                         pop de
0CB8 C1                         pop bc
0CB9 C9                         ret
0CBA C5            L0CBA:       push bc
0CBB D5                         push de
0CBC 2A 3D D7                   ld hl,($D73D)
0CBF 19                         add hl,de
0CC0 7E                         ld a,(hl)
0CC1 2F                         cpl
0CC2 E6 11                      and $11
0CC4 20 15                      jr nz,L0CDB
0CC6 E5                         push hl
0CC7 D5                         push de
0CC8 23                         inc hl
0CC9 56                         ld d,(hl)
0CCA 23                         inc hl
0CCB 5E                         ld e,(hl)
0CCC D5                         push de
0CCD CD 81 18                   call L1881
0CD0 E1                         pop hl
0CD1 CD F9 13                   call L13F9
0CD4 30 03                      jr nc,L0CD9
0CD6 22 4C D7                   ld ($D74C),hl
0CD9 D1            L0CD9:       pop de
0CDA E1                         pop hl
0CDB CB 46         L0CDB:       bit 0,(hl)
0CDD 21 38 C7                   ld hl,$C738
0CE0 E5                         push hl
0CE1 28 04                      jr z,L0CE7
0CE3 AF                         xor a
0CE4 37                         scf
0CE5 18 CB                      jr L0CB2
0CE7 4E            L0CE7:       ld c,(hl)
0CE8 CD EE 0E                   call L0EEE
0CEB 79                         ld a,c
0CEC 30 C4                      jr nc,L0CB2
0CEE ED 4B 3F D7                ld bc,($D73F)
0CF2 21 3B C7                   ld hl,$C73B
0CF5 EB                         ex de,hl
0CF6 ED B0                      ldir
0CF8 ED 5B 3F D7                ld de,($D73F)
0CFC 21 38 07                   ld hl,$0738
0CFF A7                         and a
0D00 ED 52                      sbc hl,de
0D02 44                         ld b,h
0D03 4D                         ld c,l
0D04 21 72 CE                   ld hl,$CE72
0D07 E5                         push hl
0D08 ED 52                      sbc hl,de
0D0A D1                         pop de
0D0B ED B8                      lddr
0D0D 3C                         inc a
0D0E 37                         scf
0D0F 18 A1                      jr L0CB2
0D11 0E 01         L0D11:       ld c,$01
0D13 C5                         push bc
0D14 F5                         push af
0D15 E5                         push hl
0D16 CD 64 0D                   call L0D64
0D19 E1                         pop hl
0D1A CB 5E                      bit 3,(hl)
0D1C CB 9E                      res 3,(hl)
0D1E 20 24                      jr nz,L0D44
0D20 06 00         L0D20:       ld b,$00
0D22 CD A2 09                   call L09A2
0D25 F1            L0D25:       pop af
0D26 CD B1 02                   call L02B1
0D29 C1                         pop bc
0D2A F5                         push af
0D2B CD 1C 0B                   call L0B1C
0D2E CD A9 11                   call L11A9
0D31 EB                         ex de,hl
0D32 F1                         pop af
0D33 28 28                      jr z,L0D5D
0D35 0C                         inc c
0D36 C5                         push bc
0D37 F5                         push af
0D38 CD EE 0E                   call L0EEE
0D3B 38 07                      jr c,L0D44
0D3D E5                         push hl
0D3E 21 B7 D5                   ld hl,$D5B7
0D41 CB C6                      set 0,(hl)
0D43 E1                         pop hl
0D44 CB 4E         L0D44:       bit 1,(hl)
0D46 CB CE                      set 1,(hl)
0D48 CB 9E                      res 3,(hl)
0D4A CD 64 0D                   call L0D64
0D4D 20 D1                      jr nz,L0D20
0D4F C5                         push bc
0D50 D5                         push de
0D51 CD FD 0F                   call L0FFD
0D54 36 08                      ld (hl),$08
0D56 D1                         pop de
0D57 C1                         pop bc
0D58 CD 0C 10                   call L100C
0D5B 18 C8                      jr L0D25
0D5D 79            L0D5D:       ld a,c
0D5E 32 38 C7                   ld ($C738),a
0D61 CB DE                      set 3,(hl)
0D63 C9                         ret
0D64 21 3B C7      L0D64:       ld hl,$C73B
0D67 C3 54 0C                   jp L0C54
0D6A C5            L0D6A:       push bc
0D6B D5                         push de
0D6C 21 B7 D5                   ld hl,$D5B7
0D6F CB 86                      res 0,(hl)
0D71 3A 38 C7                   ld a,($C738)
0D74 4F                         ld c,a
0D75 B7                         or a
0D76 3E 00                      ld a,$00
0D78 28 42                      jr z,L0DBC
0D7A CD 64 0D      L0D7A:       call L0D64
0D7D F5                         push af
0D7E 06 00                      ld b,$00
0D80 CD A2 09                   call L09A2
0D83 30 0E                      jr nc,L0D93
0D85 F1                         pop af
0D86 CD C9 02                   call L02C9
0D89 F5                         push af
0D8A C5                         push bc
0D8B 06 00                      ld b,$00
0D8D CD A2 09                   call L09A2
0D90 C1                         pop bc
0D91 38 24                      jr c,L0DB7
0D93 23            L0D93:       inc hl
0D94 7E                         ld a,(hl)
0D95 F5                         push af
0D96 C5                         push bc
0D97 79                         ld a,c
0D98 FE 01                      cp $01
0D9A 20 09                      jr nz,L0DA5
0D9C 3A 3C D7                   ld a,($D73C)
0D9F 4F                         ld c,a
0DA0 CD 51 0C                   call L0C51
0DA3 18 04                      jr L0DA9
0DA5 0D            L0DA5:       dec c
0DA6 CD 64 0D                   call L0D64
0DA9 C1            L0DA9:       pop bc
0DAA F1                         pop af
0DAB 2A 3D D7                   ld hl,($D73D)
0DAE 19                         add hl,de
0DAF CB 8E                      res 1,(hl)
0DB1 B6                         or (hl)
0DB2 77                         ld (hl),a
0DB3 21 38 C7                   ld hl,$C738
0DB6 35                         dec (hl)
0DB7 F1            L0DB7:       pop af
0DB8 0D                         dec c
0DB9 20 BF                      jr nz,L0D7A
0DBB 37                         scf
0DBC D1            L0DBC:       pop de
0DBD C1                         pop bc
0DBE C9                         ret
0DBF 03                         inc bc
0DC0 00                         nop
0DC1 76                         halt
0DC2 CE 21                      adc a,$21
0DC4 BF                         cp a
0DC5 0D                         dec c
0DC6 11 73 CE                   ld de,$CE73
0DC9 C3 5A 04                   jp L045A
0DCC C5            L0DCC:       push bc
0DCD D5                         push de
0DCE 21 73 CE                   ld hl,$CE73
0DD1 E5                         push hl
0DD2 7E                         ld a,(hl)
0DD3 B7                         or a
0DD4 20 21                      jr nz,L0DF7
0DD6 E5                         push hl
0DD7 CD 81 18                   call L1881
0DDA 2A 4E D7                   ld hl,($D74E)
0DDD CD F9 13                   call L13F9
0DE0 30 03                      jr nc,L0DE5
0DE2 22 4E D7                   ld ($D74E),hl
0DE5 44            L0DE5:       ld b,h
0DE6 4D                         ld c,l
0DE7 E1                         pop hl
0DE8 23                         inc hl
0DE9 23                         inc hl
0DEA 23                         inc hl
0DEB 30 15                      jr nc,L0E02
0DED 2B                         dec hl
0DEE 2B                         dec hl
0DEF 2B                         dec hl
0DF0 CD 64 0E                   call L0E64
0DF3 3D                         dec a
0DF4 EB                         ex de,hl
0DF5 18 0B                      jr L0E02
0DF7 2A 74 CE      L0DF7:       ld hl,($CE74)
0DFA ED 4B 3F D7                ld bc,($D73F)
0DFE ED 42                      sbc hl,bc
0E00 37                         scf
0E01 3D                         dec a
0E02 EB            L0E02:       ex de,hl
0E03 E1                         pop hl
0E04 30 01                      jr nc,L0E07
0E06 77                         ld (hl),a
0E07 23            L0E07:       inc hl
0E08 73                         ld (hl),e
0E09 23                         inc hl
0E0A 72                         ld (hl),d
0E0B EB                         ex de,hl
0E0C D1                         pop de
0E0D C1                         pop bc
0E0E C9                         ret
0E0F C5            L0E0F:       push bc
0E10 D5                         push de
0E11 2A 3D D7                   ld hl,($D73D)
0E14 19                         add hl,de
0E15 7E                         ld a,(hl)
0E16 2F                         cpl
0E17 E6 11                      and $11
0E19 20 0C                      jr nz,L0E27
0E1B D5                         push de
0E1C E5                         push hl
0E1D 23                         inc hl
0E1E 56                         ld d,(hl)
0E1F 23                         inc hl
0E20 5E                         ld e,(hl)
0E21 ED 53 4E D7                ld ($D74E),de
0E25 E1                         pop hl
0E26 D1                         pop de
0E27 CB 5E         L0E27:       bit 3,(hl)
0E29 21 73 CE                   ld hl,$CE73
0E2C E5                         push hl
0E2D 28 15                      jr z,L0E44
0E2F E5                         push hl
0E30 CD 81 18                   call L1881
0E33 2A 4E D7                   ld hl,($D74E)
0E36 CD 01 14                   call L1401
0E39 22 4E D7                   ld ($D74E),hl
0E3C E1                         pop hl
0E3D 23                         inc hl
0E3E 23                         inc hl
0E3F 23                         inc hl
0E40 AF                         xor a
0E41 37                         scf
0E42 18 BE                      jr L0E02
0E44 4E            L0E44:       ld c,(hl)
0E45 CD EE 0E                   call L0EEE
0E48 79                         ld a,c
0E49 30 0F                      jr nc,L0E5A
0E4B 3C                         inc a
0E4C 2A 74 CE                   ld hl,($CE74)
0E4F ED 4B 3F D7                ld bc,($D73F)
0E53 EB                         ex de,hl
0E54 ED B0                      ldir
0E56 EB                         ex de,hl
0E57 37                         scf
0E58 18 A8                      jr L0E02
0E5A E1            L0E5A:       pop hl
0E5B D1                         pop de
0E5C C1                         pop bc
0E5D C9                         ret
0E5E 21 76 CE      L0E5E:       ld hl,$CE76
0E61 C3 54 0C                   jp L0C54
0E64 54            L0E64:       ld d,h
0E65 5D                         ld e,l
0E66 13                         inc de
0E67 13                         inc de
0E68 13                         inc de
0E69 D5                         push de
0E6A 2A 3D D7                   ld hl,($D73D)
0E6D 19                         add hl,de
0E6E 36 21                      ld (hl),$21
0E70 23                         inc hl
0E71 70                         ld (hl),b
0E72 23                         inc hl
0E73 71                         ld (hl),c
0E74 01 01 00                   ld bc,$0001
0E77 C5            L0E77:       push bc
0E78 D5                         push de
0E79 3A B8 D5                   ld a,($D5B8)
0E7C A7                         and a
0E7D CC 09 14                   call z,L1409
0E80 05                         dec b
0E81 D1                         pop de
0E82 C1                         pop bc
0E83 38 0F                      jr c,L0E94
0E85 79                         ld a,c
0E86 3D                         dec a
0E87 B0                         or b
0E88 20 05                      jr nz,L0E8F
0E8A CD F1 0F                   call L0FF1
0E8D 18 3D                      jr L0ECC
0E8F CD E3 0F      L0E8F:       call L0FE3
0E92 18 38                      jr L0ECC
0E94 20 17         L0E94:       jr nz,L0EAD
0E96 FE 52                      cp $52
0E98 20 0D                      jr nz,L0EA7
0E9A 3A 60 D7                   ld a,($D760)
0E9D FE EA                      cp $EA
0E9F 3E 17                      ld a,$17
0EA1 20 0E                      jr nz,L0EB1
0EA3 3E 03                      ld a,$03
0EA5 18 0A                      jr L0EB1
0EA7 D6 3B         L0EA7:       sub $3B
0EA9 30 06                      jr nc,L0EB1
0EAB C6 1C                      add a,$1C
0EAD FE 0D         L0EAD:       cp $0D
0EAF 28 DE                      jr z,L0E8F
0EB1 F5            L0EB1:       push af
0EB2 3A 3D D7                   ld a,($D73D)
0EB5 3D                         dec a
0EB6 B8                         cp b
0EB7 30 0D                      jr nc,L0EC6
0EB9 3E 12                      ld a,$12
0EBB CD D1 0E                   call L0ED1
0EBE 38 03                      jr c,L0EC3
0EC0 F1                         pop af
0EC1 18 CC                      jr L0E8F
0EC3 CD 0C 10      L0EC3:       call L100C
0EC6 F1            L0EC6:       pop af
0EC7 CD DC 0F                   call L0FDC
0ECA 18 AB                      jr L0E77
0ECC E1            L0ECC:       pop hl
0ECD 79                         ld a,c
0ECE C8                         ret z
0ECF 37                         scf
0ED0 C9                         ret
0ED1 F5            L0ED1:       push af
0ED2 CD FD 0F                   call L0FFD
0ED5 F1                         pop af
0ED6 AE                         xor (hl)
0ED7 77                         ld (hl),a
0ED8 EB                         ex de,hl
0ED9 CD A9 11                   call L11A9
0EDC EB                         ex de,hl
0EDD CD EE 0E                   call L0EEE
0EE0 D0                         ret nc
0EE1 0C                         inc c
0EE2 2A 3F D7                   ld hl,($D73F)
0EE5 19                         add hl,de
0EE6 EB                         ex de,hl
0EE7 2A 3D D7                   ld hl,($D73D)
0EEA 19                         add hl,de
0EEB 70                         ld (hl),b
0EEC 37                         scf
0EED C9                         ret
0EEE D5            L0EEE:       push de
0EEF E5                         push hl
0EF0 ED 5B 3F D7                ld de,($D73F)
0EF4 51                         ld d,c
0EF5 14                         inc d
0EF6 ED 30                      mul d,e
0EF8 21 38 07                   ld hl,$0738
0EFB A7                         and a
0EFC ED 52                      sbc hl,de
0EFE E1                         pop hl
0EFF D1                         pop de
0F00 3F                         ccf
0F01 C9                         ret
0F02 E5            L0F02:       push hl
0F03 CD 81 18                   call L1881
0F06 E1                         pop hl
0F07 CF                         rst $08
0F08 CD A9 0F                   call L0FA9
0F0B 30 4A                      jr nc,L0F57
0F0D 20 0C                      jr nz,L0F1B
0F0F 78                         ld a,b
0F10 B1                         or c
0F11 28 08                      jr z,L0F1B
0F13 CD 8E 0F                   call L0F8E
0F16 CD 98 0F                   call L0F98
0F19 30 3C                      jr nc,L0F57
0F1B 56            L0F1B:       ld d,(hl)
0F1C 23                         inc hl
0F1D 5E                         ld e,(hl)
0F1E C7                         rst $00
0F1F D5            L0F1F:       push de
0F20 E5                         push hl
0F21 DD E5                      push ix
0F23 DD 21 67 D7                ld ix,$D767
0F27 DD 22 65 D7                ld ($D765),ix
0F2B EB                         ex de,hl
0F2C 06 00                      ld b,$00
0F2E 11 18 FC                   ld de,$FC18
0F31 CD 59 0F                   call L0F59
0F34 11 9C FF                   ld de,$FF9C
0F37 CD 59 0F                   call L0F59
0F3A 11 F6 FF                   ld de,$FFF6
0F3D CD 59 0F                   call L0F59
0F40 11 FF FF                   ld de,$FFFF
0F43 CD 59 0F                   call L0F59
0F46 DD 36 00 A0                ld (ix),$A0
0F4A DD E1                      pop ix
0F4C E1                         pop hl
0F4D D1                         pop de
0F4E 23                         inc hl
0F4F 23                         inc hl
0F50 23                         inc hl
0F51 22 63 D7                   ld ($D763),hl
0F54 EB                         ex de,hl
0F55 37                         scf
0F56 C9                         ret
0F57 C7            L0F57:       rst $00
0F58 C9                         ret
0F59 AF            L0F59:       xor a
0F5A 19            L0F5A:       add hl,de
0F5B 3C                         inc a
0F5C 38 FC                      jr c,L0F5A
0F5E ED 52                      sbc hl,de
0F60 3D                         dec a
0F61 C6 30                      add a,$30
0F63 DD 77 00                   ld (ix),a
0F66 FE 30                      cp $30
0F68 20 09                      jr nz,L0F73
0F6A 78                         ld a,b
0F6B B7                         or a
0F6C 20 07                      jr nz,L0F75
0F6E DD 77 00                   ld (ix),a
0F71 18 02                      jr L0F75
0F73 06 01         L0F73:       ld b,$01
0F75 DD 23         L0F75:       inc ix
0F77 C9                         ret
0F78 CF            L0F78:       rst $08
0F79 CD A9 0F                   call L0FA9
0F7C 30 D9                      jr nc,L0F57
0F7E EB                         ex de,hl
0F7F 7E                         ld a,(hl)
0F80 23                         inc hl
0F81 B6                         or (hl)
0F82 2B                         dec hl
0F83 28 D2                      jr z,L0F57
0F85 7D                         ld a,l
0F86 B4                         or h
0F87 37                         scf
0F88 C2 1B 0F                   jp nz,L0F1B
0F8B 3F                         ccf
0F8C 18 C9                      jr L0F57
0F8E E5            L0F8E:       push hl
0F8F 23                         inc hl
0F90 23                         inc hl
0F91 5E                         ld e,(hl)
0F92 23                         inc hl
0F93 56                         ld d,(hl)
0F94 23                         inc hl
0F95 19                         add hl,de
0F96 D1                         pop de
0F97 C9                         ret
0F98 7E            L0F98:       ld a,(hl)
0F99 E6 C0                      and $C0
0F9B 37                         scf
0F9C C8                         ret z
0F9D 3F                         ccf
0F9E C9                         ret
0F9F 78            L0F9F:       ld a,b
0FA0 BE                         cp (hl)
0FA1 C0                         ret nz
0FA2 79                         ld a,c
0FA3 23                         inc hl
0FA4 BE                         cp (hl)
0FA5 2B                         dec hl
0FA6 C0                         ret nz
0FA7 37                         scf
0FA8 C9                         ret
0FA9 E5            L0FA9:       push hl
0FAA C1                         pop bc
0FAB 11 00 00                   ld de,$0000
0FAE 2A 53 5C                   ld hl,($5C53)
0FB1 CD 98 0F                   call L0F98
0FB4 D0                         ret nc
0FB5 7E                         ld a,(hl)
0FB6 23                         inc hl
0FB7 B6                         or (hl)
0FB8 2B                         dec hl
0FB9 28 08                      jr z,L0FC3
0FBB CD 9F 0F                   call L0F9F
0FBE D8                         ret c
0FBF 78                         ld a,b
0FC0 B1                         or c
0FC1 37                         scf
0FC2 C8                         ret z
0FC3 CD 8E 0F      L0FC3:       call L0F8E
0FC6 CD 98 0F                   call L0F98
0FC9 D0                         ret nc
0FCA CD 9F 0F                   call L0F9F
0FCD 30 F4                      jr nc,L0FC3
0FCF C9                         ret
0FD0 02                         ld (bc),a
0FD1 01 05 21                   ld bc,$2105
0FD4 D0                         ret nc
0FD5 0F                         rrca
0FD6 11 D7 D7                   ld de,$D7D7
0FD9 C3 5A 04                   jp L045A
0FDC 68            L0FDC:       ld l,b
0FDD 26 00                      ld h,$00
0FDF 19                         add hl,de
0FE0 77                         ld (hl),a
0FE1 04                         inc b
0FE2 C9                         ret
0FE3 CD FD 0F      L0FE3:       call L0FFD
0FE6 7E                         ld a,(hl)
0FE7 F6 18                      or $18
0FE9 77                         ld (hl),a
0FEA 21 D7 D7                   ld hl,$D7D7
0FED CB C6                      set 0,(hl)
0FEF 37                         scf
0FF0 C9                         ret
0FF1 CD FD 0F      L0FF1:       call L0FFD
0FF4 CB DE                      set 3,(hl)
0FF6 21 D7 D7                   ld hl,$D7D7
0FF9 CB C6                      set 0,(hl)
0FFB 37                         scf
0FFC C9                         ret
0FFD 68            L0FFD:       ld l,b
0FFE 26 00                      ld h,$00
1000 19                         add hl,de
1001 3A 3D D7                   ld a,($D73D)
1004 B8            L1004:       cp b
1005 C8                         ret z
1006 36 00                      ld (hl),$00
1008 23                         inc hl
1009 04                         inc b
100A 18 F8                      jr L1004
100C 3A D8 D7      L100C:       ld a,($D7D8)
100F 06 00                      ld b,$00
1011 26 00         L1011:       ld h,$00
1013 68                         ld l,b
1014 19                         add hl,de
1015 36 00                      ld (hl),$00
1017 04                         inc b
1018 3D                         dec a
1019 20 F6                      jr nz,L1011
101B C9                         ret
101C C5            L101C:       push bc
101D D5                         push de
101E E5                         push hl
101F E5                         push hl
1020 21 41 D7                   ld hl,$D741
1023 CB 56                      bit 2,(hl)
1025 E1                         pop hl
1026 20 04                      jr nz,L102C
1028 59                         ld e,c
1029 CD EC 10                   call L10EC
102C E1            L102C:       pop hl
102D D1                         pop de
102E C1                         pop bc
102F C9                         ret
1030 C5            L1030:       push bc
1031 D5                         push de
1032 E5                         push hl
1033 E5                         push hl
1034 21 41 D7                   ld hl,$D741
1037 CB 56                      bit 2,(hl)
1039 E1                         pop hl
103A 20 04                      jr nz,L1040
103C 59                         ld e,c
103D CD F3 10                   call L10F3
1040 E1            L1040:       pop hl
1041 D1                         pop de
1042 C1                         pop bc
1043 C9                         ret
1044 F5            L1044:       push af
1045 C5                         push bc
1046 D5                         push de
1047 E5                         push hl
1048 78                         ld a,b
1049 41                         ld b,c
104A 4F                         ld c,a
104B CD 94 10                   call L1094
104E E1                         pop hl
104F D1                         pop de
1050 C1                         pop bc
1051 F1                         pop af
1052 C9                         ret
1053 F5            L1053:       push af
1054 C5                         push bc
1055 D5                         push de
1056 E5                         push hl
1057 78                         ld a,b
1058 41                         ld b,c
1059 4F                         ld c,a
105A CD B2 10                   call L10B2
105D E1                         pop hl
105E D1                         pop de
105F C1                         pop bc
1060 F1                         pop af
1061 C9                         ret
1062 08                         ex af,af'
1063 00                         nop
1064 00                         nop
1065 14                         inc d
1066 00                         nop
1067 00                         nop
1068 00                         nop
1069 00                         nop
106A 00                         nop
106B 08                         ex af,af'
106C 00                         nop
106D 16 01                      ld d,$01
106F 00                         nop
1070 00                         nop
1071 00                         nop
1072 00                         nop
1073 00                         nop
1074 DD 21 D9 D7   L1074:       ld ix,$D7D9
1078 21 62 10                   ld hl,$1062
107B 18 03                      jr L1080
107D 21 6B 10      L107D:       ld hl,$106B
1080 11 D9 D7      L1080:       ld de,$D7D9
1083 C3 5A 04                   jp L045A
1086 F5            L1086:       push af
1087 D7                         rst $10
1088 D9                         exx
1089 2A CD 8F                   ld hl,($8FCD)
108C 10 F1                      djnz L107F
108E C9                         ret
108F DD 77 06      L108F:       ld (ix+$06),a
1092 37                         scf
1093 C9                         ret
1094 DD 7E 01      L1094:       ld a,(ix+$01)
1097 80                         add a,b
1098 47                         ld b,a
1099 FD CB 45 5E                bit 3,(iy+$45)
109D 20 24                      jr nz,L10C3
109F CD F8 12                   call L12F8
10A2 7E                         ld a,(hl)
10A3 DD 77 07                   ld (ix+$07),a
10A6 DD 7E 06                   ld a,(ix+$06)
10A9 01 E8 D6                   ld bc,$D6E8
10AC ED 33                      add bc,a
10AE 0A                         ld a,(bc)
10AF 77                         ld (hl),a
10B0 37                         scf
10B1 C9                         ret
10B2 CD E6 10      L10B2:       call L10E6
10B5 FD CB 45 5E                bit 3,(iy+$45)
10B9 20 08                      jr nz,L10C3
10BB CD F8 12                   call L12F8
10BE DD 7E 07                   ld a,(ix+$07)
10C1 77                         ld (hl),a
10C2 C9                         ret
10C3 D7            L10C3:       rst $10
10C4 50                         ld d,b
10C5 0E E5                      ld c,$E5
10C7 D7                         rst $10
10C8 BA                         cp d
10C9 07                         rlca
10CA 3E 15                      ld a,$15
10CC EF                         rst $28
10CD 3E 01                      ld a,$01
10CF EF                         rst $28
10D0 DD 7E 06                   ld a,(ix+$06)
10D3 D7                         rst $10
10D4 E8                         ret pe
10D5 2A EF 3E                   ld hl,($3EEF)
10D8 15                         dec d
10D9 EF                         rst $28
10DA AF                         xor a
10DB EF                         rst $28
10DC D1                         pop de
10DD D7                         rst $10
10DE 58                         ld e,b
10DF 0E C9                      ld c,$C9
10E1 FD CB 45 5E   L10E1:       bit 3,(iy+$45)
10E5 C8                         ret z
10E6 DD 7E 01      L10E6:       ld a,(ix+$01)
10E9 80                         add a,b
10EA 47                         ld b,a
10EB C9                         ret
10EC E5            L10EC:       push hl
10ED 26 00                      ld h,$00
10EF 7B                         ld a,e
10F0 90                         sub b
10F1 18 07                      jr L10FA
10F3 E5            L10F3:       push hl
10F4 7B                         ld a,e
10F5 58                         ld e,b
10F6 47                         ld b,a
10F7 93                         sub e
10F8 26 FF                      ld h,$FF
10FA 4F            L10FA:       ld c,a
10FB 78                         ld a,b
10FC BB                         cp e
10FD 28 68                      jr z,L1167
10FF D5                         push de
1100 CD F0 12                   call L12F0
1103 C5            L1103:       push bc
1104 4C                         ld c,h
1105 E7                         rst $20
1106 9B                         sbc a,e
1107 0E EB                      ld c,$EB
1109 AF                         xor a
110A B1                         or c
110B 28 03         L110B:       jr z,L1110
110D 04                         inc b
110E 18 01                      jr L1111
1110 05            L1110:       dec b
1111 D5            L1111:       push de
1112 E7                         rst $20
1113 9B                         sbc a,e
1114 0E D1                      ld c,$D1
1116 79                         ld a,c
1117 0E 20                      ld c,$20
1119 06 08                      ld b,$08
111B FD CB 45 5E                bit 3,(iy+$45)
111F 28 1E                      jr z,L113F
1121 08                         ex af,af'
1122 3E 0B                      ld a,$0B
1124 08                         ex af,af'
1125 D7                         rst $10
1126 D1                         pop de
1127 12                         ld (de),a
1128 CD 10 13      L1128:       call L1310
112B CB EC                      set 5,h
112D CB EA                      set 5,d
112F CD 10 13                   call L1310
1132 CB AC                      res 5,h
1134 CB AA                      res 5,d
1136 24                         inc h
1137 14                         inc d
1138 10 EE                      djnz L1128
113A D7                         rst $10
113B D1                         pop de
113C 12                         ld (de),a
113D 18 1A                      jr L1159
113F CD 10 13      L113F:       call L1310
1142 24                         inc h
1143 14                         inc d
1144 10 F9                      djnz L113F
1146 F5                         push af
1147 D5                         push de
1148 E7                         rst $20
1149 88                         adc a,b
114A 0E EB                      ld c,$EB
114C E3                         ex (sp),hl
114D E7                         rst $20
114E 88                         adc a,b
114F 0E EB                      ld c,$EB
1151 E3                         ex (sp),hl
1152 D1                         pop de
1153 01 20 00                   ld bc,$0020
1156 ED B0                      ldir
1158 F1                         pop af
1159 C1            L1159:       pop bc
115A A7                         and a
115B 28 03                      jr z,L1160
115D 04                         inc b
115E 18 01                      jr L1161
1160 05            L1160:       dec b
1161 0D            L1161:       dec c
1162 67                         ld h,a
1163 20 9E                      jr nz,L1103
1165 D1                         pop de
1166 43                         ld b,e
1167 E1            L1167:       pop hl
1168 48                         ld c,b
1169 3A 3C 5C      L1169:       ld a,($5C3C)
116C F5                         push af
116D 3A 41 D7                   ld a,($D741)
1170 E6 04                      and $04
1172 20 28                      jr nz,L119C
1174 F1                         pop af
1175 F5                         push af
1176 E5                         push hl
1177 21 B7 D5                   ld hl,$D5B7
117A CB 76                      bit 6,(hl)
117C CB 87                      res 0,a
117E 28 02                      jr z,L1182
1180 CB C7                      set 0,a
1182 32 3C 5C      L1182:       ld ($5C3C),a
1185 21 90 5C                   ld hl,$5C90
1188 36 00                      ld (hl),$00
118A 23                         inc hl
118B 7E                         ld a,(hl)
118C E6 AA                      and $AA
118E 77                         ld (hl),a
118F C5                         push bc
1190 41                         ld b,c
1191 0E 00                      ld c,$00
1193 CD E1 10                   call L10E1
1196 D7                         rst $10
1197 BA                         cp d
1198 07                         rlca
1199 C1                         pop bc
119A E1                         pop hl
119B AF                         xor a
119C CD AB 11      L119C:       call L11AB
119F E3                         ex (sp),hl
11A0 6F                         ld l,a
11A1 7C                         ld a,h
11A2 32 3C 5C                   ld ($5C3C),a
11A5 7D                         ld a,l
11A6 E1                         pop hl
11A7 37                         scf
11A8 C9                         ret
11A9 3E 04         L11A9:       ld a,$04
11AB C5            L11AB:       push bc
11AC D5                         push de
11AD E5                         push hl
11AE 57                         ld d,a
11AF 3A 3D D7                   ld a,($D73D)
11B2 47                         ld b,a
11B3 ED 31                      add hl,a
11B5 4E                         ld c,(hl)
11B6 E1                         pop hl
11B7 E5                         push hl
11B8 D5            L11B8:       push de
11B9 7E                         ld a,(hl)
11BA FE 20                      cp $20
11BC 28 53                      jr z,L1211
11BE 38 17                      jr c,L11D7
11C0 CB 41                      bit 0,c
11C2 28 33                      jr z,L11F7
11C4 CD CF 12                   call L12CF
11C7 30 2E                      jr nc,L11F7
11C9 CB E9                      set 5,c
11CB 11 ED D6                   ld de,$D6ED
11CE 18 75                      jr L1245
11D0 3E 20         L11D0:       ld a,$20
11D2 11 DA D6                   ld de,$D6DA
11D5 18 6E                      jr L1245
11D7 A7            L11D7:       and a
11D8 28 F6                      jr z,L11D0
11DA CB 81                      res 0,c
11DC CB A9                      res 5,c
11DE C6 3B                      add a,$3B
11E0 FE 41                      cp $41
11E2 30 0A                      jr nc,L11EE
11E4 C6 E4                      add a,$E4
11E6 FE 22                      cp $22
11E8 20 04                      jr nz,L11EE
11EA 3E 52                      ld a,$52
11EC CB F1                      set 6,c
11EE CB 71         L11EE:       bit 6,c
11F0 20 1F                      jr nz,L1211
11F2 11 EE D6                   ld de,$D6EE
11F5 18 4E                      jr L1245
11F7 CB 81         L11F7:       res 0,c
11F9 CB 69                      bit 5,c
11FB 28 0E                      jr z,L120B
11FD FE 2E                      cp $2E
11FF CB D1                      set 2,c
1201 28 0C                      jr z,L120F
1203 CB 91                      res 2,c
1205 FE 3B                      cp $3B
1207 20 02                      jr nz,L120B
1209 CB F1                      set 6,c
120B FE 80         L120B:       cp $80
120D 30 5C                      jr nc,L126B
120F CB A9         L120F:       res 5,c
1211 CB 71         L1211:       bit 6,c
1213 11 F1 D6                   ld de,$D6F1
1216 20 2D                      jr nz,L1245
1218 CB 79                      bit 7,c
121A 11 F0 D6                   ld de,$D6F0
121D 20 26                      jr nz,L1245
121F FE 22                      cp $22
1221 28 22                      jr z,L1245
1223 CB 51                      bit 2,c
1225 11 F5 D6                   ld de,$D6F5
1228 20 13                      jr nz,L123D
122A CD D6 12                   call L12D6
122D 11 F2 D6                   ld de,$D6F2
1230 38 13                      jr c,L1245
1232 CD CF 12                   call L12CF
1235 11 F3 D6                   ld de,$D6F3
1238 38 0B                      jr c,L1245
123A 11 F4 D6                   ld de,$D6F4
123D FE 3A         L123D:       cp $3A
123F 20 04                      jr nz,L1245
1241 CB E9                      set 5,c
1243 CB 91                      res 2,c
1245 F5            L1245:       push af
1246 1A                         ld a,(de)
1247 32 8F 5C                   ld ($5C8F),a
124A F1                         pop af
124B D1                         pop de
124C CB 52                      bit 2,d
124E CC 28 00                   call z,L0028
1251 7E            L1251:       ld a,(hl)
1252 FE 22                      cp $22
1254 20 04                      jr nz,L125A
1256 79                         ld a,c
1257 EE 80                      xor $80
1259 4F                         ld c,a
125A 23            L125A:       inc hl
125B 05                         dec b
125C C2 B8 11                   jp nz,L11B8
125F 79                         ld a,c
1260 E6 FE                      and $FE
1262 E1                         pop hl
1263 D1                         pop de
1264 C1                         pop bc
1265 F5                         push af
1266 E6 E4                      and $E4
1268 47                         ld b,a
1269 F1                         pop af
126A C9                         ret
126B D1            L126B:       pop de
126C CB 52                      bit 2,d
126E 20 E1                      jr nz,L1251
1270 F5                         push af
1271 3A 7F 5C                   ld a,($5C7F)
1274 E6 0F                      and $0F
1276 20 0D                      jr nz,L1285
1278 3A DA D6                   ld a,($D6DA)
127B 5F                         ld e,a
127C 3A EF D6                   ld a,($D6EF)
127F 32 8F 5C                   ld ($5C8F),a
1282 BB                         cp e
1283 20 0C                      jr nz,L1291
1285 F1            L1285:       pop af
1286 F5                         push af
1287 FE 90                      cp $90
1289 38 06                      jr c,L1291
128B 3E 14                      ld a,$14
128D EF                         rst $28
128E 3E 01                      ld a,$01
1290 EF                         rst $28
1291 F1            L1291:       pop af
1292 1E 01                      ld e,$01
1294 FE 90                      cp $90
1296 38 1C                      jr c,L12B4
1298 C6 B1                      add a,$B1
129A FE 5B                      cp $5B
129C 38 16                      jr c,L12B4
129E 1C                         inc e
129F C6 AA                      add a,$AA
12A1 FE 41                      cp $41
12A3 30 0F                      jr nc,L12B4
12A5 C6 3A                      add a,$3A
12A7 FE 61                      cp $61
12A9 30 09                      jr nc,L12B4
12AB 1D                         dec e
12AC C6 1A                      add a,$1A
12AE FE 61                      cp $61
12B0 30 02                      jr nc,L12B4
12B2 C6 D8                      add a,$D8
12B4 EF            L12B4:       rst $28
12B5 3E 14                      ld a,$14
12B7 EF                         rst $28
12B8 AF                         xor a
12B9 EF                         rst $28
12BA 1D                         dec e
12BB 28 94                      jr z,L1251
12BD 3E 15                      ld a,$15
12BF EF                         rst $28
12C0 7B                         ld a,e
12C1 EF                         rst $28
12C2 3E 08                      ld a,$08
12C4 EF                         rst $28
12C5 3E 5F                      ld a,$5F
12C7 EF                         rst $28
12C8 3E 15                      ld a,$15
12CA EF                         rst $28
12CB AF                         xor a
12CC EF                         rst $28
12CD 18 82                      jr L1251
12CF FE 3A         L12CF:       cp $3A
12D1 D0                         ret nc
12D2 FE 30                      cp $30
12D4 3F                         ccf
12D5 C9                         ret
12D6 FE 41         L12D6:       cp $41
12D8 3F                         ccf
12D9 D0                         ret nc
12DA FE 5B                      cp $5B
12DC D8                         ret c
12DD FE 61                      cp $61
12DF 3F                         ccf
12E0 D0                         ret nc
12E1 FE 7B                      cp $7B
12E3 C9                         ret
12E4 DD 46 01      L12E4:       ld b,(ix+$01)
12E7 3A 3C D7                   ld a,($D73C)
12EA 80                         add a,b
12EB 4F                         ld c,a
12EC D7                         rst $10
12ED 77                         ld (hl),a
12EE 12                         ld (de),a
12EF C9                         ret
12F0 3E 18         L12F0:       ld a,$18
12F2 90                         sub b
12F3 DD 96 01                   sub (ix+$01)
12F6 47                         ld b,a
12F7 C9                         ret
12F8 C5            L12F8:       push bc
12F9 AF                         xor a
12FA 50                         ld d,b
12FB 5F                         ld e,a
12FC CB 1A                      rr d
12FE CB 1B                      rr e
1300 CB 1A                      rr d
1302 CB 1B                      rr e
1304 CB 1A                      rr d
1306 CB 1B                      rr e
1308 21 00 58                   ld hl,$5800
130B 47                         ld b,a
130C 09                         add hl,bc
130D 19                         add hl,de
130E C1                         pop bc
130F C9                         ret
1310 C5            L1310:       push bc
1311 E5                         push hl
1312 D5                         push de
1313 06 00                      ld b,$00
1315 ED B0                      ldir
1317 D1                         pop de
1318 E1                         pop hl
1319 C1                         pop bc
131A C9                         ret
131B 3A 3D D7                   ld a,($D73D)
131E 21 71 13                   ld hl,$1371
1321 BE            L1321:       cp (hl)
1322 23                         inc hl
1323 20 FC                      jr nz,L1321
1325 6E                         ld l,(hl)
1326 CD 65 13                   call L1365
1329 D7            L1329:       rst $10
132A 9A                         sbc a,d
132B 0E 3A                      ld c,$3A
132D EC D5 C3                   call pe,LC3D5
1330 03                         inc bc
1331 03                         inc bc
1332 DD E5         L1332:       push ix
1334 AF                         xor a
1335 32 B8 D5                   ld ($D5B8),a
1338 D7                         rst $10
1339 9A                         sbc a,d
133A 0E CD                      ld c,$CD
133C BD                         cp l
133D 03                         inc bc
133E 21 B7 D5                   ld hl,$D5B7
1341 7E                         ld a,(hl)
1342 EE 40                      xor $40
1344 CB 9F                      res 3,a
1346 77                         ld (hl),a
1347 E6 40                      and $40
1349 28 05                      jr z,L1350
134B CD 1D 04                   call L041D
134E 18 06                      jr L1356
1350 CD 2F 04      L1350:       call L042F
1353 D7                         rst $10
1354 9A                         sbc a,d
1355 0E 2A                      ld c,$2A
1357 4E                         ld c,(hl)
1358 D7                         rst $10
1359 7C                         ld a,h
135A B5                         or l
135B C4 F9 13                   call nz,L13F9
135E CD 0C 01                   call L010C
1361 DD E1                      pop ix
1363 37                         scf
1364 C9                         ret
1365 26 00         L1365:       ld h,$00
1367 22 3D D7                   ld ($D73D),hl
136A 2C                         inc l
136B 2C                         inc l
136C 2C                         inc l
136D 22 3F D7                   ld ($D73F),hl
1370 C9                         ret
1371 20 40                      jr nz,L13B3
1373 55                         ld d,l
1374 20 3A                      jr nz,L13B0
1376 EC D5 A7                   call pe,LA7D5
1379 3E 08                      ld a,$08
137B 28 B2                      jr z,L132F
137D AF                         xor a
137E 18 AF                      jr L132F
1380 CF                         rst $08
1381 DF                         rst $18
1382 E3                         ex (sp),hl
1383 2A C7 D4                   ld hl,($D4C7)
1386 B9                         cp c
1387 03                         inc bc
1388 21 00 00                   ld hl,$0000
138B 22 49 5C                   ld ($5C49),hl
138E 18 99                      jr L1329
1390 ED 4B 7B 5C                ld bc,($5C7B)
1394 0B                         dec bc
1395 ED 43 6A 5B                ld ($5B6A),bc
1399 CF                         rst $08
139A DF                         rst $18
139B 85                         add a,l
139C 34                         inc (hl)
139D C7                         rst $00
139E 18 89                      jr L1329
13A0 21 6A 5C                   ld hl,$5C6A
13A3 3E 80         L13A3:       ld a,$80
13A5 AE                         xor (hl)
13A6 77                         ld (hl),a
13A7 AF                         xor a
13A8 37                         scf
13A9 C9                         ret
13AA 21 3C 5C                   ld hl,$5C3C
13AD CD A3 13                   call L13A3
13B0 C3 2C 13      L13B0:       jp L132C
13B3 0B            L13B3:       dec bc
13B4 E4 05 0A                   call po,L0A05
13B7 05                         dec b
13B8 06 08                      ld b,$08
13BA 27                         daa
13BB 06 09                      ld b,$09
13BD 33                         inc sp
13BE 06 0C                      ld b,$0C
13C0 9B                         sbc a,e
13C1 04                         inc b
13C2 0D                         dec c
13C3 C2 04 1F                   jp nz,L1F04
13C6 A0                         and b
13C7 05                         dec b
13C8 1E 76                      ld e,$76
13CA 05                         dec b
13CB 04                         inc b
13CC 2A 05 05                   ld hl,($0505)
13CF 35                         dec (hl)
13D0 05                         dec b
13D1 1A                         ld a,(de)
13D2 FE 04                      cp $04
13D4 01 25 05                   ld bc,$0525
13D7 1D                         dec e
13D8 D7                         rst $10
13D9 05                         dec b
13DA 00                         nop
13DB CA 05 18                   jp z,L1805
13DE 88                         adc a,b
13DF 04                         inc b
13E0 1C                         inc e
13E1 BE                         cp (hl)
13E2 0B                         dec bc
13E3 1B                         dec de
13E4 5F                         ld e,a
13E5 0B                         dec bc
13E6 10 16                      djnz L13FE
13E8 0C                         inc c
13E9 03                         inc bc
13EA E4 0B 11                   call po,L110B
13ED A0                         and b
13EE 13                         inc de
13EF 12                         ld (de),a
13F0 AA                         xor d
13F1 13                         inc de
13F2 19                         add hl,de
13F3 0F                         rrca
13F4 04                         inc b
13F5 07                         rlca
13F6 F7                         rst $30
13F7 03                         inc bc
13F8 FF                         rst $38
13F9 CD 78 0F      L13F9:       call L0F78
13FC D8                         ret c
13FD 21 00 00                   ld hl,$0000
1400 C9                         ret
1401 CD 02 0F      L1401:       call L0F02
1404 D8                         ret c
1405 21 00 00                   ld hl,$0000
1408 C9                         ret
1409 2A 65 D7      L1409:       ld hl,($D765)
140C 7C                         ld a,h
140D B5                         or l
140E 28 2D                      jr z,L143D
1410 7E                         ld a,(hl)
1411 23                         inc hl
1412 FE A0                      cp $A0
1414 47                         ld b,a
1415 3E 00                      ld a,$00
1417 20 01                      jr nz,L141A
1419 3D                         dec a
141A 32 61 D7      L141A:       ld ($D761),a
141D AF                         xor a
141E 32 62 D7                   ld ($D762),a
1421 CB 78                      bit 7,b
1423 28 02                      jr z,L1427
1425 ED 62                      sbc hl,hl
1427 22 65 D7      L1427:       ld ($D765),hl
142A 78                         ld a,b
142B E6 7F                      and $7F
142D FE 41                      cp $41
142F 30 08                      jr nc,L1439
1431 FE 23                      cp $23
1433 28 04                      jr z,L1439
1435 FE 24                      cp $24
1437 37                         scf
1438 C0                         ret nz
1439 06 01         L1439:       ld b,$01
143B 37                         scf
143C C9                         ret
143D 2A 63 D7      L143D:       ld hl,($D763)
1440 7C                         ld a,h
1441 B5                         or l
1442 C8                         ret z
1443 CF                         rst $08
1444 7E            L1444:       ld a,(hl)
1445 23                         inc hl
1446 FE 0E                      cp $0E
1448 20 06                      jr nz,L1450
144A 3E 05                      ld a,$05
144C ED 31                      add hl,a
144E 18 F4                      jr L1444
1450 FE 10         L1450:       cp $10
1452 38 07                      jr c,L145B
1454 FE 16                      cp $16
1456 30 03                      jr nc,L145B
1458 23                         inc hl
1459 18 E9                      jr L1444
145B C7            L145B:       rst $00
145C 22 63 D7                   ld ($D763),hl
145F 21 62 D7                   ld hl,$D762
1462 FE 22                      cp $22
1464 20 06                      jr nz,L146C
1466 47                         ld b,a
1467 7E                         ld a,(hl)
1468 EE 01                      xor $01
146A 77                         ld (hl),a
146B 78                         ld a,b
146C FD CB 02 7E   L146C:       bit 7,(iy+$02)
1470 20 04                      jr nz,L1476
1472 CB 46                      bit 0,(hl)
1474 20 20                      jr nz,L1496
1476 32 60 D7      L1476:       ld ($D760),a
1479 FE A5                      cp $A5
147B 38 0A                      jr c,L1487
147D D6 A5                      sub $A5
147F 11 96 00                   ld de,$0096
1482 E7                         rst $20
1483 72                         ld (hl),d
1484 D7                         rst $10
1485 18 82                      jr L1409
1487 FE 81         L1487:       cp $81
1489 38 0B                      jr c,L1496
148B D6 81                      sub $81
148D 11 FB 18                   ld de,$18FB
1490 CD 72 D7                   call LD772
1493 C3 09 14                   jp L1409
1496 47            L1496:       ld b,a
1497 AF                         xor a
1498 32 61 D7                   ld ($D761),a
149B 78                         ld a,b
149C FE 0D                      cp $0D
149E 20 05                      jr nz,L14A5
14A0 ED 62                      sbc hl,hl
14A2 22 63 D7                   ld ($D763),hl
14A5 37            L14A5:       scf
14A6 C9                         ret
14A7 C7                         rst $00
14A8 79                         ld a,c
14A9 32 F6 D7                   ld ($D7F6),a
14AC CB EC                      set 5,h
14AE 22 F8 D7                   ld ($D7F8),hl
14B1 CF                         rst $08
14B2 05                         dec b
14B3 C2 EF 17                   jp nz,L17EF
14B6 C7                         rst $00
14B7 D5                         push de
14B8 CD 81 18                   call L1881
14BB E1                         pop hl
14BC 22 63 D7                   ld ($D763),hl
14BF 21 FF 00                   ld hl,$00FF
14C2 22 61 D7                   ld ($D761),hl
14C5 CD 09 14      L14C5:       call L1409
14C8 2A F8 D7                   ld hl,($D7F8)
14CB 30 18                      jr nc,L14E5
14CD 47                         ld b,a
14CE 3A F6 D7                   ld a,($D7F6)
14D1 ED 92 51                   nextreg $51,a
14D4 70                         ld (hl),b
14D5 23                         inc hl
14D6 ED 91 51 FF                nextreg $51,$FF
14DA 7C                         ld a,h
14DB E6 1F                      and $1F
14DD B5                         or l
14DE 28 E5                      jr z,L14C5
14E0 22 F8 D7                   ld ($D7F8),hl
14E3 18 E0                      jr L14C5
14E5 CF            L14E5:       rst $08
14E6 CB AC                      res 5,h
14E8 37                         scf
14E9 C9                         ret
14EA 16 01         L14EA:       ld d,$01
14EC 18 02                      jr L14F0
14EE 16 00         L14EE:       ld d,$00
14F0 AF            L14F0:       xor a
14F1 01 BF 16      L14F1:       ld bc,$16BF
14F4 A7                         and a
14F5 20 03                      jr nz,L14FA
14F7 01 B0 16                   ld bc,$16B0
14FA CF            L14FA:       rst $08
14FB D7                         rst $10
14FC 85                         add a,l
14FD 00                         nop
14FE C7                         rst $00
14FF 42                         ld b,d
1500 ED 5B 59 5C                ld de,($5C59)
1504 21 EE D7      L1504:       ld hl,$D7EE
1507 70                         ld (hl),b
1508 ED 73 EC D7                ld ($D7EC),sp
150C 32 F7 D7                   ld ($D7F7),a
150F ED 53 EA D7                ld ($D7EA),de
1513 06 07                      ld b,$07
1515 23            L1515:       inc hl
1516 36 00                      ld (hl),$00
1518 10 FB                      djnz L1515
151A CD 8A 18                   call L188A
151D CD D9 15      L151D:       call L15D9
1520 3A F1 D7      L1520:       ld a,($D7F1)
1523 FE 01                      cp $01
1525 28 2B                      jr z,L1552
1527 A7                         and a
1528 20 1C                      jr nz,L1546
152A CB 51         L152A:       bit 2,c
152C 28 18                      jr z,L1546
152E CD 26 16      L152E:       call L1626
1531 30 07                      jr nc,L153A
1533 3E 01                      ld a,$01
1535 32 F1 D7                   ld ($D7F1),a
1538 18 E3                      jr L151D
153A CD 88 15      L153A:       call L1588
153D 38 E1                      jr c,L1520
153F CD C6 15                   call L15C6
1542 CB E6                      set 4,(hl)
1544 18 DA                      jr L1520
1546 CB 51         L1546:       bit 2,c
1548 CC BF 15                   call z,L15BF
154B 78                         ld a,b
154C CD 41 16                   call L1641
154F D0                         ret nc
1550 18 CB                      jr L151D
1552 CB 41         L1552:       bit 0,c
1554 28 D8                      jr z,L152E
1556 C5            L1556:       push bc
1557 CD 9A 17                   call L179A
155A 30 09                      jr nc,L1565
155C CD 41 16                   call L1641
155F CD B2 15                   call L15B2
1562 C1                         pop bc
1563 18 C5                      jr L152A
1565 C1            L1565:       pop bc
1566 CD 88 15                   call L1588
1569 30 08                      jr nc,L1573
156B 3A F1 D7                   ld a,($D7F1)
156E A7                         and a
156F 20 E5                      jr nz,L1556
1571 18 AD                      jr L1520
1573 CB 49         L1573:       bit 1,c
1575 28 0C                      jr z,L1583
1577 CD 26 16                   call L1626
157A 30 BE                      jr nc,L153A
157C 3E 01                      ld a,$01
157E 32 F0 D7                   ld ($D7F0),a
1581 18 9A                      jr L151D
1583 CD C6 15      L1583:       call L15C6
1586 18 98                      jr L1520
1588 3A F0 D7      L1588:       ld a,($D7F0)
158B A7                         and a
158C C8                         ret z
158D C5                         push bc
158E 21 E1 D7                   ld hl,$D7E1
1591 E5            L1591:       push hl
1592 7E                         ld a,(hl)
1593 E6 7F                      and $7F
1595 CD 41 16                   call L1641
1598 E1                         pop hl
1599 7E                         ld a,(hl)
159A 23                         inc hl
159B FE A0                      cp $A0
159D 28 12                      jr z,L15B1
159F FE 20                      cp $20
15A1 20 EE                      jr nz,L1591
15A3 11 E1 D7                   ld de,$D7E1
15A6 AF                         xor a
15A7 3C            L15A7:       inc a
15A8 CB 7E                      bit 7,(hl)
15AA ED A0                      ldi
15AC 28 F9                      jr z,L15A7
15AE C1                         pop bc
15AF 18 07                      jr L15B8
15B1 C1            L15B1:       pop bc
15B2 21 F1 D7      L15B2:       ld hl,$D7F1
15B5 CB 86                      res 0,(hl)
15B7 AF                         xor a
15B8 32 EF D7      L15B8:       ld ($D7EF),a
15BB AF                         xor a
15BC 32 F0 D7                   ld ($D7F0),a
15BF 21 F1 D7      L15BF:       ld hl,$D7F1
15C2 CB A6                      res 4,(hl)
15C4 37                         scf
15C5 C9                         ret
15C6 C5            L15C6:       push bc
15C7 21 E1 D7                   ld hl,$D7E1
15CA 7E            L15CA:       ld a,(hl)
15CB E6 7F                      and $7F
15CD E5                         push hl
15CE CD 41 16                   call L1641
15D1 E1                         pop hl
15D2 CB 7E                      bit 7,(hl)
15D4 23                         inc hl
15D5 28 F3                      jr z,L15CA
15D7 18 D8                      jr L15B1
15D9 2A F3 D7      L15D9:       ld hl,($D7F3)
15DC 23                         inc hl
15DD 22 F3 D7                   ld ($D7F3),hl
15E0 3A F7 D7                   ld a,($D7F7)
15E3 A7                         and a
15E4 FA 0D 16                   jp m,L160D
15E7 C4 6D 18                   call nz,L186D
15EA CC AE 08                   call z,L08AE
15ED 47            L15ED:       ld b,a
15EE 0E 01                      ld c,$01
15F0 FE 41                      cp $41
15F2 38 0B                      jr c,L15FF
15F4 F6 20                      or $20
15F6 FE 61                      cp $61
15F8 D8                         ret c
15F9 FE 7B                      cp $7B
15FB D0                         ret nc
15FC 0E 06                      ld c,$06
15FE C9                         ret
15FF 0C            L15FF:       inc c
1600 FE 23                      cp $23
1602 C8                         ret z
1603 FE 24                      cp $24
1605 C8                         ret z
1606 0C                         inc c
1607 FE 20                      cp $20
1609 C8                         ret z
160A 0E 01                      ld c,$01
160C C9                         ret
160D 2A FA D7      L160D:       ld hl,($D7FA)
1610 7C                         ld a,h
1611 B5                         or l
1612 3E 0D                      ld a,$0D
1614 28 D7                      jr z,L15ED
1616 2B                         dec hl
1617 22 FA D7                   ld ($D7FA),hl
161A 2A F8 D7                   ld hl,($D7F8)
161D CF                         rst $08
161E 7E                         ld a,(hl)
161F 23                         inc hl
1620 C7                         rst $00
1621 22 F8 D7                   ld ($D7F8),hl
1624 18 C7                      jr L15ED
1626 3A EF D7      L1626:       ld a,($D7EF)
1629 FE 09                      cp $09
162B C8                         ret z
162C 21 E1 D7                   ld hl,$D7E1
162F ED 31                      add hl,a
1631 A7                         and a
1632 28 04                      jr z,L1638
1634 2B                         dec hl
1635 CB BE                      res 7,(hl)
1637 23                         inc hl
1638 70            L1638:       ld (hl),b
1639 CB FE                      set 7,(hl)
163B 3C                         inc a
163C 32 EF D7                   ld ($D7EF),a
163F 37                         scf
1640 C9                         ret
1641 21 F1 D7      L1641:       ld hl,$D7F1
1644 CB 4E                      bit 1,(hl)
1646 20 5D                      jr nz,L16A5
1648 CB 5E                      bit 3,(hl)
164A 20 59                      jr nz,L16A5
164C FE CB                      cp $CB
164E 28 04                      jr z,L1654
1650 FE 3A                      cp $3A
1652 20 0B                      jr nz,L165F
1654 CB 96         L1654:       res 2,(hl)
1656 CD A5 16                   call L16A5
1659 21 F2 D7                   ld hl,$D7F2
165C CB 96                      res 2,(hl)
165E C9                         ret
165F 47            L165F:       ld b,a
1660 21 F5 D7                   ld hl,$D7F5
1663 7E                         ld a,(hl)
1664 A7                         and a
1665 20 0C                      jr nz,L1673
1667 78                         ld a,b
1668 FE 3E                      cp $3E
166A 28 04                      jr z,L1670
166C FE 3C                      cp $3C
166E 20 35                      jr nz,L16A5
1670 77            L1670:       ld (hl),a
1671 37                         scf
1672 C9                         ret
1673 36 00         L1673:       ld (hl),$00
1675 FE 3E                      cp $3E
1677 78                         ld a,b
1678 28 1C                      jr z,L1696
167A FE 3E                      cp $3E
167C 06 C9                      ld b,$C9
167E 28 24                      jr z,L16A4
1680 FE 3D                      cp $3D
1682 06 C7                      ld b,$C7
1684 28 1E                      jr z,L16A4
1686 FE 3C                      cp $3C
1688 06 8C                      ld b,$8C
168A 28 18                      jr z,L16A4
168C 06 3C                      ld b,$3C
168E F5            L168E:       push af
168F 78                         ld a,b
1690 CD A5 16                   call L16A5
1693 F1                         pop af
1694 18 0F                      jr L16A5
1696 FE 3D         L1696:       cp $3D
1698 06 C8                      ld b,$C8
169A 28 08                      jr z,L16A4
169C FE 3E                      cp $3E
169E 06 3E                      ld b,$3E
16A0 20 EC                      jr nz,L168E
16A2 06 8D                      ld b,$8D
16A4 78            L16A4:       ld a,b
16A5 FE 0D         L16A5:       cp $0D
16A7 20 17                      jr nz,L16C0
16A9 3A EE D7                   ld a,($D7EE)
16AC A7                         and a
16AD ED 4B F3 D7                ld bc,($D7F3)
16B1 C2 7A 17                   jp nz,L177A
16B4 3A F2 D7                   ld a,($D7F2)
16B7 CB 4F                      bit 1,a
16B9 3E 20                      ld a,$20
16BB C4 5A 17                   call nz,L175A
16BE A7                         and a
16BF C9                         ret
16C0 47            L16C0:       ld b,a
16C1 FE 22                      cp $22
16C3 28 2C                      jr z,L16F1
16C5 21 F2 D7                   ld hl,$D7F2
16C8 CB 56                      bit 2,(hl)
16CA 20 14                      jr nz,L16E0
16CC FE EA                      cp $EA
16CE 28 16                      jr z,L16E6
16D0 FE 3B                      cp $3B
16D2 28 16                      jr z,L16EA
16D4 FE 2E                      cp $2E
16D6 20 08                      jr nz,L16E0
16D8 21 B8 D5                   ld hl,$D5B8
16DB 3E 04                      ld a,$04
16DD BE                         cp (hl)
16DE 20 0C                      jr nz,L16EC
16E0 78            L16E0:       ld a,b
16E1 CD F8 16                   call L16F8
16E4 37                         scf
16E5 C9                         ret
16E6 CB E6         L16E6:       set 4,(hl)
16E8 18 F6                      jr L16E0
16EA 3E 08         L16EA:       ld a,$08
16EC 32 F1 D7      L16EC:       ld ($D7F1),a
16EF 18 EF                      jr L16E0
16F1 3A F1 D7      L16F1:       ld a,($D7F1)
16F4 EE 02                      xor $02
16F6 18 F4                      jr L16EC
16F8 5F            L16F8:       ld e,a
16F9 3A F2 D7                   ld a,($D7F2)
16FC 57                         ld d,a
16FD 7B                         ld a,e
16FE FE 20                      cp $20
1700 20 20                      jr nz,L1722
1702 CB 42                      bit 0,d
1704 20 17                      jr nz,L171D
1706 CB 4A                      bit 1,d
1708 20 10                      jr nz,L171A
170A CB 5A                      bit 3,d
170C 20 05                      jr nz,L1713
170E 7A                         ld a,d
170F CB DF                      set 3,a
1711 18 03                      jr L1716
1713 7A            L1713:       ld a,d
1714 CB CF                      set 1,a
1716 32 F2 D7      L1716:       ld ($D7F2),a
1719 C9                         ret
171A 7B            L171A:       ld a,e
171B 18 3D                      jr L175A
171D 7A            L171D:       ld a,d
171E CB 87                      res 0,a
1720 18 F4                      jr L1716
1722 FE 30         L1722:       cp $30
1724 38 04                      jr c,L172A
1726 FE 3A                      cp $3A
1728 38 04                      jr c,L172E
172A CB D2         L172A:       set 2,d
172C CB DA                      set 3,d
172E FE 81         L172E:       cp $81
1730 30 10                      jr nc,L1742
1732 CB 4A         L1732:       bit 1,d
1734 D5                         push de
1735 3E 20                      ld a,$20
1737 C4 5A 17                   call nz,L175A
173A D1                         pop de
173B CB 8A                      res 1,d
173D CD 1D 17                   call L171D
1740 18 D8                      jr L171A
1742 21 F1 D7      L1742:       ld hl,$D7F1
1745 7E                         ld a,(hl)
1746 E6 0E                      and $0E
1748 20 E8                      jr nz,L1732
174A 7A                         ld a,d
174B CB 67                      bit 4,a
174D 28 02                      jr z,L1751
174F CB DE                      set 3,(hl)
1751 E6 ED         L1751:       and $ED
1753 CB C7                      set 0,a
1755 32 F2 D7                   ld ($D7F2),a
1758 18 C0                      jr L171A
175A 47            L175A:       ld b,a
175B 2A EA D7                   ld hl,($D7EA)
175E 3A EE D7                   ld a,($D7EE)
1761 A7                         and a
1762 28 28                      jr z,L178C
1764 EB                         ex de,hl
1765 2A 5F 5C                   ld hl,($5C5F)
1768 ED 52                      sbc hl,de
176A 20 13                      jr nz,L177F
176C 3A EF D7                   ld a,($D7EF)
176F 5F                         ld e,a
1770 16 00                      ld d,$00
1772 2A F3 D7                   ld hl,($D7F3)
1775 ED 52                      sbc hl,de
1777 44                         ld b,h
1778 4D                         ld c,l
1779 37                         scf
177A ED 7B EC D7   L177A:       ld sp,($D7EC)
177E C9                         ret
177F CF            L177F:       rst $08
1780 13                         inc de
1781 1A                         ld a,(de)
1782 FE 0E                      cp $0E
1784 20 0E                      jr nz,L1794
1786 3E 06                      ld a,$06
1788 ED 32                      add de,a
178A 18 08                      jr L1794
178C CF            L178C:       rst $08
178D C5                         push bc
178E E7                         rst $20
178F 52                         ld d,d
1790 16 F1                      ld d,$F1
1792 12                         ld (de),a
1793 13                         inc de
1794 C7            L1794:       rst $00
1795 ED 53 EA D7                ld ($D7EA),de
1799 C9                         ret
179A 3A F1 D7      L179A:       ld a,($D7F1)
179D E6 10                      and $10
179F C0                         ret nz
17A0 06 A5                      ld b,$A5
17A2 21 96 00                   ld hl,$0096
17A5 E7                         rst $20
17A6 B0                         or b
17A7 D7                         rst $10
17A8 D8                         ret c
17A9 06 D0                      ld b,$D0
17AB 21 FB 18                   ld hl,$18FB
17AE CD B0 D7                   call LD7B0
17B1 D0                         ret nc
17B2 D6 F4                      sub $F4
17B4 38 15                      jr c,L17CB
17B6 4F                         ld c,a
17B7 06 00                      ld b,$00
17B9 2B                         dec hl
17BA 7E                         ld a,(hl)
17BB 21 D6 19                   ld hl,$19D6
17BE 09                         add hl,bc
17BF FE A4                      cp $A4
17C1 7E                         ld a,(hl)
17C2 20 05                      jr nz,L17C9
17C4 CD 41 16                   call L1641
17C7 3E 24                      ld a,$24
17C9 37            L17C9:       scf
17CA C9                         ret
17CB C6 A5         L17CB:       add a,$A5
17CD 37                         scf
17CE C9                         ret
17CF 2A 63 5C                   ld hl,($5C63)
17D2 2B                         dec hl
17D3 E5                         push hl
17D4 EB                         ex de,hl
17D5 C7                         rst $00
17D6 22 F8 D7                   ld ($D7F8),hl
17D9 ED 43 FA D7                ld ($D7FA),bc
17DD 3E FF                      ld a,$FF
17DF 06 00                      ld b,$00
17E1 CD 04 15                   call L1504
17E4 2A EA D7                   ld hl,($D7EA)
17E7 CF                         rst $08
17E8 D1                         pop de
17E9 A7                         and a
17EA ED 52                      sbc hl,de
17EC 44                         ld b,h
17ED 4D                         ld c,l
17EE C9                         ret
17EF E5            L17EF:       push hl
17F0 E7                         rst $20
17F1 BF                         cp a
17F2 16 E3                      ld d,$E3
17F4 E5                         push hl
17F5 2A 59 5C                   ld hl,($5C59)
17F8 E7                         rst $20
17F9 52                         ld d,d
17FA 16 3E                      ld d,$3E
17FC 0D                         dec c
17FD 12                         ld (de),a
17FE 16 00                      ld d,$00
1800 CD 4A 18                   call L184A
1803 E1                         pop hl
1804 C7                         rst $00
1805 22 F8 D7      L1805:       ld ($D7F8),hl
1808 AF                         xor a
1809 CD 52 18                   call L1852
180C C5                         push bc
180D CF                         rst $08
180E 21 FB 09                   ld hl,$09FB
1811 DF                         rst $18
1812 05                         dec b
1813 0A                         ld a,(bc)
1814 C7                         rst $00
1815 F1                         pop af
1816 CD 52 18                   call L1852
1819 ED 4B F3 D7                ld bc,($D7F3)
181D CF                         rst $08
181E D1                         pop de
181F FD CB 00 7E                bit 7,(iy)
1823 20 10                      jr nz,L1835
1825 D5                         push de
1826 16 01                      ld d,$01
1828 CD 4A 18                   call L184A
182B D1                         pop de
182C 0B            L182C:       dec bc
182D C5                         push bc
182E CD 3D 18                   call L183D
1831 D1                         pop de
1832 AF                         xor a
1833 37                         scf
1834 C9                         ret
1835 21 FB 04      L1835:       ld hl,$04FB
1838 A7                         and a
1839 ED 42                      sbc hl,bc
183B 38 EF                      jr c,L182C
183D E7            L183D:       rst $20
183E BF                         cp a
183F 16 A7                      ld d,$A7
1841 ED 52                      sbc hl,de
1843 44                         ld b,h
1844 4D                         ld c,l
1845 2A 59 5C                   ld hl,($5C59)
1848 37                         scf
1849 C9                         ret
184A 3E 01         L184A:       ld a,$01
184C C7                         rst $00
184D CD F1 14                   call L14F1
1850 CF                         rst $08
1851 C9                         ret
1852 21 65 18      L1852:       ld hl,$1865
1855 11 B0 D7                   ld de,$D7B0
1858 D5                         push de
1859 01 08 00                   ld bc,$0008
185C ED B0                      ldir
185E 21 FF 32                   ld hl,$32FF
1861 4F                         ld c,a
1862 3E 80                      ld a,$80
1864 C9                         ret
1865 D3 E3                      out ($E3),a
1867 46                         ld b,(hl)
1868 71                         ld (hl),c
1869 AF                         xor a
186A D3 E3                      out ($E3),a
186C C9                         ret
186D 2A F8 D7      L186D:       ld hl,($D7F8)
1870 3A F6 D7                   ld a,($D7F6)
1873 ED 92 51                   nextreg $51,a
1876 7E                         ld a,(hl)
1877 23                         inc hl
1878 ED 91 51 FF                nextreg $51,$FF
187C 22 F8 D7                   ld ($D7F8),hl
187F 24                         inc h
1880 C9                         ret
1881 21 00 00      L1881:       ld hl,$0000
1884 22 63 D7                   ld ($D763),hl
1887 22 65 D7                   ld ($D765),hl
188A 21 96 18      L188A:       ld hl,$1896
188D 11 72 D7                   ld de,$D772
1890 01 65 00                   ld bc,$0065
1893 ED B0                      ldir
1895 C9                         ret
1896 47                         ld b,a
1897 B7                         or a
1898 28 09         L1898:       jr z,L18A3
189A 1A            L189A:       ld a,(de)
189B 13                         inc de
189C E6 80                      and $80
189E 28 FA                      jr z,L189A
18A0 05                         dec b
18A1 18 F5                      jr L1898
18A3 21 61 D7      L18A3:       ld hl,$D761
18A6 CB 46                      bit 0,(hl)
18A8 36 00                      ld (hl),$00
18AA 21 67 D7                   ld hl,$D767
18AD 22 65 D7                   ld ($D765),hl
18B0 20 09                      jr nz,L18BB
18B2 1A                         ld a,(de)
18B3 FE 41                      cp $41
18B5 38 04                      jr c,L18BB
18B7 3E 20                      ld a,$20
18B9 77                         ld (hl),a
18BA 23                         inc hl
18BB 1A            L18BB:       ld a,(de)
18BC 47                         ld b,a
18BD 13                         inc de
18BE 77                         ld (hl),a
18BF 23                         inc hl
18C0 E6 80                      and $80
18C2 28 F7                      jr z,L18BB
18C4 78                         ld a,b
18C5 E6 7F                      and $7F
18C7 FE 3C                      cp $3C
18C9 38 03                      jr c,L18CE
18CB FE 3F                      cp $3F
18CD D8                         ret c
18CE 2B            L18CE:       dec hl
18CF 77                         ld (hl),a
18D0 23                         inc hl
18D1 36 A0                      ld (hl),$A0
18D3 C9                         ret
18D4 11 E1 D7      L18D4:       ld de,$D7E1
18D7 1A            L18D7:       ld a,(de)
18D8 E6 7F                      and $7F
18DA FE 61                      cp $61
18DC 1A                         ld a,(de)
18DD 38 02                      jr c,L18E1
18DF E6 DF                      and $DF
18E1 BE            L18E1:       cp (hl)
18E2 20 09                      jr nz,L18ED
18E4 23                         inc hl
18E5 13                         inc de
18E6 E6 80                      and $80
18E8 28 ED                      jr z,L18D7
18EA 37                         scf
18EB 18 0C                      jr L18F9
18ED 04            L18ED:       inc b
18EE 28 08                      jr z,L18F8
18F0 7E            L18F0:       ld a,(hl)
18F1 E6 80                      and $80
18F3 23                         inc hl
18F4 28 FA                      jr z,L18F0
18F6 18 DC                      jr L18D4
18F8 B7            L18F8:       or a
18F9 78            L18F9:       ld a,b
18FA C9                         ret
18FB 54                         ld d,h
18FC 49                         ld c,c
18FD 4D                         ld c,l
18FE C5                         push bc
18FF 50                         ld d,b
1900 52                         ld d,d
1901 49                         ld c,c
1902 56                         ld d,(hl)
1903 41                         ld b,c
1904 54                         ld d,h
1905 C5                         push bc
1906 49                         ld c,c
1907 C6 45                      add a,$45
1909 4E                         ld c,(hl)
190A 44                         ld b,h
190B 49                         ld c,c
190C C6 45                      add a,$45
190E 58                         ld e,b
190F 49                         ld c,c
1910 D4 52 45                   call nc,L4552
1913 C6 50                      add a,$50
1915 45                         ld b,l
1916 45                         ld b,l
1917 4B                         ld c,e
1918 A4                         and h
1919 52                         ld d,d
191A 45                         ld b,l
191B C7                         rst $00
191C 44                         ld b,h
191D 50                         ld d,b
191E 4F                         ld c,a
191F 4B                         ld c,e
1920 C5                         push bc
1921 44                         ld b,h
1922 50                         ld d,b
1923 45                         ld b,l
1924 45                         ld b,l
1925 CB 4D                      bit 1,l
1927 4F                         ld c,a
1928 C4 3C BC                   call nz,LBC3C
192B 3E BE                      ld a,$BE
192D 55                         ld d,l
192E 4E                         ld c,(hl)
192F 54                         ld d,h
1930 49                         ld c,c
1931 CC 45 52                   call z,L5245
1934 52                         ld d,d
1935 4F                         ld c,a
1936 D2 4F CE                   jp nc,LCE4F
1939 44                         ld b,h
193A 45                         ld b,l
193B 46                         ld b,(hl)
193C 50                         ld d,b
193D 52                         ld d,d
193E 4F                         ld c,a
193F C3 45 4E                   jp L4E45
1942 44                         ld b,h
1943 50                         ld d,b
1944 52                         ld d,d
1945 4F                         ld c,a
1946 C3 50 52                   jp L5250
1949 4F                         ld c,a
194A C3 4C 4F                   jp L4F4C
194D 43                         ld b,e
194E 41                         ld b,c
194F CC 44 52                   call z,L5244
1952 49                         ld c,c
1953 56                         ld d,(hl)
1954 45                         ld b,l
1955 D2 57 48                   jp nc,L4857
1958 49                         ld c,c
1959 4C                         ld c,h
195A C5                         push bc
195B 52                         ld d,d
195C 45                         ld b,l
195D 50                         ld d,b
195E 45                         ld b,l
195F 41                         ld b,c
1960 D4 45 4C                   call nc,L4C45
1963 53                         ld d,e
1964 C5                         push bc
1965 52                         ld d,d
1966 45                         ld b,l
1967 4D                         ld c,l
1968 4F                         ld c,a
1969 55                         ld d,l
196A 4E                         ld c,(hl)
196B D4 42 41                   call nc,L4142
196E 4E                         ld c,(hl)
196F CB 54                      bit 2,h
1971 49                         ld c,c
1972 4C                         ld c,h
1973 C5                         push bc
1974 4C                         ld c,h
1975 41                         ld b,c
1976 59                         ld e,c
1977 45                         ld b,l
1978 D2 50 41                   jp nc,L4150
197B 4C                         ld c,h
197C 45                         ld b,l
197D 54                         ld d,h
197E 54                         ld d,h
197F C5                         push bc
1980 53                         ld d,e
1981 50                         ld d,b
1982 52                         ld d,d
1983 49                         ld c,c
1984 54                         ld d,h
1985 C5                         push bc
1986 50                         ld d,b
1987 57                         ld d,a
1988 C4 43 C4                   call nz,LC443
198B 4D                         ld c,l
198C 4B                         ld c,e
198D 44                         ld b,h
198E 49                         ld c,c
198F D2 52 4D                   jp nc,L4D52
1992 44                         ld b,h
1993 49                         ld c,c
1994 D2 53 50                   jp nc,L5053
1997 45                         ld b,l
1998 43                         ld b,e
1999 54                         ld d,h
199A 52                         ld d,d
199B 55                         ld d,l
199C CD 50 4C                   call L4C50
199F 41                         ld b,c
19A0 D9                         exx
19A1 4C                         ld c,h
19A2 D3 44                      out ($44),a
19A4 49                         ld c,c
19A5 D2 47 4F                   jp nc,L4F47
19A8 54                         ld d,h
19A9 CF                         rst $08
19AA 47                         ld b,a
19AB 4F                         ld c,a
19AC 53                         ld d,e
19AD 55                         ld d,l
19AE C2 44 45                   jp nz,L4544
19B1 46                         ld b,(hl)
19B2 46                         ld b,(hl)
19B3 CE 4F                      adc a,$4F
19B5 50                         ld d,b
19B6 45                         ld b,l
19B7 4E                         ld c,(hl)
19B8 A3                         and e
19B9 43                         ld b,e
19BA 4C                         ld c,h
19BB 4F                         ld c,a
19BC 53                         ld d,e
19BD 45                         ld b,l
19BE A3                         and e
19BF 52                         ld d,d
19C0 41                         ld b,c
19C1 4E                         ld c,(hl)
19C2 C4 43 4F                   call nz,L4F43
19C5 4E                         ld c,(hl)
19C6 D4 45 52                   call nc,L5245
19C9 52                         ld d,d
19CA 4F                         ld c,a
19CB 52                         ld d,d
19CC A4                         and h
19CD 54                         ld d,h
19CE 49                         ld c,c
19CF 4D                         ld c,l
19D0 45                         ld b,l
19D1 A4                         and h
19D2 55                         ld d,l
19D3 53                         ld d,e
19D4 52                         ld d,d
19D5 A4                         and h
19D6 CF                         rst $08
19D7 CF                         rst $08
19D8 EC ED CE                   call pe,LCEED
19DB D3 D4                      out ($D4),a
19DD F9                         ld sp,hl
19DE E8                         ret pe
19DF 8F                         adc a,a
19E0 81                         add a,c
19E1 C0                         ret nz
19E2 E5                         push hl
19E3 C7                         rst $00
19E4 CD 81 18                   call L1881
19E7 CF            L19E7:       rst $08
19E8 DF                         rst $18
19E9 50                         ld d,b
19EA 2B                         dec hl
19EB 3A 65 5B                   ld a,($5B65)
19EE E1                         pop hl
19EF E5                         push hl
19F0 DF                         rst $18
19F1 40                         ld b,b
19F2 39                         add hl,sp
19F3 7E                         ld a,(hl)
19F4 FE 28                      cp $28
19F6 D1                         pop de
19F7 D0                         ret nc
19F8 D5                         push de
19F9 57                         ld d,a
19FA 23                         inc hl
19FB 5E                         ld e,(hl)
19FC 23                         inc hl
19FD 4E                         ld c,(hl)
19FE 23                         inc hl
19FF 46                         ld b,(hl)
1A00 E3                         ex (sp),hl
1A01 ED 34 04 00                add hl,$0004
1A05 09                         add hl,bc
1A06 E3                         ex (sp),hl
1A07 C7                         rst $00
1A08 2B                         dec hl
1A09 2B                         dec hl
1A0A CD 1F 0F                   call L0F1F
1A0D CD 09 14      L1A0D:       call L1409
1A10 30 D5                      jr nc,L19E7
1A12 CF                         rst $08
1A13 A7                         and a
1A14 20 02                      jr nz,L1A18
1A16 3E 20                      ld a,$20
1A18 EF            L1A18:       rst $28
1A19 C7                         rst $00
1A1A 18 F1                      jr L1A0D
1A1C E5                         push hl
1A1D C7                         rst $00
1A1E CD 81 18                   call L1881
1A21 CF                         rst $08
1A22 E1                         pop hl
1A23 56                         ld d,(hl)
1A24 23                         inc hl
1A25 5E                         ld e,(hl)
1A26 C7                         rst $00
1A27 CD 1F 0F                   call L0F1F
1A2A 21 FF FF                   ld hl,$FFFF
1A2D E5            L1A2D:       push hl
1A2E CD 09 14                   call L1409
1A31 E1                         pop hl
1A32 23                         inc hl
1A33 38 F8                      jr c,L1A2D
1A35 CF                         rst $08
1A36 C9                         ret
1A37 00                         nop
1A38 00                         nop
1A39 00                         nop
1A3A 00                         nop
1A3B 00                         nop
1A3C 00                         nop
1A3D 00                         nop
1A3E 00                         nop
1A3F 00                         nop
1A40 00                         nop
1A41 00                         nop
1A42 00                         nop
1A43 00                         nop
1A44 00                         nop
1A45 00                         nop
1A46 00                         nop
1A47 00                         nop
1A48 00                         nop
1A49 00                         nop
1A4A 00                         nop
1A4B 00                         nop
1A4C 00                         nop
1A4D 00                         nop
1A4E 00                         nop
1A4F 00                         nop
1A50 00                         nop
1A51 00                         nop
1A52 00                         nop
1A53 00                         nop
1A54 00                         nop
1A55 00                         nop
1A56 00                         nop
1A57 00                         nop
1A58 00                         nop
1A59 00                         nop
1A5A 00                         nop
1A5B 00                         nop
1A5C 00                         nop
1A5D 00                         nop
1A5E 00                         nop
1A5F 00                         nop
1A60 00                         nop
1A61 00                         nop
1A62 00                         nop
1A63 00                         nop
1A64 00                         nop
1A65 00                         nop
1A66 00                         nop
1A67 00                         nop
1A68 00                         nop
1A69 00                         nop
1A6A 00                         nop
1A6B 00                         nop
1A6C 00                         nop
1A6D 00                         nop
1A6E 00                         nop
1A6F 00                         nop
1A70 00                         nop
1A71 00                         nop
1A72 00                         nop
1A73 00                         nop
1A74 00                         nop
1A75 00                         nop
1A76 00                         nop
1A77 00                         nop
1A78 00                         nop
1A79 00                         nop
1A7A 00                         nop
1A7B 00                         nop
1A7C 00                         nop
1A7D 00                         nop
1A7E 00                         nop
1A7F 00                         nop
1A80 00                         nop
1A81 00                         nop
1A82 00                         nop
1A83 00                         nop
1A84 00                         nop
1A85 00                         nop
1A86 00                         nop
1A87 00                         nop
1A88 00                         nop
1A89 00                         nop
1A8A 00                         nop
1A8B 00                         nop
1A8C 00                         nop
1A8D 00                         nop
1A8E 00                         nop
1A8F 00                         nop
1A90 00                         nop
1A91 00                         nop
1A92 00                         nop
1A93 00                         nop
1A94 00                         nop
1A95 00                         nop
1A96 00                         nop
1A97 00                         nop
1A98 00                         nop
1A99 00                         nop
1A9A 00                         nop
1A9B 00                         nop
1A9C 00                         nop
1A9D 00                         nop
1A9E 00                         nop
1A9F 00                         nop
1AA0 00                         nop
1AA1 00                         nop
1AA2 00                         nop
1AA3 00                         nop
1AA4 00                         nop
1AA5 00                         nop
1AA6 00                         nop
1AA7 00                         nop
1AA8 00                         nop
1AA9 00                         nop
1AAA 00                         nop
1AAB 00                         nop
1AAC 00                         nop
1AAD 00                         nop
1AAE 00                         nop
1AAF 00                         nop
1AB0 00                         nop
1AB1 00                         nop
1AB2 00                         nop
1AB3 00                         nop
1AB4 00                         nop
1AB5 00                         nop
1AB6 00                         nop
1AB7 00                         nop
1AB8 00                         nop
1AB9 00                         nop
1ABA 00                         nop
1ABB 00                         nop
1ABC 00                         nop
1ABD 00                         nop
1ABE 00                         nop
1ABF 00                         nop
1AC0 00                         nop
1AC1 00                         nop
1AC2 00                         nop
1AC3 00                         nop
1AC4 00                         nop
1AC5 00                         nop
1AC6 00                         nop
1AC7 00                         nop
1AC8 00                         nop
1AC9 00                         nop
1ACA 00                         nop
1ACB 00                         nop
1ACC 00                         nop
1ACD 00                         nop
1ACE 00                         nop
1ACF 00                         nop
1AD0 00                         nop
1AD1 00                         nop
1AD2 00                         nop
1AD3 00                         nop
1AD4 00                         nop
1AD5 00                         nop
1AD6 00                         nop
1AD7 00                         nop
1AD8 00                         nop
1AD9 00                         nop
1ADA 00                         nop
1ADB 00                         nop
1ADC 00                         nop
1ADD 00                         nop
1ADE 00                         nop
1ADF 00                         nop
1AE0 00                         nop
1AE1 00                         nop
1AE2 00                         nop
1AE3 00                         nop
1AE4 00                         nop
1AE5 00                         nop
1AE6 00                         nop
1AE7 00                         nop
1AE8 00                         nop
1AE9 00                         nop
1AEA 00                         nop
1AEB 00                         nop
1AEC 00                         nop
1AED 00                         nop
1AEE 00                         nop
1AEF 00                         nop
1AF0 00                         nop
1AF1 00                         nop
1AF2 00                         nop
1AF3 00                         nop
1AF4 00                         nop
1AF5 00                         nop
1AF6 00                         nop
1AF7 00                         nop
1AF8 00                         nop
1AF9 00                         nop
1AFA 00                         nop
1AFB 00                         nop
1AFC 00                         nop
1AFD 00                         nop
1AFE 00                         nop
1AFF 00                         nop
1B00 00                         nop
1B01 00                         nop
1B02 00                         nop
1B03 00                         nop
1B04 00                         nop
1B05 00                         nop
1B06 00                         nop
1B07 00                         nop
1B08 00                         nop
1B09 00                         nop
1B0A 00                         nop
1B0B 00                         nop
1B0C 00                         nop
1B0D 00                         nop
1B0E 00                         nop
1B0F 00                         nop
1B10 00                         nop
1B11 00                         nop
1B12 00                         nop
1B13 00                         nop
1B14 00                         nop
1B15 00                         nop
1B16 00                         nop
1B17 00                         nop
1B18 00                         nop
1B19 00                         nop
1B1A 00                         nop
1B1B 00                         nop
1B1C 00                         nop
1B1D 00                         nop
1B1E 00                         nop
1B1F 00                         nop
1B20 00                         nop
1B21 00                         nop
1B22 00                         nop
1B23 00                         nop
1B24 00                         nop
1B25 00                         nop
1B26 00                         nop
1B27 00                         nop
1B28 00                         nop
1B29 00                         nop
1B2A 00                         nop
1B2B 00                         nop
1B2C 00                         nop
1B2D 00                         nop
1B2E 00                         nop
1B2F 00                         nop
1B30 00                         nop
1B31 00                         nop
1B32 00                         nop
1B33 00                         nop
1B34 00                         nop
1B35 00                         nop
1B36 00                         nop
1B37 00                         nop
1B38 00                         nop
1B39 00                         nop
1B3A 00                         nop
1B3B 00                         nop
1B3C 00                         nop
1B3D 00                         nop
1B3E 00                         nop
1B3F 00                         nop
1B40 00                         nop
1B41 00                         nop
1B42 00                         nop
1B43 00                         nop
1B44 00                         nop
1B45 00                         nop
1B46 00                         nop
1B47 00                         nop
1B48 00                         nop
1B49 00                         nop
1B4A 00                         nop
1B4B 00                         nop
1B4C 00                         nop
1B4D 00                         nop
1B4E 00                         nop
1B4F 00                         nop
1B50 00                         nop
1B51 00                         nop
1B52 00                         nop
1B53 00                         nop
1B54 00                         nop
1B55 00                         nop
1B56 00                         nop
1B57 00                         nop
1B58 00                         nop
1B59 00                         nop
1B5A 00                         nop
1B5B 00                         nop
1B5C 00                         nop
1B5D 00                         nop
1B5E 00                         nop
1B5F 00                         nop
1B60 00                         nop
1B61 00                         nop
1B62 00                         nop
1B63 00                         nop
1B64 00                         nop
1B65 00                         nop
1B66 00                         nop
1B67 00                         nop
1B68 00                         nop
1B69 00                         nop
1B6A 00                         nop
1B6B 00                         nop
1B6C 00                         nop
1B6D 00                         nop
1B6E 00                         nop
1B6F 00                         nop
1B70 00                         nop
1B71 00                         nop
1B72 00                         nop
1B73 00                         nop
1B74 00                         nop
1B75 00                         nop
1B76 00                         nop
1B77 00                         nop
1B78 00                         nop
1B79 00                         nop
1B7A 00                         nop
1B7B 00                         nop
1B7C 00                         nop
1B7D 00                         nop
1B7E 00                         nop
1B7F 00                         nop
1B80 00                         nop
1B81 00                         nop
1B82 00                         nop
1B83 00                         nop
1B84 00                         nop
1B85 00                         nop
1B86 00                         nop
1B87 00                         nop
1B88 00                         nop
1B89 00                         nop
1B8A 00                         nop
1B8B 00                         nop
1B8C 00                         nop
1B8D 00                         nop
1B8E 00                         nop
1B8F 00                         nop
1B90 00                         nop
1B91 00                         nop
1B92 00                         nop
1B93 00                         nop
1B94 00                         nop
1B95 00                         nop
1B96 00                         nop
1B97 00                         nop
1B98 00                         nop
1B99 00                         nop
1B9A 00                         nop
1B9B 00                         nop
1B9C 00                         nop
1B9D 00                         nop
1B9E 00                         nop
1B9F 00                         nop
1BA0 00                         nop
1BA1 00                         nop
1BA2 00                         nop
1BA3 00                         nop
1BA4 00                         nop
1BA5 00                         nop
1BA6 00                         nop
1BA7 00                         nop
1BA8 00                         nop
1BA9 00                         nop
1BAA 00                         nop
1BAB 00                         nop
1BAC 00                         nop
1BAD 00                         nop
1BAE 00                         nop
1BAF 00                         nop
1BB0 00                         nop
1BB1 00                         nop
1BB2 00                         nop
1BB3 00                         nop
1BB4 00                         nop
1BB5 00                         nop
1BB6 00                         nop
1BB7 00                         nop
1BB8 00                         nop
1BB9 00                         nop
1BBA 00                         nop
1BBB 00                         nop
1BBC 00                         nop
1BBD 00                         nop
1BBE 00                         nop
1BBF 00                         nop
1BC0 00                         nop
1BC1 00                         nop
1BC2 00                         nop
1BC3 00                         nop
1BC4 00                         nop
1BC5 00                         nop
1BC6 00                         nop
1BC7 00                         nop
1BC8 00                         nop
1BC9 00                         nop
1BCA 00                         nop
1BCB 00                         nop
1BCC 00                         nop
1BCD 00                         nop
1BCE 00                         nop
1BCF 00                         nop
1BD0 00                         nop
1BD1 00                         nop
1BD2 00                         nop
1BD3 00                         nop
1BD4 00                         nop
1BD5 00                         nop
1BD6 00                         nop
1BD7 00                         nop
1BD8 00                         nop
1BD9 00                         nop
1BDA 00                         nop
1BDB 00                         nop
1BDC 00                         nop
1BDD 00                         nop
1BDE 00                         nop
1BDF 00                         nop
1BE0 00                         nop
1BE1 00                         nop
1BE2 00                         nop
1BE3 00                         nop
1BE4 00                         nop
1BE5 00                         nop
1BE6 00                         nop
1BE7 00                         nop
1BE8 00                         nop
1BE9 00                         nop
1BEA 00                         nop
1BEB 00                         nop
1BEC 00                         nop
1BED 00                         nop
1BEE 00                         nop
1BEF 00                         nop
1BF0 00                         nop
1BF1 00                         nop
1BF2 00                         nop
1BF3 00                         nop
1BF4 00                         nop
1BF5 00                         nop
1BF6 00                         nop
1BF7 00                         nop
1BF8 00                         nop
1BF9 00                         nop
1BFA 00                         nop
1BFB 00                         nop
1BFC 00                         nop
1BFD 00                         nop
1BFE 00                         nop
1BFF 00                         nop
1C00 00                         nop
1C01 00                         nop
1C02 00                         nop
1C03 00                         nop
1C04 00                         nop
1C05 00                         nop
1C06 00                         nop
1C07 00                         nop
1C08 00                         nop
1C09 00                         nop
1C0A 00                         nop
1C0B 00                         nop
1C0C 00                         nop
1C0D 00                         nop
1C0E 00                         nop
1C0F 00                         nop
1C10 00                         nop
1C11 00                         nop
1C12 00                         nop
1C13 00                         nop
1C14 00                         nop
1C15 00                         nop
1C16 00                         nop
1C17 00                         nop
1C18 00                         nop
1C19 00                         nop
1C1A 00                         nop
1C1B 00                         nop
1C1C 00                         nop
1C1D 00                         nop
1C1E 00                         nop
1C1F 00                         nop
1C20 00                         nop
1C21 00                         nop
1C22 00                         nop
1C23 00                         nop
1C24 00                         nop
1C25 00                         nop
1C26 00                         nop
1C27 00                         nop
1C28 00                         nop
1C29 00                         nop
1C2A 00                         nop
1C2B 00                         nop
1C2C 00                         nop
1C2D 00                         nop
1C2E 00                         nop
1C2F 00                         nop
1C30 00                         nop
1C31 00                         nop
1C32 00                         nop
1C33 00                         nop
1C34 00                         nop
1C35 00                         nop
1C36 00                         nop
1C37 00                         nop
1C38 00                         nop
1C39 00                         nop
1C3A 00                         nop
1C3B 00                         nop
1C3C 00                         nop
1C3D 00                         nop
1C3E 00                         nop
1C3F 00                         nop
1C40 00                         nop
1C41 00                         nop
1C42 00                         nop
1C43 00                         nop
1C44 00                         nop
1C45 00                         nop
1C46 00                         nop
1C47 00                         nop
1C48 00                         nop
1C49 00                         nop
1C4A 00                         nop
1C4B 00                         nop
1C4C 00                         nop
1C4D 00                         nop
1C4E 00                         nop
1C4F 00                         nop
1C50 00                         nop
1C51 00                         nop
1C52 00                         nop
1C53 00                         nop
1C54 00                         nop
1C55 00                         nop
1C56 00                         nop
1C57 00                         nop
1C58 00                         nop
1C59 00                         nop
1C5A 00                         nop
1C5B 00                         nop
1C5C 00                         nop
1C5D 00                         nop
1C5E 00                         nop
1C5F 00                         nop
1C60 00                         nop
1C61 00                         nop
1C62 00                         nop
1C63 00                         nop
1C64 00                         nop
1C65 00                         nop
1C66 00                         nop
1C67 00                         nop
1C68 00                         nop
1C69 00                         nop
1C6A 00                         nop
1C6B 00                         nop
1C6C 00                         nop
1C6D 00                         nop
1C6E 00                         nop
1C6F 00                         nop
1C70 00                         nop
1C71 00                         nop
1C72 00                         nop
1C73 00                         nop
1C74 00                         nop
1C75 00                         nop
1C76 00                         nop
1C77 00                         nop
1C78 00                         nop
1C79 00                         nop
1C7A 00                         nop
1C7B 00                         nop
1C7C 00                         nop
1C7D 00                         nop
1C7E 00                         nop
1C7F 00                         nop
1C80 00                         nop
1C81 00                         nop
1C82 00                         nop
1C83 00                         nop
1C84 00                         nop
1C85 00                         nop
1C86 00                         nop
1C87 00                         nop
1C88 00                         nop
1C89 00                         nop
1C8A 00                         nop
1C8B 00                         nop
1C8C 00                         nop
1C8D 00                         nop
1C8E 00                         nop
1C8F 00                         nop
1C90 00                         nop
1C91 00                         nop
1C92 00                         nop
1C93 00                         nop
1C94 00                         nop
1C95 00                         nop
1C96 00                         nop
1C97 00                         nop
1C98 00                         nop
1C99 00                         nop
1C9A 00                         nop
1C9B 00                         nop
1C9C 00                         nop
1C9D 00                         nop
1C9E 00                         nop
1C9F 00                         nop
1CA0 00                         nop
1CA1 00                         nop
1CA2 00                         nop
1CA3 00                         nop
1CA4 00                         nop
1CA5 00                         nop
1CA6 00                         nop
1CA7 00                         nop
1CA8 00                         nop
1CA9 00                         nop
1CAA 00                         nop
1CAB 00                         nop
1CAC 00                         nop
1CAD 00                         nop
1CAE 00                         nop
1CAF 00                         nop
1CB0 00                         nop
1CB1 00                         nop
1CB2 00                         nop
1CB3 00                         nop
1CB4 00                         nop
1CB5 00                         nop
1CB6 00                         nop
1CB7 00                         nop
1CB8 00                         nop
1CB9 00                         nop
1CBA 00                         nop
1CBB 00                         nop
1CBC 00                         nop
1CBD 00                         nop
1CBE 00                         nop
1CBF 00                         nop
1CC0 00                         nop
1CC1 00                         nop
1CC2 00                         nop
1CC3 00                         nop
1CC4 00                         nop
1CC5 00                         nop
1CC6 00                         nop
1CC7 00                         nop
1CC8 00                         nop
1CC9 00                         nop
1CCA 00                         nop
1CCB 00                         nop
1CCC 00                         nop
1CCD 00                         nop
1CCE 00                         nop
1CCF 00                         nop
1CD0 00                         nop
1CD1 00                         nop
1CD2 00                         nop
1CD3 00                         nop
1CD4 00                         nop
1CD5 00                         nop
1CD6 00                         nop
1CD7 00                         nop
1CD8 00                         nop
1CD9 00                         nop
1CDA 00                         nop
1CDB 00                         nop
1CDC 00                         nop
1CDD 00                         nop
1CDE 00                         nop
1CDF 00                         nop
1CE0 00                         nop
1CE1 00                         nop
1CE2 00                         nop
1CE3 00                         nop
1CE4 00                         nop
1CE5 00                         nop
1CE6 00                         nop
1CE7 00                         nop
1CE8 00                         nop
1CE9 00                         nop
1CEA 00                         nop
1CEB 00                         nop
1CEC 00                         nop
1CED 00                         nop
1CEE 00                         nop
1CEF 00                         nop
1CF0 00                         nop
1CF1 00                         nop
1CF2 00                         nop
1CF3 00                         nop
1CF4 00                         nop
1CF5 00                         nop
1CF6 00                         nop
1CF7 00                         nop
1CF8 00                         nop
1CF9 00                         nop
1CFA 00                         nop
1CFB 00                         nop
1CFC 00                         nop
1CFD 00                         nop
1CFE 00                         nop
1CFF 00                         nop
1D00 00                         nop
1D01 00                         nop
1D02 00                         nop
1D03 00                         nop
1D04 00                         nop
1D05 00                         nop
1D06 00                         nop
1D07 00                         nop
1D08 00                         nop
1D09 00                         nop
1D0A 00                         nop
1D0B 00                         nop
1D0C 00                         nop
1D0D 00                         nop
1D0E 00                         nop
1D0F 00                         nop
1D10 00                         nop
1D11 00                         nop
1D12 00                         nop
1D13 00                         nop
1D14 00                         nop
1D15 00                         nop
1D16 00                         nop
1D17 00                         nop
1D18 00                         nop
1D19 00                         nop
1D1A 00                         nop
1D1B 00                         nop
1D1C 00                         nop
1D1D 00                         nop
1D1E 00                         nop
1D1F 00                         nop
1D20 00                         nop
1D21 00                         nop
1D22 00                         nop
1D23 00                         nop
1D24 00                         nop
1D25 00                         nop
1D26 00                         nop
1D27 00                         nop
1D28 00                         nop
1D29 00                         nop
1D2A 00                         nop
1D2B 00                         nop
1D2C 00                         nop
1D2D 00                         nop
1D2E 00                         nop
1D2F 00                         nop
1D30 00                         nop
1D31 00                         nop
1D32 00                         nop
1D33 00                         nop
1D34 00                         nop
1D35 00                         nop
1D36 00                         nop
1D37 00                         nop
1D38 00                         nop
1D39 00                         nop
1D3A 00                         nop
1D3B 00                         nop
1D3C 00                         nop
1D3D 00                         nop
1D3E 00                         nop
1D3F 00                         nop
1D40 00                         nop
1D41 00                         nop
1D42 00                         nop
1D43 00                         nop
1D44 00                         nop
1D45 00                         nop
1D46 00                         nop
1D47 00                         nop
1D48 00                         nop
1D49 00                         nop
1D4A 00                         nop
1D4B 00                         nop
1D4C 00                         nop
1D4D 00                         nop
1D4E 00                         nop
1D4F 00                         nop
1D50 00                         nop
1D51 00                         nop
1D52 00                         nop
1D53 00                         nop
1D54 00                         nop
1D55 00                         nop
1D56 00                         nop
1D57 00                         nop
1D58 00                         nop
1D59 00                         nop
1D5A 00                         nop
1D5B 00                         nop
1D5C 00                         nop
1D5D 00                         nop
1D5E 00                         nop
1D5F 00                         nop
1D60 00                         nop
1D61 00                         nop
1D62 00                         nop
1D63 00                         nop
1D64 00                         nop
1D65 00                         nop
1D66 00                         nop
1D67 00                         nop
1D68 00                         nop
1D69 00                         nop
1D6A 00                         nop
1D6B 00                         nop
1D6C 00                         nop
1D6D 00                         nop
1D6E 00                         nop
1D6F 00                         nop
1D70 00                         nop
1D71 00                         nop
1D72 00                         nop
1D73 00                         nop
1D74 00                         nop
1D75 00                         nop
1D76 00                         nop
1D77 00                         nop
1D78 00                         nop
1D79 00                         nop
1D7A 00                         nop
1D7B 00                         nop
1D7C 00                         nop
1D7D 00                         nop
1D7E 00                         nop
1D7F 00                         nop
1D80 00                         nop
1D81 00                         nop
1D82 00                         nop
1D83 00                         nop
1D84 00                         nop
1D85 00                         nop
1D86 00                         nop
1D87 00                         nop
1D88 00                         nop
1D89 00                         nop
1D8A 00                         nop
1D8B 00                         nop
1D8C 00                         nop
1D8D 00                         nop
1D8E 00                         nop
1D8F 00                         nop
1D90 00                         nop
1D91 00                         nop
1D92 00                         nop
1D93 00                         nop
1D94 00                         nop
1D95 00                         nop
1D96 00                         nop
1D97 00                         nop
1D98 00                         nop
1D99 00                         nop
1D9A 00                         nop
1D9B 00                         nop
1D9C 00                         nop
1D9D 00                         nop
1D9E 00                         nop
1D9F 00                         nop
1DA0 00                         nop
1DA1 00                         nop
1DA2 00                         nop
1DA3 00                         nop
1DA4 00                         nop
1DA5 00                         nop
1DA6 00                         nop
1DA7 00                         nop
1DA8 00                         nop
1DA9 00                         nop
1DAA 00                         nop
1DAB 00                         nop
1DAC 00                         nop
1DAD 00                         nop
1DAE 00                         nop
1DAF 00                         nop
1DB0 00                         nop
1DB1 00                         nop
1DB2 00                         nop
1DB3 00                         nop
1DB4 00                         nop
1DB5 00                         nop
1DB6 00                         nop
1DB7 00                         nop
1DB8 00                         nop
1DB9 00                         nop
1DBA 00                         nop
1DBB 00                         nop
1DBC 00                         nop
1DBD 00                         nop
1DBE 00                         nop
1DBF 00                         nop
1DC0 00                         nop
1DC1 00                         nop
1DC2 00                         nop
1DC3 00                         nop
1DC4 00                         nop
1DC5 00                         nop
1DC6 00                         nop
1DC7 00                         nop
1DC8 00                         nop
1DC9 00                         nop
1DCA 00                         nop
1DCB 00                         nop
1DCC 00                         nop
1DCD 00                         nop
1DCE 00                         nop
1DCF 00                         nop
1DD0 00                         nop
1DD1 00                         nop
1DD2 00                         nop
1DD3 00                         nop
1DD4 00                         nop
1DD5 00                         nop
1DD6 00                         nop
1DD7 00                         nop
1DD8 00                         nop
1DD9 00                         nop
1DDA 00                         nop
1DDB 00                         nop
1DDC 00                         nop
1DDD 00                         nop
1DDE 00                         nop
1DDF 00                         nop
1DE0 00                         nop
1DE1 00                         nop
1DE2 00                         nop
1DE3 00                         nop
1DE4 00                         nop
1DE5 00                         nop
1DE6 00                         nop
1DE7 00                         nop
1DE8 00                         nop
1DE9 00                         nop
1DEA 00                         nop
1DEB 00                         nop
1DEC 00                         nop
1DED 00                         nop
1DEE 00                         nop
1DEF 00                         nop
1DF0 00                         nop
1DF1 00                         nop
1DF2 00                         nop
1DF3 00                         nop
1DF4 00                         nop
1DF5 00                         nop
1DF6 00                         nop
1DF7 00                         nop
1DF8 00                         nop
1DF9 00                         nop
1DFA 00                         nop
1DFB 00                         nop
1DFC 00                         nop
1DFD 00                         nop
1DFE 00                         nop
1DFF 00                         nop
1E00 00                         nop
1E01 00                         nop
1E02 00                         nop
1E03 00                         nop
1E04 00                         nop
1E05 00                         nop
1E06 00                         nop
1E07 00                         nop
1E08 00                         nop
1E09 00                         nop
1E0A 00                         nop
1E0B 00                         nop
1E0C 00                         nop
1E0D 00                         nop
1E0E 00                         nop
1E0F 00                         nop
1E10 00                         nop
1E11 00                         nop
1E12 00                         nop
1E13 00                         nop
1E14 00                         nop
1E15 00                         nop
1E16 00                         nop
1E17 00                         nop
1E18 00                         nop
1E19 00                         nop
1E1A 00                         nop
1E1B 00                         nop
1E1C 00                         nop
1E1D 00                         nop
1E1E 00                         nop
1E1F 00                         nop
1E20 00                         nop
1E21 00                         nop
1E22 00                         nop
1E23 00                         nop
1E24 00                         nop
1E25 00                         nop
1E26 00                         nop
1E27 00                         nop
1E28 00                         nop
1E29 00                         nop
1E2A 00                         nop
1E2B 00                         nop
1E2C 00                         nop
1E2D 00                         nop
1E2E 00                         nop
1E2F 00                         nop
1E30 00                         nop
1E31 00                         nop
1E32 00                         nop
1E33 00                         nop
1E34 00                         nop
1E35 00                         nop
1E36 00                         nop
1E37 00                         nop
1E38 00                         nop
1E39 00                         nop
1E3A 00                         nop
1E3B 00                         nop
1E3C 00                         nop
1E3D 00                         nop
1E3E 00                         nop
1E3F 00                         nop
1E40 00                         nop
1E41 00                         nop
1E42 00                         nop
1E43 00                         nop
1E44 00                         nop
1E45 00                         nop
1E46 00                         nop
1E47 00                         nop
1E48 00                         nop
1E49 00                         nop
1E4A 00                         nop
1E4B 00                         nop
1E4C 00                         nop
1E4D 00                         nop
1E4E 00                         nop
1E4F 00                         nop
1E50 00                         nop
1E51 00                         nop
1E52 00                         nop
1E53 00                         nop
1E54 00                         nop
1E55 00                         nop
1E56 00                         nop
1E57 00                         nop
1E58 00                         nop
1E59 00                         nop
1E5A 00                         nop
1E5B 00                         nop
1E5C 00                         nop
1E5D 00                         nop
1E5E 00                         nop
1E5F 00                         nop
1E60 00                         nop
1E61 00                         nop
1E62 00                         nop
1E63 00                         nop
1E64 00                         nop
1E65 00                         nop
1E66 00                         nop
1E67 00                         nop
1E68 00                         nop
1E69 00                         nop
1E6A 00                         nop
1E6B 00                         nop
1E6C 00                         nop
1E6D 00                         nop
1E6E 00                         nop
1E6F 00                         nop
1E70 00                         nop
1E71 00                         nop
1E72 00                         nop
1E73 00                         nop
1E74 00                         nop
1E75 00                         nop
1E76 00                         nop
1E77 00                         nop
1E78 00                         nop
1E79 00                         nop
1E7A 00                         nop
1E7B 00                         nop
1E7C 00                         nop
1E7D 00                         nop
1E7E 00                         nop
1E7F 00                         nop
1E80 00                         nop
1E81 00                         nop
1E82 00                         nop
1E83 00                         nop
1E84 00                         nop
1E85 00                         nop
1E86 00                         nop
1E87 00                         nop
1E88 00                         nop
1E89 00                         nop
1E8A 00                         nop
1E8B 00                         nop
1E8C 00                         nop
1E8D 00                         nop
1E8E 00                         nop
1E8F 00                         nop
1E90 00                         nop
1E91 00                         nop
1E92 00                         nop
1E93 00                         nop
1E94 00                         nop
1E95 00                         nop
1E96 00                         nop
1E97 00                         nop
1E98 00                         nop
1E99 00                         nop
1E9A 00                         nop
1E9B 00                         nop
1E9C 00                         nop
1E9D 00                         nop
1E9E 00                         nop
1E9F 00                         nop
1EA0 00                         nop
1EA1 00                         nop
1EA2 00                         nop
1EA3 00                         nop
1EA4 00                         nop
1EA5 00                         nop
1EA6 00                         nop
1EA7 00                         nop
1EA8 00                         nop
1EA9 00                         nop
1EAA 00                         nop
1EAB 00                         nop
1EAC 00                         nop
1EAD 00                         nop
1EAE 00                         nop
1EAF 00                         nop
1EB0 00                         nop
1EB1 00                         nop
1EB2 00                         nop
1EB3 00                         nop
1EB4 00                         nop
1EB5 00                         nop
1EB6 00                         nop
1EB7 00                         nop
1EB8 00                         nop
1EB9 00                         nop
1EBA 00                         nop
1EBB 00                         nop
1EBC 00                         nop
1EBD 00                         nop
1EBE 00                         nop
1EBF 00                         nop
1EC0 00                         nop
1EC1 00                         nop
1EC2 00                         nop
1EC3 00                         nop
1EC4 00                         nop
1EC5 00                         nop
1EC6 00                         nop
1EC7 00                         nop
1EC8 00                         nop
1EC9 00                         nop
1ECA 00                         nop
1ECB 00                         nop
1ECC 00                         nop
1ECD 00                         nop
1ECE 00                         nop
1ECF 00                         nop
1ED0 00                         nop
1ED1 00                         nop
1ED2 00                         nop
1ED3 00                         nop
1ED4 00                         nop
1ED5 00                         nop
1ED6 00                         nop
1ED7 00                         nop
1ED8 00                         nop
1ED9 00                         nop
1EDA 00                         nop
1EDB 00                         nop
1EDC 00                         nop
1EDD 00                         nop
1EDE 00                         nop
1EDF 00                         nop
1EE0 00                         nop
1EE1 00                         nop
1EE2 00                         nop
1EE3 00                         nop
1EE4 00                         nop
1EE5 00                         nop
1EE6 00                         nop
1EE7 00                         nop
1EE8 00                         nop
1EE9 00                         nop
1EEA 00                         nop
1EEB 00                         nop
1EEC 00                         nop
1EED 00                         nop
1EEE 00                         nop
1EEF 00                         nop
1EF0 00                         nop
1EF1 00                         nop
1EF2 00                         nop
1EF3 00                         nop
1EF4 00                         nop
1EF5 00                         nop
1EF6 00                         nop
1EF7 00                         nop
1EF8 00                         nop
1EF9 00                         nop
1EFA 00                         nop
1EFB 00                         nop
1EFC 00                         nop
1EFD 00                         nop
1EFE 00                         nop
1EFF 00                         nop
1F00 00                         nop
1F01 00                         nop
1F02 00                         nop
1F03 00                         nop
1F04 00            L1F04:       nop
1F05 00                         nop
1F06 00                         nop
1F07 00                         nop
1F08 00                         nop
1F09 00                         nop
1F0A 00                         nop
1F0B 00                         nop
1F0C 00                         nop
1F0D 00                         nop
1F0E 00                         nop
1F0F 00                         nop
1F10 00                         nop
1F11 00                         nop
1F12 00                         nop
1F13 00                         nop
1F14 00                         nop
1F15 00                         nop
1F16 00                         nop
1F17 00                         nop
1F18 00                         nop
1F19 00                         nop
1F1A 00                         nop
1F1B 00                         nop
1F1C 00                         nop
1F1D 00                         nop
1F1E 00                         nop
1F1F 00                         nop
1F20 00                         nop
1F21 00                         nop
1F22 00                         nop
1F23 00                         nop
1F24 00                         nop
1F25 00                         nop
1F26 00                         nop
1F27 00                         nop
1F28 00                         nop
1F29 00                         nop
1F2A 00                         nop
1F2B 00                         nop
1F2C 00                         nop
1F2D 00                         nop
1F2E 00                         nop
1F2F 00                         nop
1F30 00                         nop
1F31 00                         nop
1F32 00                         nop
1F33 00                         nop
1F34 00                         nop
1F35 00                         nop
1F36 00                         nop
1F37 00                         nop
1F38 00                         nop
1F39 00                         nop
1F3A 00                         nop
1F3B 00                         nop
1F3C 00                         nop
1F3D 00                         nop
1F3E 00                         nop
1F3F 00                         nop
1F40 00                         nop
1F41 00                         nop
1F42 00                         nop
1F43 00                         nop
1F44 00                         nop
1F45 00                         nop
1F46 00                         nop
1F47 00                         nop
1F48 00                         nop
1F49 00                         nop
1F4A 00                         nop
1F4B 00                         nop
1F4C 00                         nop
1F4D 00                         nop
1F4E 00                         nop
1F4F 00                         nop
1F50 00                         nop
1F51 00                         nop
1F52 00                         nop
1F53 00                         nop
1F54 00                         nop
1F55 00                         nop
1F56 00                         nop
1F57 00                         nop
1F58 00                         nop
1F59 00                         nop
1F5A 00                         nop
1F5B 00                         nop
1F5C 00                         nop
1F5D 00                         nop
1F5E 00                         nop
1F5F 00                         nop
1F60 00                         nop
1F61 00                         nop
1F62 00                         nop
1F63 00                         nop
1F64 00                         nop
1F65 00                         nop
1F66 00                         nop
1F67 00                         nop
1F68 00                         nop
1F69 00                         nop
1F6A 00                         nop
1F6B 00                         nop
1F6C 00                         nop
1F6D 00                         nop
1F6E 00                         nop
1F6F 00                         nop
1F70 00                         nop
1F71 00                         nop
1F72 00                         nop
1F73 00                         nop
1F74 00                         nop
1F75 00                         nop
1F76 00                         nop
1F77 00                         nop
1F78 00                         nop
1F79 00                         nop
1F7A 00                         nop
1F7B 00                         nop
1F7C 00                         nop
1F7D 00                         nop
1F7E 00                         nop
1F7F 00                         nop
1F80 00                         nop
1F81 00                         nop
1F82 00                         nop
1F83 00                         nop
1F84 00                         nop
1F85 00                         nop
1F86 00                         nop
1F87 00                         nop
1F88 00                         nop
1F89 00                         nop
1F8A 00                         nop
1F8B 00                         nop
1F8C 00                         nop
1F8D 00                         nop
1F8E 00                         nop
1F8F 00                         nop
1F90 00                         nop
1F91 00                         nop
1F92 00                         nop
1F93 00                         nop
1F94 00                         nop
1F95 00                         nop
1F96 00                         nop
1F97 00                         nop
1F98 00                         nop
1F99 00                         nop
1F9A 00                         nop
1F9B 00                         nop
1F9C 00                         nop
1F9D 00                         nop
1F9E 00                         nop
1F9F 00                         nop
1FA0 00                         nop
1FA1 00                         nop
1FA2 00                         nop
1FA3 00                         nop
1FA4 00                         nop
1FA5 00                         nop
1FA6 00                         nop
1FA7 00                         nop
1FA8 00                         nop
1FA9 00                         nop
1FAA 00                         nop
1FAB 00                         nop
1FAC 00                         nop
1FAD 00                         nop
1FAE 00                         nop
1FAF 00                         nop
1FB0 00                         nop
1FB1 00                         nop
1FB2 00                         nop
1FB3 00                         nop
1FB4 00                         nop
1FB5 00                         nop
1FB6 00                         nop
1FB7 00                         nop
1FB8 00                         nop
1FB9 00                         nop
1FBA 00                         nop
1FBB 00                         nop
1FBC 00                         nop
1FBD 00                         nop
1FBE 00                         nop
1FBF 00                         nop
1FC0 00                         nop
1FC1 00                         nop
1FC2 00                         nop
1FC3 00                         nop
1FC4 00                         nop
1FC5 00                         nop
1FC6 00                         nop
1FC7 00                         nop
1FC8 00                         nop
1FC9 00                         nop
1FCA 00                         nop
1FCB 00                         nop
1FCC 00                         nop
1FCD 00                         nop
1FCE 00                         nop
1FCF 00                         nop
1FD0 00                         nop
1FD1 00                         nop
1FD2 00                         nop
1FD3 00                         nop
1FD4 00                         nop
1FD5 00                         nop
1FD6 00                         nop
1FD7 00                         nop
1FD8 00                         nop
1FD9 00                         nop
1FDA 00                         nop
1FDB 00                         nop
1FDC 00                         nop
1FDD 00                         nop
1FDE 00                         nop
1FDF 00                         nop
1FE0 00                         nop
1FE1 00                         nop
1FE2 00                         nop
1FE3 00                         nop
1FE4 00                         nop
1FE5 00                         nop
1FE6 00                         nop
1FE7 00                         nop
1FE8 00                         nop
1FE9 00                         nop
1FEA 00                         nop
1FEB 00                         nop
1FEC 00                         nop
1FED 00                         nop
1FEE 00                         nop
1FEF 00                         nop
1FF0 00                         nop
1FF1 00                         nop
1FF2 00                         nop
1FF3 00                         nop
1FF4 00                         nop
1FF5 00                         nop
1FF6 00                         nop
1FF7 00                         nop
1FF8 00                         nop
1FF9 00                         nop
1FFA 00                         nop
1FFB 00                         nop
1FFC 00                         nop
1FFD 00                         nop
1FFE 00                         nop
1FFF 00                         nop
2000 00                         nop
2001 00                         nop
2002 00                         nop
2003 00                         nop
2004 00                         nop
2005 00                         nop
2006 00                         nop
2007 00                         nop
2008 00                         nop
2009 00                         nop
200A 00                         nop
200B 00                         nop
200C 00                         nop
200D 00                         nop
200E 00                         nop
200F 00                         nop
2010 00                         nop
2011 00                         nop
2012 00                         nop
2013 00                         nop
2014 00                         nop
2015 00                         nop
2016 00                         nop
2017 00                         nop
2018 00                         nop
2019 00                         nop
201A 00                         nop
201B 00                         nop
201C 00                         nop
201D 00                         nop
201E 00                         nop
201F 00                         nop
2020 00                         nop
2021 00                         nop
2022 00                         nop
2023 00                         nop
2024 00                         nop
2025 00                         nop
2026 00                         nop
2027 00                         nop
2028 00                         nop
2029 00                         nop
202A 00                         nop
202B 00                         nop
202C 00                         nop
202D 00                         nop
202E 00                         nop
202F 00                         nop
2030 00                         nop
2031 00                         nop
2032 00                         nop
2033 00                         nop
2034 00                         nop
2035 00                         nop
2036 00                         nop
2037 00                         nop
2038 00                         nop
2039 00                         nop
203A 00                         nop
203B 00                         nop
203C 00                         nop
203D 00                         nop
203E 00                         nop
203F 00                         nop
2040 00                         nop
2041 00                         nop
2042 00                         nop
2043 00                         nop
2044 00                         nop
2045 00                         nop
2046 00                         nop
2047 00                         nop
2048 00                         nop
2049 00                         nop
204A 00                         nop
204B 00                         nop
204C 00                         nop
204D 00                         nop
204E 00                         nop
204F 00                         nop
2050 00                         nop
2051 00                         nop
2052 00                         nop
2053 00                         nop
2054 00                         nop
2055 00                         nop
2056 00                         nop
2057 00                         nop
2058 00                         nop
2059 00                         nop
205A 00                         nop
205B 00                         nop
205C 00                         nop
205D 00                         nop
205E 00                         nop
205F 00                         nop
2060 00                         nop
2061 00                         nop
2062 00                         nop
2063 00                         nop
2064 00                         nop
2065 00                         nop
2066 00                         nop
2067 00                         nop
2068 00                         nop
2069 00                         nop
206A 00                         nop
206B 00                         nop
206C 00                         nop
206D 00                         nop
206E 00                         nop
206F 00                         nop
2070 00                         nop
2071 00                         nop
2072 00                         nop
2073 00                         nop
2074 00                         nop
2075 00                         nop
2076 00                         nop
2077 00                         nop
2078 00                         nop
2079 00                         nop
207A 00                         nop
207B 00                         nop
207C 00                         nop
207D 00                         nop
207E 00                         nop
207F 00                         nop
2080 00                         nop
2081 00                         nop
2082 00                         nop
2083 00                         nop
2084 00                         nop
2085 00                         nop
2086 00                         nop
2087 00                         nop
2088 00                         nop
2089 00                         nop
208A 00                         nop
208B 00                         nop
208C 00                         nop
208D 00                         nop
208E 00                         nop
208F 00                         nop
2090 00                         nop
2091 00                         nop
2092 00                         nop
2093 00                         nop
2094 00                         nop
2095 00                         nop
2096 00                         nop
2097 00                         nop
2098 00                         nop
2099 00                         nop
209A 00                         nop
209B 00                         nop
209C 00                         nop
209D 00                         nop
209E 00                         nop
209F 00                         nop
20A0 00                         nop
20A1 00                         nop
20A2 00                         nop
20A3 00                         nop
20A4 00                         nop
20A5 00                         nop
20A6 00                         nop
20A7 00                         nop
20A8 00                         nop
20A9 00                         nop
20AA 00                         nop
20AB 00                         nop
20AC 00                         nop
20AD 00                         nop
20AE 00                         nop
20AF 00                         nop
20B0 00                         nop
20B1 00                         nop
20B2 00                         nop
20B3 00                         nop
20B4 00                         nop
20B5 00                         nop
20B6 00                         nop
20B7 00                         nop
20B8 00                         nop
20B9 00                         nop
20BA 00                         nop
20BB 00                         nop
20BC 00                         nop
20BD 00                         nop
20BE 00                         nop
20BF 00                         nop
20C0 00                         nop
20C1 00                         nop
20C2 00                         nop
20C3 00                         nop
20C4 00                         nop
20C5 00                         nop
20C6 00                         nop
20C7 00                         nop
20C8 00                         nop
20C9 00                         nop
20CA 00                         nop
20CB 00                         nop
20CC 00                         nop
20CD 00                         nop
20CE 00                         nop
20CF 00                         nop
20D0 00                         nop
20D1 00                         nop
20D2 00                         nop
20D3 00                         nop
20D4 00                         nop
20D5 00                         nop
20D6 00                         nop
20D7 00                         nop
20D8 00                         nop
20D9 00                         nop
20DA 00                         nop
20DB 00                         nop
20DC 00                         nop
20DD 00                         nop
20DE 00                         nop
20DF 00                         nop
20E0 00                         nop
20E1 00                         nop
20E2 00                         nop
20E3 00                         nop
20E4 00                         nop
20E5 00                         nop
20E6 00                         nop
20E7 00                         nop
20E8 00                         nop
20E9 00                         nop
20EA 00                         nop
20EB 00                         nop
20EC 00                         nop
20ED 00                         nop
20EE 00                         nop
20EF 00                         nop
20F0 00                         nop
20F1 00                         nop
20F2 00                         nop
20F3 00                         nop
20F4 00                         nop
20F5 00                         nop
20F6 00                         nop
20F7 00                         nop
20F8 00                         nop
20F9 00                         nop
20FA 00                         nop
20FB 00                         nop
20FC 00                         nop
20FD 00                         nop
20FE 00                         nop
20FF 00                         nop
2100 00                         nop
2101 00                         nop
2102 00                         nop
2103 00                         nop
2104 00                         nop
2105 00                         nop
2106 00                         nop
2107 00                         nop
2108 00                         nop
2109 00                         nop
210A 00                         nop
210B 00                         nop
210C 00                         nop
210D 00                         nop
210E 00                         nop
210F 00                         nop
2110 00                         nop
2111 00                         nop
2112 00                         nop
2113 00                         nop
2114 00                         nop
2115 00                         nop
2116 00                         nop
2117 00                         nop
2118 00                         nop
2119 00                         nop
211A 00                         nop
211B 00                         nop
211C 00                         nop
211D 00                         nop
211E 00                         nop
211F 00                         nop
2120 00                         nop
2121 00                         nop
2122 00                         nop
2123 00                         nop
2124 00                         nop
2125 00                         nop
2126 00                         nop
2127 00                         nop
2128 00                         nop
2129 00                         nop
212A 00                         nop
212B 00                         nop
212C 00                         nop
212D 00                         nop
212E 00                         nop
212F 00                         nop
2130 00                         nop
2131 00                         nop
2132 00                         nop
2133 00                         nop
2134 00                         nop
2135 00                         nop
2136 00                         nop
2137 00                         nop
2138 00                         nop
2139 00                         nop
213A 00                         nop
213B 00                         nop
213C 00                         nop
213D 00                         nop
213E 00                         nop
213F 00                         nop
2140 00                         nop
2141 00                         nop
2142 00                         nop
2143 00                         nop
2144 00                         nop
2145 00                         nop
2146 00                         nop
2147 00                         nop
2148 00                         nop
2149 00                         nop
214A 00                         nop
214B 00                         nop
214C 00                         nop
214D 00                         nop
214E 00                         nop
214F 00                         nop
2150 00                         nop
2151 00                         nop
2152 00                         nop
2153 00                         nop
2154 00                         nop
2155 00                         nop
2156 00                         nop
2157 00                         nop
2158 00                         nop
2159 00                         nop
215A 00                         nop
215B 00                         nop
215C 00                         nop
215D 00                         nop
215E 00                         nop
215F 00                         nop
2160 00                         nop
2161 00                         nop
2162 00                         nop
2163 00                         nop
2164 00                         nop
2165 00                         nop
2166 00                         nop
2167 00                         nop
2168 00                         nop
2169 00                         nop
216A 00                         nop
216B 00                         nop
216C 00                         nop
216D 00                         nop
216E 00                         nop
216F 00                         nop
2170 00                         nop
2171 00                         nop
2172 00                         nop
2173 00                         nop
2174 00                         nop
2175 00                         nop
2176 00                         nop
2177 00                         nop
2178 00                         nop
2179 00                         nop
217A 00                         nop
217B 00                         nop
217C 00                         nop
217D 00                         nop
217E 00                         nop
217F 00                         nop
2180 00                         nop
2181 00                         nop
2182 00                         nop
2183 00                         nop
2184 00                         nop
2185 00                         nop
2186 00                         nop
2187 00                         nop
2188 00                         nop
2189 00                         nop
218A 00                         nop
218B 00                         nop
218C 00                         nop
218D 00                         nop
218E 00                         nop
218F 00                         nop
2190 00                         nop
2191 00                         nop
2192 00                         nop
2193 00                         nop
2194 00                         nop
2195 00                         nop
2196 00                         nop
2197 00                         nop
2198 00                         nop
2199 00                         nop
219A 00                         nop
219B 00                         nop
219C 00                         nop
219D 00                         nop
219E 00                         nop
219F 00                         nop
21A0 00                         nop
21A1 00                         nop
21A2 00                         nop
21A3 00                         nop
21A4 00                         nop
21A5 00                         nop
21A6 00                         nop
21A7 00                         nop
21A8 00                         nop
21A9 00                         nop
21AA 00                         nop
21AB 00                         nop
21AC 00                         nop
21AD 00                         nop
21AE 00                         nop
21AF 00                         nop
21B0 00                         nop
21B1 00                         nop
21B2 00                         nop
21B3 00                         nop
21B4 00                         nop
21B5 00                         nop
21B6 00                         nop
21B7 00                         nop
21B8 00                         nop
21B9 00                         nop
21BA 00                         nop
21BB 00                         nop
21BC 00                         nop
21BD 00                         nop
21BE 00                         nop
21BF 00                         nop
21C0 00                         nop
21C1 00                         nop
21C2 00                         nop
21C3 00                         nop
21C4 00                         nop
21C5 00                         nop
21C6 00                         nop
21C7 00                         nop
21C8 00                         nop
21C9 00                         nop
21CA 00                         nop
21CB 00                         nop
21CC 00                         nop
21CD 00                         nop
21CE 00                         nop
21CF 00                         nop
21D0 00                         nop
21D1 00                         nop
21D2 00                         nop
21D3 00                         nop
21D4 00                         nop
21D5 00                         nop
21D6 00                         nop
21D7 00                         nop
21D8 00                         nop
21D9 00                         nop
21DA 00                         nop
21DB 00                         nop
21DC 00                         nop
21DD 00                         nop
21DE 00                         nop
21DF 00                         nop
21E0 00                         nop
21E1 00                         nop
21E2 00                         nop
21E3 00                         nop
21E4 00                         nop
21E5 00                         nop
21E6 00                         nop
21E7 00                         nop
21E8 00                         nop
21E9 00                         nop
21EA 00                         nop
21EB 00                         nop
21EC 00                         nop
21ED 00                         nop
21EE 00                         nop
21EF 00                         nop
21F0 00                         nop
21F1 00                         nop
21F2 00                         nop
21F3 00                         nop
21F4 00                         nop
21F5 00                         nop
21F6 00                         nop
21F7 00                         nop
21F8 00                         nop
21F9 00                         nop
21FA 00                         nop
21FB 00                         nop
21FC 00                         nop
21FD 00                         nop
21FE 00                         nop
21FF 00                         nop
2200 00                         nop
2201 00                         nop
2202 00                         nop
2203 00                         nop
2204 00                         nop
2205 00                         nop
2206 00                         nop
2207 00                         nop
2208 00                         nop
2209 00                         nop
220A 00                         nop
220B 00                         nop
220C 00                         nop
220D 00                         nop
220E 00                         nop
220F 00                         nop
2210 00                         nop
2211 00                         nop
2212 00                         nop
2213 00                         nop
2214 00                         nop
2215 00                         nop
2216 00                         nop
2217 00                         nop
2218 00                         nop
2219 00                         nop
221A 00                         nop
221B 00                         nop
221C 00                         nop
221D 00                         nop
221E 00                         nop
221F 00                         nop
2220 00                         nop
2221 00                         nop
2222 00                         nop
2223 00                         nop
2224 00                         nop
2225 00                         nop
2226 00                         nop
2227 00                         nop
2228 00                         nop
2229 00                         nop
222A 00                         nop
222B 00                         nop
222C 00                         nop
222D 00                         nop
222E 00                         nop
222F 00                         nop
2230 00                         nop
2231 00                         nop
2232 00                         nop
2233 00                         nop
2234 00                         nop
2235 00                         nop
2236 00                         nop
2237 00                         nop
2238 00                         nop
2239 00                         nop
223A 00                         nop
223B 00                         nop
223C 00                         nop
223D 00                         nop
223E 00                         nop
223F 00                         nop
2240 00                         nop
2241 00                         nop
2242 00                         nop
2243 00                         nop
2244 00                         nop
2245 00                         nop
2246 00                         nop
2247 00                         nop
2248 00                         nop
2249 00                         nop
224A 00                         nop
224B 00                         nop
224C 00                         nop
224D 00                         nop
224E 00                         nop
224F 00                         nop
2250 00                         nop
2251 00                         nop
2252 00                         nop
2253 00                         nop
2254 00                         nop
2255 00                         nop
2256 00                         nop
2257 00                         nop
2258 00                         nop
2259 00                         nop
225A 00                         nop
225B 00                         nop
225C 00                         nop
225D 00                         nop
225E 00                         nop
225F 00                         nop
2260 00                         nop
2261 00                         nop
2262 00                         nop
2263 00                         nop
2264 00                         nop
2265 00                         nop
2266 00                         nop
2267 00                         nop
2268 00                         nop
2269 00                         nop
226A 00                         nop
226B 00                         nop
226C 00                         nop
226D 00                         nop
226E 00                         nop
226F 00                         nop
2270 00                         nop
2271 00                         nop
2272 00                         nop
2273 00                         nop
2274 00                         nop
2275 00                         nop
2276 00                         nop
2277 00                         nop
2278 00                         nop
2279 00                         nop
227A 00                         nop
227B 00                         nop
227C 00                         nop
227D 00                         nop
227E 00                         nop
227F 00                         nop
2280 00                         nop
2281 00                         nop
2282 00                         nop
2283 00                         nop
2284 00                         nop
2285 00                         nop
2286 00                         nop
2287 00                         nop
2288 00                         nop
2289 00                         nop
228A 00                         nop
228B 00                         nop
228C 00                         nop
228D 00                         nop
228E 00                         nop
228F 00                         nop
2290 00                         nop
2291 00                         nop
2292 00                         nop
2293 00                         nop
2294 00                         nop
2295 00                         nop
2296 00                         nop
2297 00                         nop
2298 00                         nop
2299 00                         nop
229A 00                         nop
229B 00                         nop
229C 00                         nop
229D 00                         nop
229E 00                         nop
229F 00                         nop
22A0 00                         nop
22A1 00                         nop
22A2 00                         nop
22A3 00                         nop
22A4 00                         nop
22A5 00                         nop
22A6 00                         nop
22A7 00                         nop
22A8 00                         nop
22A9 00                         nop
22AA 00                         nop
22AB 00                         nop
22AC 00                         nop
22AD 00                         nop
22AE 00                         nop
22AF 00                         nop
22B0 00                         nop
22B1 00                         nop
22B2 00                         nop
22B3 00                         nop
22B4 00                         nop
22B5 00                         nop
22B6 00                         nop
22B7 00                         nop
22B8 00                         nop
22B9 00                         nop
22BA 00                         nop
22BB 00                         nop
22BC 00                         nop
22BD 00                         nop
22BE 00                         nop
22BF 00                         nop
22C0 00                         nop
22C1 00                         nop
22C2 00                         nop
22C3 00                         nop
22C4 00                         nop
22C5 00                         nop
22C6 00                         nop
22C7 00                         nop
22C8 00                         nop
22C9 00                         nop
22CA 00                         nop
22CB 00                         nop
22CC 00                         nop
22CD 00                         nop
22CE 00                         nop
22CF 00                         nop
22D0 00                         nop
22D1 00                         nop
22D2 00                         nop
22D3 00                         nop
22D4 00                         nop
22D5 00                         nop
22D6 00                         nop
22D7 00                         nop
22D8 00                         nop
22D9 00                         nop
22DA 00                         nop
22DB 00                         nop
22DC 00                         nop
22DD 00                         nop
22DE 00                         nop
22DF 00                         nop
22E0 00                         nop
22E1 00                         nop
22E2 00                         nop
22E3 00                         nop
22E4 00                         nop
22E5 00                         nop
22E6 00                         nop
22E7 00                         nop
22E8 00                         nop
22E9 00                         nop
22EA 00                         nop
22EB 00                         nop
22EC 00                         nop
22ED 00                         nop
22EE 00                         nop
22EF 00                         nop
22F0 00                         nop
22F1 00                         nop
22F2 00                         nop
22F3 00                         nop
22F4 00                         nop
22F5 00                         nop
22F6 00                         nop
22F7 00                         nop
22F8 00                         nop
22F9 00                         nop
22FA 00                         nop
22FB 00                         nop
22FC 00                         nop
22FD 00                         nop
22FE 00                         nop
22FF 00                         nop
2300 00                         nop
2301 00                         nop
2302 00                         nop
2303 00                         nop
2304 00                         nop
2305 00                         nop
2306 00                         nop
2307 00                         nop
2308 00                         nop
2309 00                         nop
230A 00                         nop
230B 00                         nop
230C 00                         nop
230D 00                         nop
230E 00                         nop
230F 00                         nop
2310 00                         nop
2311 00                         nop
2312 00                         nop
2313 00                         nop
2314 00                         nop
2315 00                         nop
2316 00                         nop
2317 00                         nop
2318 00                         nop
2319 00                         nop
231A 00                         nop
231B 00                         nop
231C 00                         nop
231D 00                         nop
231E 00                         nop
231F 00                         nop
2320 00                         nop
2321 00                         nop
2322 00                         nop
2323 00                         nop
2324 00                         nop
2325 00                         nop
2326 00                         nop
2327 00                         nop
2328 00                         nop
2329 00                         nop
232A 00                         nop
232B 00                         nop
232C 00                         nop
232D 00                         nop
232E 00                         nop
232F 00                         nop
2330 00                         nop
2331 00                         nop
2332 00                         nop
2333 00                         nop
2334 00                         nop
2335 00                         nop
2336 00                         nop
2337 00                         nop
2338 00                         nop
2339 00                         nop
233A 00                         nop
233B 00                         nop
233C 00                         nop
233D 00                         nop
233E 00                         nop
233F 00                         nop
2340 00                         nop
2341 00                         nop
2342 00                         nop
2343 00                         nop
2344 00                         nop
2345 00                         nop
2346 00                         nop
2347 00                         nop
2348 00                         nop
2349 00                         nop
234A 00                         nop
234B 00                         nop
234C 00                         nop
234D 00                         nop
234E 00                         nop
234F 00                         nop
2350 00                         nop
2351 00                         nop
2352 00                         nop
2353 00                         nop
2354 00                         nop
2355 00                         nop
2356 00                         nop
2357 00                         nop
2358 00                         nop
2359 00                         nop
235A 00                         nop
235B 00                         nop
235C 00                         nop
235D 00                         nop
235E 00                         nop
235F 00                         nop
2360 00                         nop
2361 00                         nop
2362 00                         nop
2363 00                         nop
2364 00                         nop
2365 00                         nop
2366 00                         nop
2367 00                         nop
2368 00                         nop
2369 00                         nop
236A 00                         nop
236B 00                         nop
236C 00                         nop
236D 00                         nop
236E 00                         nop
236F 00                         nop
2370 00                         nop
2371 00                         nop
2372 00                         nop
2373 00                         nop
2374 00                         nop
2375 00                         nop
2376 00                         nop
2377 00                         nop
2378 00                         nop
2379 00                         nop
237A 00                         nop
237B 00                         nop
237C 00                         nop
237D 00                         nop
237E 00                         nop
237F 00                         nop
2380 00                         nop
2381 00                         nop
2382 00                         nop
2383 00                         nop
2384 00                         nop
2385 00                         nop
2386 00                         nop
2387 00                         nop
2388 00                         nop
2389 00                         nop
238A 00                         nop
238B 00                         nop
238C 00                         nop
238D 00                         nop
238E 00                         nop
238F 00                         nop
2390 00                         nop
2391 00                         nop
2392 00                         nop
2393 00                         nop
2394 00                         nop
2395 00                         nop
2396 00                         nop
2397 00                         nop
2398 00                         nop
2399 00                         nop
239A 00                         nop
239B 00                         nop
239C 00                         nop
239D 00                         nop
239E 00                         nop
239F 00                         nop
23A0 00                         nop
23A1 00                         nop
23A2 00                         nop
23A3 00                         nop
23A4 00                         nop
23A5 00                         nop
23A6 00                         nop
23A7 00                         nop
23A8 00                         nop
23A9 00                         nop
23AA 00                         nop
23AB 00                         nop
23AC 00                         nop
23AD 00                         nop
23AE 00                         nop
23AF 00                         nop
23B0 00                         nop
23B1 00                         nop
23B2 00                         nop
23B3 00                         nop
23B4 00                         nop
23B5 00                         nop
23B6 00                         nop
23B7 00                         nop
23B8 00                         nop
23B9 00                         nop
23BA 00                         nop
23BB 00                         nop
23BC 00                         nop
23BD 00                         nop
23BE 00                         nop
23BF 00                         nop
23C0 00                         nop
23C1 00                         nop
23C2 00                         nop
23C3 00                         nop
23C4 00                         nop
23C5 00                         nop
23C6 00                         nop
23C7 00                         nop
23C8 00                         nop
23C9 00                         nop
23CA 00                         nop
23CB 00                         nop
23CC 00                         nop
23CD 00                         nop
23CE 00                         nop
23CF 00                         nop
23D0 00                         nop
23D1 00                         nop
23D2 00                         nop
23D3 00                         nop
23D4 00                         nop
23D5 00                         nop
23D6 00                         nop
23D7 00                         nop
23D8 00                         nop
23D9 00                         nop
23DA 00                         nop
23DB 00                         nop
23DC 00                         nop
23DD 00                         nop
23DE 00                         nop
23DF 00                         nop
23E0 00                         nop
23E1 00                         nop
23E2 00                         nop
23E3 00                         nop
23E4 00                         nop
23E5 00                         nop
23E6 00                         nop
23E7 00                         nop
23E8 00                         nop
23E9 00                         nop
23EA 00                         nop
23EB 00                         nop
23EC 00                         nop
23ED 00                         nop
23EE 00                         nop
23EF 00                         nop
23F0 00                         nop
23F1 00                         nop
23F2 00                         nop
23F3 00                         nop
23F4 00                         nop
23F5 00                         nop
23F6 00                         nop
23F7 00                         nop
23F8 00                         nop
23F9 00                         nop
23FA 00                         nop
23FB 00                         nop
23FC 00                         nop
23FD 00                         nop
23FE 00                         nop
23FF 00                         nop
2400 00                         nop
2401 00                         nop
2402 00                         nop
2403 00                         nop
2404 00                         nop
2405 00                         nop
2406 00                         nop
2407 00                         nop
2408 00                         nop
2409 00                         nop
240A 00                         nop
240B 00                         nop
240C 00                         nop
240D 00                         nop
240E 00                         nop
240F 00                         nop
2410 00                         nop
2411 00                         nop
2412 00                         nop
2413 00                         nop
2414 00                         nop
2415 00                         nop
2416 00                         nop
2417 00                         nop
2418 00                         nop
2419 00                         nop
241A 00                         nop
241B 00                         nop
241C 00                         nop
241D 00                         nop
241E 00                         nop
241F 00                         nop
2420 00                         nop
2421 00                         nop
2422 00                         nop
2423 00                         nop
2424 00                         nop
2425 00                         nop
2426 00                         nop
2427 00                         nop
2428 00                         nop
2429 00                         nop
242A 00                         nop
242B 00                         nop
242C 00                         nop
242D 00                         nop
242E 00                         nop
242F 00                         nop
2430 00                         nop
2431 00                         nop
2432 00                         nop
2433 00                         nop
2434 00                         nop
2435 00                         nop
2436 00                         nop
2437 00                         nop
2438 00                         nop
2439 00                         nop
243A 00                         nop
243B 00                         nop
243C 00                         nop
243D 00                         nop
243E 00                         nop
243F 00                         nop
2440 00                         nop
2441 00                         nop
2442 00                         nop
2443 00                         nop
2444 00                         nop
2445 00                         nop
2446 00                         nop
2447 00                         nop
2448 00                         nop
2449 00                         nop
244A 00                         nop
244B 00                         nop
244C 00                         nop
244D 00                         nop
244E 00                         nop
244F 00                         nop
2450 00                         nop
2451 00                         nop
2452 00                         nop
2453 00                         nop
2454 00                         nop
2455 00                         nop
2456 00                         nop
2457 00                         nop
2458 00                         nop
2459 00                         nop
245A 00                         nop
245B 00                         nop
245C 00                         nop
245D 00                         nop
245E 00                         nop
245F 00                         nop
2460 00                         nop
2461 00                         nop
2462 00                         nop
2463 00                         nop
2464 00                         nop
2465 00                         nop
2466 00                         nop
2467 00                         nop
2468 00                         nop
2469 00                         nop
246A 00                         nop
246B 00                         nop
246C 00                         nop
246D 00                         nop
246E 00                         nop
246F 00                         nop
2470 00                         nop
2471 00                         nop
2472 00                         nop
2473 00                         nop
2474 00                         nop
2475 00                         nop
2476 00                         nop
2477 00                         nop
2478 00                         nop
2479 00                         nop
247A 00                         nop
247B 00                         nop
247C 00                         nop
247D 00                         nop
247E 00                         nop
247F 00                         nop
2480 00                         nop
2481 00                         nop
2482 00                         nop
2483 00                         nop
2484 00                         nop
2485 00                         nop
2486 00                         nop
2487 00                         nop
2488 00                         nop
2489 00                         nop
248A 00                         nop
248B 00                         nop
248C 00                         nop
248D 00                         nop
248E 00                         nop
248F 00                         nop
2490 00                         nop
2491 00                         nop
2492 00                         nop
2493 00                         nop
2494 00                         nop
2495 00                         nop
2496 00                         nop
2497 00                         nop
2498 00                         nop
2499 00                         nop
249A 00                         nop
249B 00                         nop
249C 00                         nop
249D 00                         nop
249E 00                         nop
249F 00                         nop
24A0 00                         nop
24A1 00                         nop
24A2 00                         nop
24A3 00                         nop
24A4 00                         nop
24A5 00                         nop
24A6 00                         nop
24A7 00                         nop
24A8 00                         nop
24A9 00                         nop
24AA 00                         nop
24AB 00                         nop
24AC 00                         nop
24AD 00                         nop
24AE 00                         nop
24AF 00                         nop
24B0 00                         nop
24B1 00                         nop
24B2 00                         nop
24B3 00                         nop
24B4 00                         nop
24B5 00                         nop
24B6 00                         nop
24B7 00                         nop
24B8 00                         nop
24B9 00                         nop
24BA 00                         nop
24BB 00                         nop
24BC 00                         nop
24BD 00                         nop
24BE 00                         nop
24BF 00                         nop
24C0 00                         nop
24C1 00                         nop
24C2 00                         nop
24C3 00                         nop
24C4 00                         nop
24C5 00                         nop
24C6 00                         nop
24C7 00                         nop
24C8 00                         nop
24C9 00                         nop
24CA 00                         nop
24CB 00                         nop
24CC 00                         nop
24CD 00                         nop
24CE 00                         nop
24CF 00                         nop
24D0 00                         nop
24D1 00                         nop
24D2 00                         nop
24D3 00                         nop
24D4 00                         nop
24D5 00                         nop
24D6 00                         nop
24D7 00                         nop
24D8 00                         nop
24D9 00                         nop
24DA 00                         nop
24DB 00                         nop
24DC 00                         nop
24DD 00                         nop
24DE 00                         nop
24DF 00                         nop
24E0 00                         nop
24E1 00                         nop
24E2 00                         nop
24E3 00                         nop
24E4 00                         nop
24E5 00                         nop
24E6 00                         nop
24E7 00                         nop
24E8 00                         nop
24E9 00                         nop
24EA 00                         nop
24EB 00                         nop
24EC 00                         nop
24ED 00                         nop
24EE 00                         nop
24EF 00                         nop
24F0 00                         nop
24F1 00                         nop
24F2 00                         nop
24F3 00                         nop
24F4 00                         nop
24F5 00                         nop
24F6 00                         nop
24F7 00                         nop
24F8 00                         nop
24F9 00                         nop
24FA 00                         nop
24FB 00                         nop
24FC 00                         nop
24FD 00                         nop
24FE 00                         nop
24FF 00                         nop
2500 00                         nop
2501 00                         nop
2502 00                         nop
2503 00                         nop
2504 00                         nop
2505 00                         nop
2506 00                         nop
2507 00                         nop
2508 00                         nop
2509 00                         nop
250A 00                         nop
250B 00                         nop
250C 00                         nop
250D 00                         nop
250E 00                         nop
250F 00                         nop
2510 00                         nop
2511 00                         nop
2512 00                         nop
2513 00                         nop
2514 00                         nop
2515 00                         nop
2516 00                         nop
2517 00                         nop
2518 00                         nop
2519 00                         nop
251A 00                         nop
251B 00                         nop
251C 00                         nop
251D 00                         nop
251E 00                         nop
251F 00                         nop
2520 00                         nop
2521 00                         nop
2522 00                         nop
2523 00                         nop
2524 00                         nop
2525 00                         nop
2526 00                         nop
2527 00                         nop
2528 00                         nop
2529 00                         nop
252A 00                         nop
252B 00                         nop
252C 00                         nop
252D 00                         nop
252E 00                         nop
252F 00                         nop
2530 00                         nop
2531 00                         nop
2532 00                         nop
2533 00                         nop
2534 00                         nop
2535 00                         nop
2536 00                         nop
2537 00                         nop
2538 00                         nop
2539 00                         nop
253A 00                         nop
253B 00                         nop
253C 00                         nop
253D 00                         nop
253E 00                         nop
253F 00                         nop
2540 00                         nop
2541 00                         nop
2542 00                         nop
2543 00                         nop
2544 00                         nop
2545 00                         nop
2546 00                         nop
2547 00                         nop
2548 00                         nop
2549 00                         nop
254A 00                         nop
254B 00                         nop
254C 00                         nop
254D 00                         nop
254E 00                         nop
254F 00                         nop
2550 00                         nop
2551 00                         nop
2552 00                         nop
2553 00                         nop
2554 00                         nop
2555 00                         nop
2556 00                         nop
2557 00                         nop
2558 00                         nop
2559 00                         nop
255A 00                         nop
255B 00                         nop
255C 00                         nop
255D 00                         nop
255E 00                         nop
255F 00                         nop
2560 00                         nop
2561 00                         nop
2562 00                         nop
2563 00                         nop
2564 00                         nop
2565 00                         nop
2566 00                         nop
2567 00                         nop
2568 00                         nop
2569 00                         nop
256A 00                         nop
256B 00                         nop
256C 00                         nop
256D 00                         nop
256E 00                         nop
256F 00                         nop
2570 00                         nop
2571 00                         nop
2572 00                         nop
2573 00                         nop
2574 00                         nop
2575 00                         nop
2576 00                         nop
2577 00                         nop
2578 00                         nop
2579 00                         nop
257A 00                         nop
257B 00                         nop
257C 00                         nop
257D 00                         nop
257E 00                         nop
257F 00                         nop
2580 00                         nop
2581 00                         nop
2582 00                         nop
2583 00                         nop
2584 00                         nop
2585 00                         nop
2586 00                         nop
2587 00                         nop
2588 00                         nop
2589 00                         nop
258A 00                         nop
258B 00                         nop
258C 00                         nop
258D 00                         nop
258E 00                         nop
258F 00                         nop
2590 00                         nop
2591 00                         nop
2592 00                         nop
2593 00                         nop
2594 00                         nop
2595 00                         nop
2596 00                         nop
2597 00                         nop
2598 00                         nop
2599 00                         nop
259A 00                         nop
259B 00                         nop
259C 00                         nop
259D 00                         nop
259E 00                         nop
259F 00                         nop
25A0 00                         nop
25A1 00                         nop
25A2 00                         nop
25A3 00                         nop
25A4 00                         nop
25A5 00                         nop
25A6 00                         nop
25A7 00                         nop
25A8 00                         nop
25A9 00                         nop
25AA 00                         nop
25AB 00                         nop
25AC 00                         nop
25AD 00                         nop
25AE 00                         nop
25AF 00                         nop
25B0 00                         nop
25B1 00                         nop
25B2 00                         nop
25B3 00                         nop
25B4 00                         nop
25B5 00                         nop
25B6 00                         nop
25B7 00                         nop
25B8 00                         nop
25B9 00                         nop
25BA 00                         nop
25BB 00                         nop
25BC 00                         nop
25BD 00                         nop
25BE 00                         nop
25BF 00                         nop
25C0 00                         nop
25C1 00                         nop
25C2 00                         nop
25C3 00                         nop
25C4 00                         nop
25C5 00                         nop
25C6 00                         nop
25C7 00                         nop
25C8 00                         nop
25C9 00                         nop
25CA 00                         nop
25CB 00                         nop
25CC 00                         nop
25CD 00                         nop
25CE 00                         nop
25CF 00                         nop
25D0 00                         nop
25D1 00                         nop
25D2 00                         nop
25D3 00                         nop
25D4 00                         nop
25D5 00                         nop
25D6 00                         nop
25D7 00                         nop
25D8 00                         nop
25D9 00                         nop
25DA 00                         nop
25DB 00                         nop
25DC 00                         nop
25DD 00                         nop
25DE 00                         nop
25DF 00                         nop
25E0 00                         nop
25E1 00                         nop
25E2 00                         nop
25E3 00                         nop
25E4 00                         nop
25E5 00                         nop
25E6 00                         nop
25E7 00                         nop
25E8 00                         nop
25E9 00                         nop
25EA 00                         nop
25EB 00                         nop
25EC 00                         nop
25ED 00                         nop
25EE 00                         nop
25EF 00                         nop
25F0 00                         nop
25F1 00                         nop
25F2 00                         nop
25F3 00                         nop
25F4 00                         nop
25F5 00                         nop
25F6 00                         nop
25F7 00                         nop
25F8 00                         nop
25F9 00                         nop
25FA 00                         nop
25FB 00                         nop
25FC 00                         nop
25FD 00                         nop
25FE 00                         nop
25FF 00                         nop
2600 00                         nop
2601 00                         nop
2602 00                         nop
2603 00                         nop
2604 00                         nop
2605 00                         nop
2606 00                         nop
2607 00                         nop
2608 00                         nop
2609 00                         nop
260A 00                         nop
260B 00                         nop
260C 00                         nop
260D 00                         nop
260E 00                         nop
260F 00                         nop
2610 00                         nop
2611 00                         nop
2612 00                         nop
2613 00                         nop
2614 00                         nop
2615 00                         nop
2616 00                         nop
2617 00                         nop
2618 00                         nop
2619 00                         nop
261A 00                         nop
261B 00                         nop
261C 00                         nop
261D 00                         nop
261E 00                         nop
261F 00                         nop
2620 00                         nop
2621 00                         nop
2622 00                         nop
2623 00                         nop
2624 00                         nop
2625 00                         nop
2626 00                         nop
2627 00                         nop
2628 00                         nop
2629 00                         nop
262A 00                         nop
262B 00                         nop
262C 00                         nop
262D 00                         nop
262E 00                         nop
262F 00                         nop
2630 00                         nop
2631 00                         nop
2632 00                         nop
2633 00                         nop
2634 00                         nop
2635 00                         nop
2636 00                         nop
2637 00                         nop
2638 00                         nop
2639 00                         nop
263A 00                         nop
263B 00                         nop
263C 00                         nop
263D 00                         nop
263E 00                         nop
263F 00                         nop
2640 00                         nop
2641 00                         nop
2642 00                         nop
2643 00                         nop
2644 00                         nop
2645 00                         nop
2646 00                         nop
2647 00                         nop
2648 00                         nop
2649 00                         nop
264A 00                         nop
264B 00                         nop
264C 00                         nop
264D 00                         nop
264E 00                         nop
264F 00                         nop
2650 00                         nop
2651 00                         nop
2652 00                         nop
2653 00                         nop
2654 00                         nop
2655 00                         nop
2656 00                         nop
2657 00                         nop
2658 00                         nop
2659 00                         nop
265A 00                         nop
265B 00                         nop
265C 00                         nop
265D 00                         nop
265E 00                         nop
265F 00                         nop
2660 00                         nop
2661 00                         nop
2662 00                         nop
2663 00                         nop
2664 00                         nop
2665 00                         nop
2666 00                         nop
2667 00                         nop
2668 00                         nop
2669 00                         nop
266A 00                         nop
266B 00                         nop
266C 00                         nop
266D 00                         nop
266E 00                         nop
266F 00                         nop
2670 00                         nop
2671 00                         nop
2672 00                         nop
2673 00                         nop
2674 00                         nop
2675 00                         nop
2676 00                         nop
2677 00                         nop
2678 00                         nop
2679 00                         nop
267A 00                         nop
267B 00                         nop
267C 00                         nop
267D 00                         nop
267E 00                         nop
267F 00                         nop
2680 00                         nop
2681 00                         nop
2682 00                         nop
2683 00                         nop
2684 00                         nop
2685 00                         nop
2686 00                         nop
2687 00                         nop
2688 00                         nop
2689 00                         nop
268A 00                         nop
268B 00                         nop
268C 00                         nop
268D 00                         nop
268E 00                         nop
268F 00                         nop
2690 00                         nop
2691 00                         nop
2692 00                         nop
2693 00                         nop
2694 00                         nop
2695 00                         nop
2696 00                         nop
2697 00                         nop
2698 00                         nop
2699 00                         nop
269A 00                         nop
269B 00                         nop
269C 00                         nop
269D 00                         nop
269E 00                         nop
269F 00                         nop
26A0 00                         nop
26A1 00                         nop
26A2 00                         nop
26A3 00                         nop
26A4 00                         nop
26A5 00                         nop
26A6 00                         nop
26A7 00                         nop
26A8 00                         nop
26A9 00                         nop
26AA 00                         nop
26AB 00                         nop
26AC 00                         nop
26AD 00                         nop
26AE 00                         nop
26AF 00                         nop
26B0 00                         nop
26B1 00                         nop
26B2 00                         nop
26B3 00                         nop
26B4 00                         nop
26B5 00                         nop
26B6 00                         nop
26B7 00                         nop
26B8 00                         nop
26B9 00                         nop
26BA 00                         nop
26BB 00                         nop
26BC 00                         nop
26BD 00                         nop
26BE 00                         nop
26BF 00                         nop
26C0 00                         nop
26C1 00                         nop
26C2 00                         nop
26C3 00                         nop
26C4 00                         nop
26C5 00                         nop
26C6 00                         nop
26C7 00                         nop
26C8 00                         nop
26C9 00                         nop
26CA 00                         nop
26CB 00                         nop
26CC 00                         nop
26CD 00                         nop
26CE 00                         nop
26CF 00                         nop
26D0 00                         nop
26D1 00                         nop
26D2 00                         nop
26D3 00                         nop
26D4 00                         nop
26D5 00                         nop
26D6 00                         nop
26D7 00                         nop
26D8 00                         nop
26D9 00                         nop
26DA 00                         nop
26DB 00                         nop
26DC 00                         nop
26DD 00                         nop
26DE 00                         nop
26DF 00                         nop
26E0 00                         nop
26E1 00                         nop
26E2 00                         nop
26E3 00                         nop
26E4 00                         nop
26E5 00                         nop
26E6 00                         nop
26E7 00                         nop
26E8 00                         nop
26E9 00                         nop
26EA 00                         nop
26EB 00                         nop
26EC 00                         nop
26ED 00                         nop
26EE 00                         nop
26EF 00                         nop
26F0 00                         nop
26F1 00                         nop
26F2 00                         nop
26F3 00                         nop
26F4 00                         nop
26F5 00                         nop
26F6 00                         nop
26F7 00                         nop
26F8 00                         nop
26F9 00                         nop
26FA 00                         nop
26FB 00                         nop
26FC 00                         nop
26FD 00                         nop
26FE 00                         nop
26FF 00                         nop
2700 00                         nop
2701 00                         nop
2702 00                         nop
2703 00                         nop
2704 00                         nop
2705 00                         nop
2706 00                         nop
2707 00                         nop
2708 00                         nop
2709 00                         nop
270A 00                         nop
270B 00                         nop
270C 00                         nop
270D 00                         nop
270E 00                         nop
270F 00                         nop
2710 00                         nop
2711 00                         nop
2712 00                         nop
2713 00                         nop
2714 00                         nop
2715 00                         nop
2716 00                         nop
2717 00                         nop
2718 00                         nop
2719 00                         nop
271A 00                         nop
271B 00                         nop
271C 00                         nop
271D 00                         nop
271E 00                         nop
271F 00                         nop
2720 00                         nop
2721 00                         nop
2722 00                         nop
2723 00                         nop
2724 00                         nop
2725 00                         nop
2726 00                         nop
2727 00                         nop
2728 00                         nop
2729 00                         nop
272A 00                         nop
272B 00                         nop
272C 00                         nop
272D 00                         nop
272E 00                         nop
272F 00                         nop
2730 00                         nop
2731 00                         nop
2732 00                         nop
2733 00                         nop
2734 00                         nop
2735 00                         nop
2736 00                         nop
2737 00                         nop
2738 00                         nop
2739 00                         nop
273A 00                         nop
273B 00                         nop
273C 00                         nop
273D 00                         nop
273E 00                         nop
273F 00                         nop
2740 00                         nop
2741 00                         nop
2742 00                         nop
2743 00                         nop
2744 00                         nop
2745 00                         nop
2746 00                         nop
2747 00                         nop
2748 00                         nop
2749 00                         nop
274A 00                         nop
274B 00                         nop
274C 00                         nop
274D 00                         nop
274E 00                         nop
274F 00                         nop
2750 00                         nop
2751 00                         nop
2752 00                         nop
2753 00                         nop
2754 00                         nop
2755 00                         nop
2756 00                         nop
2757 00                         nop
2758 00                         nop
2759 00                         nop
275A 00                         nop
275B 00                         nop
275C 00                         nop
275D 00                         nop
275E 00                         nop
275F 00                         nop
2760 00                         nop
2761 00                         nop
2762 00                         nop
2763 00                         nop
2764 00                         nop
2765 00                         nop
2766 00                         nop
2767 00                         nop
2768 00                         nop
2769 00                         nop
276A 00                         nop
276B 00                         nop
276C 00                         nop
276D 00                         nop
276E 00                         nop
276F 00                         nop
2770 00                         nop
2771 00                         nop
2772 00                         nop
2773 00                         nop
2774 00                         nop
2775 00                         nop
2776 00                         nop
2777 00                         nop
2778 00                         nop
2779 00                         nop
277A 00                         nop
277B 00                         nop
277C 00                         nop
277D 00                         nop
277E 00                         nop
277F 00                         nop
2780 00                         nop
2781 00                         nop
2782 00                         nop
2783 00                         nop
2784 00                         nop
2785 00                         nop
2786 00                         nop
2787 00                         nop
2788 00                         nop
2789 00                         nop
278A 00                         nop
278B 00                         nop
278C 00                         nop
278D 00                         nop
278E 00                         nop
278F 00                         nop
2790 00                         nop
2791 00                         nop
2792 00                         nop
2793 00                         nop
2794 00                         nop
2795 00                         nop
2796 00                         nop
2797 00                         nop
2798 00                         nop
2799 00                         nop
279A 00                         nop
279B 00                         nop
279C 00                         nop
279D 00                         nop
279E 00                         nop
279F 00                         nop
27A0 00                         nop
27A1 00                         nop
27A2 00                         nop
27A3 00                         nop
27A4 00                         nop
27A5 00                         nop
27A6 00                         nop
27A7 00                         nop
27A8 00                         nop
27A9 00                         nop
27AA 00                         nop
27AB 00                         nop
27AC 00                         nop
27AD 00                         nop
27AE 00                         nop
27AF 00                         nop
27B0 00                         nop
27B1 00                         nop
27B2 00                         nop
27B3 00                         nop
27B4 00                         nop
27B5 00                         nop
27B6 00                         nop
27B7 00                         nop
27B8 00                         nop
27B9 00                         nop
27BA 00                         nop
27BB 00                         nop
27BC 00                         nop
27BD 00                         nop
27BE 00                         nop
27BF 00                         nop
27C0 00                         nop
27C1 00                         nop
27C2 00                         nop
27C3 00                         nop
27C4 00                         nop
27C5 00                         nop
27C6 00                         nop
27C7 00                         nop
27C8 00                         nop
27C9 00                         nop
27CA 00                         nop
27CB 00                         nop
27CC 00                         nop
27CD 00                         nop
27CE 00                         nop
27CF 00                         nop
27D0 00                         nop
27D1 00                         nop
27D2 00                         nop
27D3 00                         nop
27D4 00                         nop
27D5 00                         nop
27D6 00                         nop
27D7 00                         nop
27D8 00                         nop
27D9 00                         nop
27DA 00                         nop
27DB 00                         nop
27DC 00                         nop
27DD 00                         nop
27DE 00                         nop
27DF 00                         nop
27E0 00                         nop
27E1 00                         nop
27E2 00                         nop
27E3 00                         nop
27E4 00                         nop
27E5 00                         nop
27E6 00                         nop
27E7 00                         nop
27E8 00                         nop
27E9 00                         nop
27EA 00                         nop
27EB 00                         nop
27EC 00                         nop
27ED 00                         nop
27EE 00                         nop
27EF 00                         nop
27F0 00                         nop
27F1 00                         nop
27F2 00                         nop
27F3 00                         nop
27F4 00                         nop
27F5 00                         nop
27F6 00                         nop
27F7 00                         nop
27F8 00                         nop
27F9 00                         nop
27FA 00                         nop
27FB 00                         nop
27FC 00                         nop
27FD 00                         nop
27FE 00                         nop
27FF 00                         nop
2800 00                         nop
2801 00                         nop
2802 00                         nop
2803 00                         nop
2804 00                         nop
2805 00                         nop
2806 00                         nop
2807 00                         nop
2808 00                         nop
2809 00                         nop
280A 00                         nop
280B 00                         nop
280C 00                         nop
280D 00                         nop
280E 00                         nop
280F 00                         nop
2810 00                         nop
2811 00                         nop
2812 00                         nop
2813 00                         nop
2814 00                         nop
2815 00                         nop
2816 00                         nop
2817 00                         nop
2818 00                         nop
2819 00                         nop
281A 00                         nop
281B 00                         nop
281C 00                         nop
281D 00                         nop
281E 00                         nop
281F 00                         nop
2820 00                         nop
2821 00                         nop
2822 00                         nop
2823 00                         nop
2824 00                         nop
2825 00                         nop
2826 00                         nop
2827 00                         nop
2828 00                         nop
2829 00                         nop
282A 00                         nop
282B 00                         nop
282C 00                         nop
282D 00                         nop
282E 00                         nop
282F 00                         nop
2830 00                         nop
2831 00                         nop
2832 00                         nop
2833 00                         nop
2834 00                         nop
2835 00                         nop
2836 00                         nop
2837 00                         nop
2838 00                         nop
2839 00                         nop
283A 00                         nop
283B 00                         nop
283C 00                         nop
283D 00                         nop
283E 00                         nop
283F 00                         nop
2840 00                         nop
2841 00                         nop
2842 00                         nop
2843 00                         nop
2844 00                         nop
2845 00                         nop
2846 00                         nop
2847 00                         nop
2848 00                         nop
2849 00                         nop
284A 00                         nop
284B 00                         nop
284C 00                         nop
284D 00                         nop
284E 00                         nop
284F 00                         nop
2850 00                         nop
2851 00                         nop
2852 00                         nop
2853 00                         nop
2854 00                         nop
2855 00                         nop
2856 00                         nop
2857 00                         nop
2858 00                         nop
2859 00                         nop
285A 00                         nop
285B 00                         nop
285C 00                         nop
285D 00                         nop
285E 00                         nop
285F 00                         nop
2860 00                         nop
2861 00                         nop
2862 00                         nop
2863 00                         nop
2864 00                         nop
2865 00                         nop
2866 00                         nop
2867 00                         nop
2868 00                         nop
2869 00                         nop
286A 00                         nop
286B 00                         nop
286C 00                         nop
286D 00                         nop
286E 00                         nop
286F 00                         nop
2870 00                         nop
2871 00                         nop
2872 00                         nop
2873 00                         nop
2874 00                         nop
2875 00                         nop
2876 00                         nop
2877 00                         nop
2878 00                         nop
2879 00                         nop
287A 00                         nop
287B 00                         nop
287C 00                         nop
287D 00                         nop
287E 00                         nop
287F 00                         nop
2880 00                         nop
2881 00                         nop
2882 00                         nop
2883 00                         nop
2884 00                         nop
2885 00                         nop
2886 00                         nop
2887 00                         nop
2888 00                         nop
2889 00                         nop
288A 00                         nop
288B 00                         nop
288C 00                         nop
288D 00                         nop
288E 00                         nop
288F 00                         nop
2890 00                         nop
2891 00                         nop
2892 00                         nop
2893 00                         nop
2894 00                         nop
2895 00                         nop
2896 00                         nop
2897 00                         nop
2898 00                         nop
2899 00                         nop
289A 00                         nop
289B 00                         nop
289C 00                         nop
289D 00                         nop
289E 00                         nop
289F 00                         nop
28A0 00                         nop
28A1 00                         nop
28A2 00                         nop
28A3 00                         nop
28A4 00                         nop
28A5 00                         nop
28A6 00                         nop
28A7 00                         nop
28A8 00                         nop
28A9 00                         nop
28AA 00                         nop
28AB 00                         nop
28AC 00                         nop
28AD 00                         nop
28AE 00                         nop
28AF 00                         nop
28B0 00                         nop
28B1 00                         nop
28B2 00                         nop
28B3 00                         nop
28B4 00                         nop
28B5 00                         nop
28B6 00                         nop
28B7 00                         nop
28B8 00                         nop
28B9 00                         nop
28BA 00                         nop
28BB 00                         nop
28BC 00                         nop
28BD 00                         nop
28BE 00                         nop
28BF 00                         nop
28C0 00                         nop
28C1 00                         nop
28C2 00                         nop
28C3 00                         nop
28C4 00                         nop
28C5 00                         nop
28C6 00                         nop
28C7 00                         nop
28C8 00                         nop
28C9 00                         nop
28CA 00                         nop
28CB 00                         nop
28CC 00                         nop
28CD 00                         nop
28CE 00                         nop
28CF 00                         nop
28D0 00                         nop
28D1 00                         nop
28D2 00                         nop
28D3 00                         nop
28D4 00                         nop
28D5 00                         nop
28D6 00                         nop
28D7 00                         nop
28D8 00                         nop
28D9 00                         nop
28DA 00                         nop
28DB 00                         nop
28DC 00                         nop
28DD 00                         nop
28DE 00                         nop
28DF 00                         nop
28E0 00                         nop
28E1 00                         nop
28E2 00                         nop
28E3 00                         nop
28E4 00                         nop
28E5 00                         nop
28E6 00                         nop
28E7 00                         nop
28E8 00                         nop
28E9 00                         nop
28EA 00                         nop
28EB 00                         nop
28EC 00                         nop
28ED 00                         nop
28EE 00                         nop
28EF 00                         nop
28F0 00                         nop
28F1 00                         nop
28F2 00                         nop
28F3 00                         nop
28F4 00                         nop
28F5 00                         nop
28F6 00                         nop
28F7 00                         nop
28F8 00                         nop
28F9 00                         nop
28FA 00                         nop
28FB 00                         nop
28FC 00                         nop
28FD 00                         nop
28FE 00                         nop
28FF 00                         nop
2900 00                         nop
2901 00                         nop
2902 00                         nop
2903 00                         nop
2904 00                         nop
2905 00                         nop
2906 00                         nop
2907 00                         nop
2908 00                         nop
2909 00                         nop
290A 00                         nop
290B 00                         nop
290C 00                         nop
290D 00                         nop
290E 00                         nop
290F 00                         nop
2910 00                         nop
2911 00                         nop
2912 00                         nop
2913 00                         nop
2914 00                         nop
2915 00                         nop
2916 00                         nop
2917 00                         nop
2918 00                         nop
2919 00                         nop
291A 00                         nop
291B 00                         nop
291C 00                         nop
291D 00                         nop
291E 00                         nop
291F 00                         nop
2920 00                         nop
2921 00                         nop
2922 00                         nop
2923 00                         nop
2924 00                         nop
2925 00                         nop
2926 00                         nop
2927 00                         nop
2928 00                         nop
2929 00                         nop
292A 00                         nop
292B 00                         nop
292C 00                         nop
292D 00                         nop
292E 00                         nop
292F 00                         nop
2930 00                         nop
2931 00                         nop
2932 00                         nop
2933 00                         nop
2934 00                         nop
2935 00                         nop
2936 00                         nop
2937 00                         nop
2938 00                         nop
2939 00                         nop
293A 00                         nop
293B 00                         nop
293C 00                         nop
293D 00                         nop
293E 00                         nop
293F 00                         nop
2940 00                         nop
2941 00                         nop
2942 00                         nop
2943 00                         nop
2944 00                         nop
2945 00                         nop
2946 00                         nop
2947 00                         nop
2948 00                         nop
2949 00                         nop
294A 00                         nop
294B 00                         nop
294C 00                         nop
294D 00                         nop
294E 00                         nop
294F 00                         nop
2950 00                         nop
2951 00                         nop
2952 00                         nop
2953 00                         nop
2954 00                         nop
2955 00                         nop
2956 00                         nop
2957 00                         nop
2958 00                         nop
2959 00                         nop
295A 00                         nop
295B 00                         nop
295C 00                         nop
295D 00                         nop
295E 00                         nop
295F 00                         nop
2960 00                         nop
2961 00                         nop
2962 00                         nop
2963 00                         nop
2964 00                         nop
2965 00                         nop
2966 00                         nop
2967 00                         nop
2968 00                         nop
2969 00                         nop
296A 00                         nop
296B 00                         nop
296C 00                         nop
296D 00                         nop
296E 00                         nop
296F 00                         nop
2970 00                         nop
2971 00                         nop
2972 00                         nop
2973 00                         nop
2974 00                         nop
2975 00                         nop
2976 00                         nop
2977 00                         nop
2978 00                         nop
2979 00                         nop
297A 00                         nop
297B 00                         nop
297C 00                         nop
297D 00                         nop
297E 00                         nop
297F 00                         nop
2980 00                         nop
2981 00                         nop
2982 00                         nop
2983 00                         nop
2984 00                         nop
2985 00                         nop
2986 00                         nop
2987 00                         nop
2988 00                         nop
2989 00                         nop
298A 00                         nop
298B 00                         nop
298C 00                         nop
298D 00                         nop
298E 00                         nop
298F 00                         nop
2990 00                         nop
2991 00                         nop
2992 00                         nop
2993 00                         nop
2994 00                         nop
2995 00                         nop
2996 00                         nop
2997 00                         nop
2998 00                         nop
2999 00                         nop
299A 00                         nop
299B 00                         nop
299C 00                         nop
299D 00                         nop
299E 00                         nop
299F 00                         nop
29A0 00                         nop
29A1 00                         nop
29A2 00                         nop
29A3 00                         nop
29A4 00                         nop
29A5 00                         nop
29A6 00                         nop
29A7 00                         nop
29A8 00                         nop
29A9 00                         nop
29AA 00                         nop
29AB 00                         nop
29AC 00                         nop
29AD 00                         nop
29AE 00                         nop
29AF 00                         nop
29B0 00                         nop
29B1 00                         nop
29B2 00                         nop
29B3 00                         nop
29B4 00                         nop
29B5 00                         nop
29B6 00                         nop
29B7 00                         nop
29B8 00                         nop
29B9 00                         nop
29BA 00                         nop
29BB 00                         nop
29BC 00                         nop
29BD 00                         nop
29BE 00                         nop
29BF 00                         nop
29C0 00                         nop
29C1 00                         nop
29C2 00                         nop
29C3 00                         nop
29C4 00                         nop
29C5 00                         nop
29C6 00                         nop
29C7 00                         nop
29C8 00                         nop
29C9 00                         nop
29CA 00                         nop
29CB 00                         nop
29CC 00                         nop
29CD 00                         nop
29CE 00                         nop
29CF 00                         nop
29D0 00                         nop
29D1 00                         nop
29D2 00                         nop
29D3 00                         nop
29D4 00                         nop
29D5 00                         nop
29D6 00                         nop
29D7 00                         nop
29D8 00                         nop
29D9 00                         nop
29DA 00                         nop
29DB 00                         nop
29DC 00                         nop
29DD 00                         nop
29DE 00                         nop
29DF 00                         nop
29E0 00                         nop
29E1 00                         nop
29E2 00                         nop
29E3 00                         nop
29E4 00                         nop
29E5 00                         nop
29E6 00                         nop
29E7 00                         nop
29E8 00                         nop
29E9 00                         nop
29EA 00                         nop
29EB 00                         nop
29EC 00                         nop
29ED 00                         nop
29EE 00                         nop
29EF 00                         nop
29F0 00                         nop
29F1 00                         nop
29F2 00                         nop
29F3 00                         nop
29F4 00                         nop
29F5 00                         nop
29F6 00                         nop
29F7 00                         nop
29F8 00                         nop
29F9 00                         nop
29FA 00                         nop
29FB 00                         nop
29FC 00                         nop
29FD 00                         nop
29FE 00                         nop
29FF 00                         nop
2A00 00                         nop
2A01 00                         nop
2A02 00                         nop
2A03 00                         nop
2A04 00                         nop
2A05 00                         nop
2A06 00                         nop
2A07 00                         nop
2A08 00                         nop
2A09 00                         nop
2A0A 00                         nop
2A0B 00                         nop
2A0C 00                         nop
2A0D 00                         nop
2A0E 00                         nop
2A0F 00                         nop
2A10 00                         nop
2A11 00                         nop
2A12 00                         nop
2A13 00                         nop
2A14 00                         nop
2A15 00                         nop
2A16 00                         nop
2A17 00                         nop
2A18 00                         nop
2A19 00                         nop
2A1A 00                         nop
2A1B 00                         nop
2A1C 00                         nop
2A1D 00                         nop
2A1E 00                         nop
2A1F 00                         nop
2A20 00                         nop
2A21 00                         nop
2A22 00                         nop
2A23 00                         nop
2A24 00                         nop
2A25 00                         nop
2A26 00                         nop
2A27 00                         nop
2A28 00                         nop
2A29 00                         nop
2A2A 00                         nop
2A2B 00                         nop
2A2C 00                         nop
2A2D 00                         nop
2A2E 00                         nop
2A2F 00                         nop
2A30 00                         nop
2A31 00                         nop
2A32 00                         nop
2A33 00                         nop
2A34 00                         nop
2A35 00                         nop
2A36 00                         nop
2A37 00                         nop
2A38 00                         nop
2A39 00                         nop
2A3A 00                         nop
2A3B 00                         nop
2A3C 00                         nop
2A3D 00                         nop
2A3E 00                         nop
2A3F 00                         nop
2A40 00                         nop
2A41 00                         nop
2A42 00                         nop
2A43 00                         nop
2A44 00                         nop
2A45 00                         nop
2A46 00                         nop
2A47 00                         nop
2A48 00                         nop
2A49 00                         nop
2A4A 00                         nop
2A4B 00                         nop
2A4C 00                         nop
2A4D 00                         nop
2A4E 00                         nop
2A4F 00                         nop
2A50 00                         nop
2A51 00                         nop
2A52 00                         nop
2A53 00                         nop
2A54 00                         nop
2A55 00                         nop
2A56 00                         nop
2A57 00                         nop
2A58 00                         nop
2A59 00                         nop
2A5A 00                         nop
2A5B 00                         nop
2A5C 00                         nop
2A5D 00                         nop
2A5E 00                         nop
2A5F 00                         nop
2A60 00                         nop
2A61 00                         nop
2A62 00                         nop
2A63 00                         nop
2A64 00                         nop
2A65 00                         nop
2A66 00                         nop
2A67 00                         nop
2A68 00                         nop
2A69 00                         nop
2A6A 00                         nop
2A6B 00                         nop
2A6C 00                         nop
2A6D 00                         nop
2A6E 00                         nop
2A6F 00                         nop
2A70 00                         nop
2A71 00                         nop
2A72 00                         nop
2A73 00                         nop
2A74 00                         nop
2A75 00                         nop
2A76 00                         nop
2A77 00                         nop
2A78 00                         nop
2A79 00                         nop
2A7A 00                         nop
2A7B 00                         nop
2A7C 00                         nop
2A7D 00                         nop
2A7E 00                         nop
2A7F 00                         nop
2A80 00                         nop
2A81 00                         nop
2A82 00                         nop
2A83 00                         nop
2A84 00                         nop
2A85 00                         nop
2A86 00                         nop
2A87 00                         nop
2A88 00                         nop
2A89 00                         nop
2A8A 00                         nop
2A8B 00                         nop
2A8C 00                         nop
2A8D 00                         nop
2A8E 00                         nop
2A8F 00                         nop
2A90 00                         nop
2A91 00                         nop
2A92 00                         nop
2A93 00                         nop
2A94 00                         nop
2A95 00                         nop
2A96 00                         nop
2A97 00                         nop
2A98 00                         nop
2A99 00                         nop
2A9A 00                         nop
2A9B 00                         nop
2A9C 00                         nop
2A9D 00                         nop
2A9E 00                         nop
2A9F 00                         nop
2AA0 00                         nop
2AA1 00                         nop
2AA2 00                         nop
2AA3 00                         nop
2AA4 00                         nop
2AA5 00                         nop
2AA6 00                         nop
2AA7 00                         nop
2AA8 00                         nop
2AA9 00                         nop
2AAA 00                         nop
2AAB 00                         nop
2AAC 00                         nop
2AAD 00                         nop
2AAE 00                         nop
2AAF 00                         nop
2AB0 00                         nop
2AB1 00                         nop
2AB2 00                         nop
2AB3 00                         nop
2AB4 00                         nop
2AB5 00                         nop
2AB6 00                         nop
2AB7 00                         nop
2AB8 00                         nop
2AB9 00                         nop
2ABA 00                         nop
2ABB 00                         nop
2ABC 00                         nop
2ABD 00                         nop
2ABE 00                         nop
2ABF 00                         nop
2AC0 00                         nop
2AC1 00                         nop
2AC2 00                         nop
2AC3 00                         nop
2AC4 00                         nop
2AC5 00                         nop
2AC6 00                         nop
2AC7 00                         nop
2AC8 00                         nop
2AC9 00                         nop
2ACA 00                         nop
2ACB 00                         nop
2ACC 00                         nop
2ACD 00                         nop
2ACE 00                         nop
2ACF 00                         nop
2AD0 00                         nop
2AD1 00                         nop
2AD2 00                         nop
2AD3 00                         nop
2AD4 00                         nop
2AD5 00                         nop
2AD6 00                         nop
2AD7 00                         nop
2AD8 00                         nop
2AD9 00                         nop
2ADA 00                         nop
2ADB 00                         nop
2ADC 00                         nop
2ADD 00                         nop
2ADE 00                         nop
2ADF 00                         nop
2AE0 00                         nop
2AE1 00                         nop
2AE2 00                         nop
2AE3 00                         nop
2AE4 00                         nop
2AE5 00                         nop
2AE6 00                         nop
2AE7 00                         nop
2AE8 00                         nop
2AE9 00                         nop
2AEA 00                         nop
2AEB 00                         nop
2AEC 00                         nop
2AED 00                         nop
2AEE 00                         nop
2AEF 00                         nop
2AF0 00                         nop
2AF1 00                         nop
2AF2 00                         nop
2AF3 00                         nop
2AF4 00                         nop
2AF5 00                         nop
2AF6 00                         nop
2AF7 00                         nop
2AF8 00                         nop
2AF9 00                         nop
2AFA 00                         nop
2AFB 00                         nop
2AFC 00                         nop
2AFD 00                         nop
2AFE 00                         nop
2AFF 00                         nop
2B00 00                         nop
2B01 00                         nop
2B02 00                         nop
2B03 00                         nop
2B04 00                         nop
2B05 00                         nop
2B06 00                         nop
2B07 00                         nop
2B08 00                         nop
2B09 00                         nop
2B0A 00                         nop
2B0B 00                         nop
2B0C 00                         nop
2B0D 00                         nop
2B0E 00                         nop
2B0F 00                         nop
2B10 00                         nop
2B11 00                         nop
2B12 00                         nop
2B13 00                         nop
2B14 00                         nop
2B15 00                         nop
2B16 00                         nop
2B17 00                         nop
2B18 00                         nop
2B19 00                         nop
2B1A 00                         nop
2B1B 00                         nop
2B1C 00                         nop
2B1D 00                         nop
2B1E 00                         nop
2B1F 00                         nop
2B20 00                         nop
2B21 00                         nop
2B22 00                         nop
2B23 00                         nop
2B24 00                         nop
2B25 00                         nop
2B26 00                         nop
2B27 00                         nop
2B28 00                         nop
2B29 00                         nop
2B2A 00                         nop
2B2B 00                         nop
2B2C 00                         nop
2B2D 00                         nop
2B2E 00                         nop
2B2F 00                         nop
2B30 00                         nop
2B31 00                         nop
2B32 00                         nop
2B33 00                         nop
2B34 00                         nop
2B35 00                         nop
2B36 00                         nop
2B37 00                         nop
2B38 00                         nop
2B39 00                         nop
2B3A 00                         nop
2B3B 00                         nop
2B3C 00                         nop
2B3D 00                         nop
2B3E 00                         nop
2B3F 00                         nop
2B40 00                         nop
2B41 00                         nop
2B42 00                         nop
2B43 00                         nop
2B44 00                         nop
2B45 00                         nop
2B46 00                         nop
2B47 00                         nop
2B48 00                         nop
2B49 00                         nop
2B4A 00                         nop
2B4B 00                         nop
2B4C 00                         nop
2B4D 00                         nop
2B4E 00                         nop
2B4F 00                         nop
2B50 00                         nop
2B51 00                         nop
2B52 00                         nop
2B53 00                         nop
2B54 00                         nop
2B55 00                         nop
2B56 00                         nop
2B57 00                         nop
2B58 00                         nop
2B59 00                         nop
2B5A 00                         nop
2B5B 00                         nop
2B5C 00                         nop
2B5D 00                         nop
2B5E 00                         nop
2B5F 00                         nop
2B60 00                         nop
2B61 00                         nop
2B62 00                         nop
2B63 00                         nop
2B64 00                         nop
2B65 00                         nop
2B66 00                         nop
2B67 00                         nop
2B68 00                         nop
2B69 00                         nop
2B6A 00                         nop
2B6B 00                         nop
2B6C 00                         nop
2B6D 00                         nop
2B6E 00                         nop
2B6F 00                         nop
2B70 00                         nop
2B71 00                         nop
2B72 00                         nop
2B73 00                         nop
2B74 00                         nop
2B75 00                         nop
2B76 00                         nop
2B77 00                         nop
2B78 00                         nop
2B79 00                         nop
2B7A 00                         nop
2B7B 00                         nop
2B7C 00                         nop
2B7D 00                         nop
2B7E 00                         nop
2B7F 00                         nop
2B80 00                         nop
2B81 00                         nop
2B82 00                         nop
2B83 00                         nop
2B84 00                         nop
2B85 00                         nop
2B86 00                         nop
2B87 00                         nop
2B88 00                         nop
2B89 00                         nop
2B8A 00                         nop
2B8B 00                         nop
2B8C 00                         nop
2B8D 00                         nop
2B8E 00                         nop
2B8F 00                         nop
2B90 00                         nop
2B91 00                         nop
2B92 00                         nop
2B93 00                         nop
2B94 00                         nop
2B95 00                         nop
2B96 00                         nop
2B97 00                         nop
2B98 00                         nop
2B99 00                         nop
2B9A 00                         nop
2B9B 00                         nop
2B9C 00                         nop
2B9D 00                         nop
2B9E 00                         nop
2B9F 00                         nop
2BA0 00                         nop
2BA1 00                         nop
2BA2 00                         nop
2BA3 00                         nop
2BA4 00                         nop
2BA5 00                         nop
2BA6 00                         nop
2BA7 00                         nop
2BA8 00                         nop
2BA9 00                         nop
2BAA 00                         nop
2BAB 00                         nop
2BAC 00                         nop
2BAD 00                         nop
2BAE 00                         nop
2BAF 00                         nop
2BB0 00                         nop
2BB1 00                         nop
2BB2 00                         nop
2BB3 00                         nop
2BB4 00                         nop
2BB5 00                         nop
2BB6 00                         nop
2BB7 00                         nop
2BB8 00                         nop
2BB9 00                         nop
2BBA 00                         nop
2BBB 00                         nop
2BBC 00                         nop
2BBD 00                         nop
2BBE 00                         nop
2BBF 00                         nop
2BC0 00                         nop
2BC1 00                         nop
2BC2 00                         nop
2BC3 00                         nop
2BC4 00                         nop
2BC5 00                         nop
2BC6 00                         nop
2BC7 00                         nop
2BC8 00                         nop
2BC9 00                         nop
2BCA 00                         nop
2BCB 00                         nop
2BCC 00                         nop
2BCD 00                         nop
2BCE 00                         nop
2BCF 00                         nop
2BD0 00                         nop
2BD1 00                         nop
2BD2 00                         nop
2BD3 00                         nop
2BD4 00                         nop
2BD5 00                         nop
2BD6 00                         nop
2BD7 00                         nop
2BD8 00                         nop
2BD9 00                         nop
2BDA 00                         nop
2BDB 00                         nop
2BDC 00                         nop
2BDD 00                         nop
2BDE 00                         nop
2BDF 00                         nop
2BE0 00                         nop
2BE1 00                         nop
2BE2 00                         nop
2BE3 00                         nop
2BE4 00                         nop
2BE5 00                         nop
2BE6 00                         nop
2BE7 00                         nop
2BE8 00                         nop
2BE9 00                         nop
2BEA 00                         nop
2BEB 00                         nop
2BEC 00                         nop
2BED 00                         nop
2BEE 00                         nop
2BEF 00                         nop
2BF0 00                         nop
2BF1 00                         nop
2BF2 00                         nop
2BF3 00                         nop
2BF4 00                         nop
2BF5 00                         nop
2BF6 00                         nop
2BF7 00                         nop
2BF8 00                         nop
2BF9 00                         nop
2BFA 00                         nop
2BFB 00                         nop
2BFC 00                         nop
2BFD 00                         nop
2BFE 00                         nop
2BFF 00                         nop
2C00 00                         nop
2C01 00                         nop
2C02 00                         nop
2C03 00                         nop
2C04 00                         nop
2C05 00                         nop
2C06 00                         nop
2C07 00                         nop
2C08 00                         nop
2C09 00                         nop
2C0A 00                         nop
2C0B 00                         nop
2C0C 00                         nop
2C0D 00                         nop
2C0E 00                         nop
2C0F 00                         nop
2C10 00                         nop
2C11 00                         nop
2C12 00                         nop
2C13 00                         nop
2C14 00                         nop
2C15 00                         nop
2C16 00                         nop
2C17 00                         nop
2C18 00                         nop
2C19 00                         nop
2C1A 00                         nop
2C1B 00                         nop
2C1C 00                         nop
2C1D 00                         nop
2C1E 00                         nop
2C1F 00                         nop
2C20 00                         nop
2C21 00                         nop
2C22 00                         nop
2C23 00                         nop
2C24 00                         nop
2C25 00                         nop
2C26 00                         nop
2C27 00                         nop
2C28 00                         nop
2C29 00                         nop
2C2A 00                         nop
2C2B 00                         nop
2C2C 00                         nop
2C2D 00                         nop
2C2E 00                         nop
2C2F 00                         nop
2C30 00                         nop
2C31 00                         nop
2C32 00                         nop
2C33 00                         nop
2C34 00                         nop
2C35 00                         nop
2C36 00                         nop
2C37 00                         nop
2C38 00                         nop
2C39 00                         nop
2C3A 00                         nop
2C3B 00                         nop
2C3C 00                         nop
2C3D 00                         nop
2C3E 00                         nop
2C3F 00                         nop
2C40 00                         nop
2C41 00                         nop
2C42 00                         nop
2C43 00                         nop
2C44 00                         nop
2C45 00                         nop
2C46 00                         nop
2C47 00                         nop
2C48 00                         nop
2C49 00                         nop
2C4A 00                         nop
2C4B 00                         nop
2C4C 00                         nop
2C4D 00                         nop
2C4E 00                         nop
2C4F 00                         nop
2C50 00                         nop
2C51 00                         nop
2C52 00                         nop
2C53 00                         nop
2C54 00                         nop
2C55 00                         nop
2C56 00                         nop
2C57 00                         nop
2C58 00                         nop
2C59 00                         nop
2C5A 00                         nop
2C5B 00                         nop
2C5C 00                         nop
2C5D 00                         nop
2C5E 00                         nop
2C5F 00                         nop
2C60 00                         nop
2C61 00                         nop
2C62 00                         nop
2C63 00                         nop
2C64 00                         nop
2C65 00                         nop
2C66 00                         nop
2C67 00                         nop
2C68 00                         nop
2C69 00                         nop
2C6A 00                         nop
2C6B 00                         nop
2C6C 00                         nop
2C6D 00                         nop
2C6E 00                         nop
2C6F 00                         nop
2C70 00                         nop
2C71 00                         nop
2C72 00                         nop
2C73 00                         nop
2C74 00                         nop
2C75 00                         nop
2C76 00                         nop
2C77 00                         nop
2C78 00                         nop
2C79 00                         nop
2C7A 00                         nop
2C7B 00                         nop
2C7C 00                         nop
2C7D 00                         nop
2C7E 00                         nop
2C7F 00                         nop
2C80 00                         nop
2C81 00                         nop
2C82 00                         nop
2C83 00                         nop
2C84 00                         nop
2C85 00                         nop
2C86 00                         nop
2C87 00                         nop
2C88 00                         nop
2C89 00                         nop
2C8A 00                         nop
2C8B 00                         nop
2C8C 00                         nop
2C8D 00                         nop
2C8E 00                         nop
2C8F 00                         nop
2C90 00                         nop
2C91 00                         nop
2C92 00                         nop
2C93 00                         nop
2C94 00                         nop
2C95 00                         nop
2C96 00                         nop
2C97 00                         nop
2C98 00                         nop
2C99 00                         nop
2C9A 00                         nop
2C9B 00                         nop
2C9C 00                         nop
2C9D 00                         nop
2C9E 00                         nop
2C9F 00                         nop
2CA0 00                         nop
2CA1 00                         nop
2CA2 00                         nop
2CA3 00                         nop
2CA4 00                         nop
2CA5 00                         nop
2CA6 00                         nop
2CA7 00                         nop
2CA8 00                         nop
2CA9 00                         nop
2CAA 00                         nop
2CAB 00                         nop
2CAC 00                         nop
2CAD 00                         nop
2CAE 00                         nop
2CAF 00                         nop
2CB0 00                         nop
2CB1 00                         nop
2CB2 00                         nop
2CB3 00                         nop
2CB4 00                         nop
2CB5 00                         nop
2CB6 00                         nop
2CB7 00                         nop
2CB8 00                         nop
2CB9 00                         nop
2CBA 00                         nop
2CBB 00                         nop
2CBC 00                         nop
2CBD 00                         nop
2CBE 00                         nop
2CBF 00                         nop
2CC0 00                         nop
2CC1 00                         nop
2CC2 00                         nop
2CC3 00                         nop
2CC4 00                         nop
2CC5 00                         nop
2CC6 00                         nop
2CC7 00                         nop
2CC8 00                         nop
2CC9 00                         nop
2CCA 00                         nop
2CCB 00                         nop
2CCC 00                         nop
2CCD 00                         nop
2CCE 00                         nop
2CCF 00                         nop
2CD0 00                         nop
2CD1 00                         nop
2CD2 00                         nop
2CD3 00                         nop
2CD4 00                         nop
2CD5 00                         nop
2CD6 00                         nop
2CD7 00                         nop
2CD8 00                         nop
2CD9 00                         nop
2CDA 00                         nop
2CDB 00                         nop
2CDC 00                         nop
2CDD 00                         nop
2CDE 00                         nop
2CDF 00                         nop
2CE0 00                         nop
2CE1 00                         nop
2CE2 00                         nop
2CE3 00                         nop
2CE4 00                         nop
2CE5 00                         nop
2CE6 00                         nop
2CE7 00                         nop
2CE8 00                         nop
2CE9 00                         nop
2CEA 00                         nop
2CEB 00                         nop
2CEC 00                         nop
2CED 00                         nop
2CEE 00                         nop
2CEF 00                         nop
2CF0 00                         nop
2CF1 00                         nop
2CF2 00                         nop
2CF3 00                         nop
2CF4 00                         nop
2CF5 00                         nop
2CF6 00                         nop
2CF7 00                         nop
2CF8 00                         nop
2CF9 00                         nop
2CFA 00                         nop
2CFB 00                         nop
2CFC 00                         nop
2CFD 00                         nop
2CFE 00                         nop
2CFF 00                         nop
2D00 00                         nop
2D01 00                         nop
2D02 00                         nop
2D03 00                         nop
2D04 00                         nop
2D05 00                         nop
2D06 00                         nop
2D07 00                         nop
2D08 00                         nop
2D09 00                         nop
2D0A 00                         nop
2D0B 00                         nop
2D0C 00                         nop
2D0D 00                         nop
2D0E 00                         nop
2D0F 00                         nop
2D10 00                         nop
2D11 00                         nop
2D12 00                         nop
2D13 00                         nop
2D14 00                         nop
2D15 00                         nop
2D16 00                         nop
2D17 00                         nop
2D18 00                         nop
2D19 00                         nop
2D1A 00                         nop
2D1B 00                         nop
2D1C 00                         nop
2D1D 00                         nop
2D1E 00                         nop
2D1F 00                         nop
2D20 00                         nop
2D21 00                         nop
2D22 00                         nop
2D23 00                         nop
2D24 00                         nop
2D25 00                         nop
2D26 00                         nop
2D27 00                         nop
2D28 00                         nop
2D29 00                         nop
2D2A 00                         nop
2D2B 00                         nop
2D2C 00                         nop
2D2D 00                         nop
2D2E 00                         nop
2D2F 00                         nop
2D30 00                         nop
2D31 00                         nop
2D32 00                         nop
2D33 00                         nop
2D34 00                         nop
2D35 00                         nop
2D36 00                         nop
2D37 00                         nop
2D38 00                         nop
2D39 00                         nop
2D3A 00                         nop
2D3B 00                         nop
2D3C 00                         nop
2D3D 00                         nop
2D3E 00                         nop
2D3F 00                         nop
2D40 00                         nop
2D41 00                         nop
2D42 00                         nop
2D43 00                         nop
2D44 00                         nop
2D45 00                         nop
2D46 00                         nop
2D47 00                         nop
2D48 00                         nop
2D49 00                         nop
2D4A 00                         nop
2D4B 00                         nop
2D4C 00                         nop
2D4D 00                         nop
2D4E 00                         nop
2D4F 00                         nop
2D50 00                         nop
2D51 00                         nop
2D52 00                         nop
2D53 00                         nop
2D54 00                         nop
2D55 00                         nop
2D56 00                         nop
2D57 00                         nop
2D58 00                         nop
2D59 00                         nop
2D5A 00                         nop
2D5B 00                         nop
2D5C 00                         nop
2D5D 00                         nop
2D5E 00                         nop
2D5F 00                         nop
2D60 00                         nop
2D61 00                         nop
2D62 00                         nop
2D63 00                         nop
2D64 00                         nop
2D65 00                         nop
2D66 00                         nop
2D67 00                         nop
2D68 00                         nop
2D69 00                         nop
2D6A 00                         nop
2D6B 00                         nop
2D6C 00                         nop
2D6D 00                         nop
2D6E 00                         nop
2D6F 00                         nop
2D70 00                         nop
2D71 00                         nop
2D72 00                         nop
2D73 00                         nop
2D74 00                         nop
2D75 00                         nop
2D76 00                         nop
2D77 00                         nop
2D78 00                         nop
2D79 00                         nop
2D7A 00                         nop
2D7B 00                         nop
2D7C 00                         nop
2D7D 00                         nop
2D7E 00                         nop
2D7F 00                         nop
2D80 00                         nop
2D81 00                         nop
2D82 00                         nop
2D83 00                         nop
2D84 00                         nop
2D85 00                         nop
2D86 00                         nop
2D87 00                         nop
2D88 00                         nop
2D89 00                         nop
2D8A 00                         nop
2D8B 00                         nop
2D8C 00                         nop
2D8D 00                         nop
2D8E 00                         nop
2D8F 00                         nop
2D90 00                         nop
2D91 00                         nop
2D92 00                         nop
2D93 00                         nop
2D94 00                         nop
2D95 00                         nop
2D96 00                         nop
2D97 00                         nop
2D98 00                         nop
2D99 00                         nop
2D9A 00                         nop
2D9B 00                         nop
2D9C 00                         nop
2D9D 00                         nop
2D9E 00                         nop
2D9F 00                         nop
2DA0 00                         nop
2DA1 00                         nop
2DA2 00                         nop
2DA3 00                         nop
2DA4 00                         nop
2DA5 00                         nop
2DA6 00                         nop
2DA7 00                         nop
2DA8 00                         nop
2DA9 00                         nop
2DAA 00                         nop
2DAB 00                         nop
2DAC 00                         nop
2DAD 00                         nop
2DAE 00                         nop
2DAF 00                         nop
2DB0 00                         nop
2DB1 00                         nop
2DB2 00                         nop
2DB3 00                         nop
2DB4 00                         nop
2DB5 00                         nop
2DB6 00                         nop
2DB7 00                         nop
2DB8 00                         nop
2DB9 00                         nop
2DBA 00                         nop
2DBB 00                         nop
2DBC 00                         nop
2DBD 00                         nop
2DBE 00                         nop
2DBF 00                         nop
2DC0 00                         nop
2DC1 00                         nop
2DC2 00                         nop
2DC3 00                         nop
2DC4 00                         nop
2DC5 00                         nop
2DC6 00                         nop
2DC7 00                         nop
2DC8 00                         nop
2DC9 00                         nop
2DCA 00                         nop
2DCB 00                         nop
2DCC 00                         nop
2DCD 00                         nop
2DCE 00                         nop
2DCF 00                         nop
2DD0 00                         nop
2DD1 00                         nop
2DD2 00                         nop
2DD3 00                         nop
2DD4 00                         nop
2DD5 00                         nop
2DD6 00                         nop
2DD7 00                         nop
2DD8 00                         nop
2DD9 00                         nop
2DDA 00                         nop
2DDB 00                         nop
2DDC 00                         nop
2DDD 00                         nop
2DDE 00                         nop
2DDF 00                         nop
2DE0 00                         nop
2DE1 00                         nop
2DE2 00                         nop
2DE3 00                         nop
2DE4 00                         nop
2DE5 00                         nop
2DE6 00                         nop
2DE7 00                         nop
2DE8 00                         nop
2DE9 00                         nop
2DEA 00                         nop
2DEB 00                         nop
2DEC 00                         nop
2DED 00                         nop
2DEE 00                         nop
2DEF 00                         nop
2DF0 00                         nop
2DF1 00                         nop
2DF2 00                         nop
2DF3 00                         nop
2DF4 00                         nop
2DF5 00                         nop
2DF6 00                         nop
2DF7 00                         nop
2DF8 00                         nop
2DF9 00                         nop
2DFA 00                         nop
2DFB 00                         nop
2DFC 00                         nop
2DFD 00                         nop
2DFE 00                         nop
2DFF 00                         nop
2E00 00                         nop
2E01 00                         nop
2E02 00                         nop
2E03 00                         nop
2E04 00                         nop
2E05 00                         nop
2E06 00                         nop
2E07 00                         nop
2E08 00                         nop
2E09 00                         nop
2E0A 00                         nop
2E0B 00                         nop
2E0C 00                         nop
2E0D 00                         nop
2E0E 00                         nop
2E0F 00                         nop
2E10 00                         nop
2E11 00                         nop
2E12 00                         nop
2E13 00                         nop
2E14 00                         nop
2E15 00                         nop
2E16 00                         nop
2E17 00                         nop
2E18 00                         nop
2E19 00                         nop
2E1A 00                         nop
2E1B 00                         nop
2E1C 00                         nop
2E1D 00                         nop
2E1E 00                         nop
2E1F 00                         nop
2E20 00                         nop
2E21 00                         nop
2E22 00                         nop
2E23 00                         nop
2E24 00                         nop
2E25 00                         nop
2E26 00                         nop
2E27 00                         nop
2E28 00                         nop
2E29 00                         nop
2E2A 00                         nop
2E2B 00                         nop
2E2C 00                         nop
2E2D 00                         nop
2E2E 00                         nop
2E2F 00                         nop
2E30 00                         nop
2E31 00                         nop
2E32 00                         nop
2E33 00                         nop
2E34 00                         nop
2E35 00                         nop
2E36 00                         nop
2E37 00                         nop
2E38 00                         nop
2E39 00                         nop
2E3A 00                         nop
2E3B 00                         nop
2E3C 00                         nop
2E3D 00                         nop
2E3E 00                         nop
2E3F 00                         nop
2E40 00                         nop
2E41 00                         nop
2E42 00                         nop
2E43 00                         nop
2E44 00                         nop
2E45 00                         nop
2E46 00                         nop
2E47 00                         nop
2E48 00                         nop
2E49 00                         nop
2E4A 00                         nop
2E4B 00                         nop
2E4C 00                         nop
2E4D 00                         nop
2E4E 00                         nop
2E4F 00                         nop
2E50 00                         nop
2E51 00                         nop
2E52 00                         nop
2E53 00                         nop
2E54 00                         nop
2E55 00                         nop
2E56 00                         nop
2E57 00                         nop
2E58 00                         nop
2E59 00                         nop
2E5A 00                         nop
2E5B 00                         nop
2E5C 00                         nop
2E5D 00                         nop
2E5E 00                         nop
2E5F 00                         nop
2E60 00                         nop
2E61 00                         nop
2E62 00                         nop
2E63 00                         nop
2E64 00                         nop
2E65 00                         nop
2E66 00                         nop
2E67 00                         nop
2E68 00                         nop
2E69 00                         nop
2E6A 00                         nop
2E6B 00                         nop
2E6C 00                         nop
2E6D 00                         nop
2E6E 00                         nop
2E6F 00                         nop
2E70 00                         nop
2E71 00                         nop
2E72 00                         nop
2E73 00                         nop
2E74 00                         nop
2E75 00                         nop
2E76 00                         nop
2E77 00                         nop
2E78 00                         nop
2E79 00                         nop
2E7A 00                         nop
2E7B 00                         nop
2E7C 00                         nop
2E7D 00                         nop
2E7E 00                         nop
2E7F 00                         nop
2E80 00                         nop
2E81 00                         nop
2E82 00                         nop
2E83 00                         nop
2E84 00                         nop
2E85 00                         nop
2E86 00                         nop
2E87 00                         nop
2E88 00                         nop
2E89 00                         nop
2E8A 00                         nop
2E8B 00                         nop
2E8C 00                         nop
2E8D 00                         nop
2E8E 00                         nop
2E8F 00                         nop
2E90 00                         nop
2E91 00                         nop
2E92 00                         nop
2E93 00                         nop
2E94 00                         nop
2E95 00                         nop
2E96 00                         nop
2E97 00                         nop
2E98 00                         nop
2E99 00                         nop
2E9A 00                         nop
2E9B 00                         nop
2E9C 00                         nop
2E9D 00                         nop
2E9E 00                         nop
2E9F 00                         nop
2EA0 00                         nop
2EA1 00                         nop
2EA2 00                         nop
2EA3 00                         nop
2EA4 00                         nop
2EA5 00                         nop
2EA6 00                         nop
2EA7 00                         nop
2EA8 00                         nop
2EA9 00                         nop
2EAA 00                         nop
2EAB 00                         nop
2EAC 00                         nop
2EAD 00                         nop
2EAE 00                         nop
2EAF 00                         nop
2EB0 00                         nop
2EB1 00                         nop
2EB2 00                         nop
2EB3 00                         nop
2EB4 00                         nop
2EB5 00                         nop
2EB6 00                         nop
2EB7 00                         nop
2EB8 00                         nop
2EB9 00                         nop
2EBA 00                         nop
2EBB 00                         nop
2EBC 00                         nop
2EBD 00                         nop
2EBE 00                         nop
2EBF 00                         nop
2EC0 00                         nop
2EC1 00                         nop
2EC2 00                         nop
2EC3 00                         nop
2EC4 00                         nop
2EC5 00                         nop
2EC6 00                         nop
2EC7 00                         nop
2EC8 00                         nop
2EC9 00                         nop
2ECA 00                         nop
2ECB 00                         nop
2ECC 00                         nop
2ECD 00                         nop
2ECE 00                         nop
2ECF 00                         nop
2ED0 00                         nop
2ED1 00                         nop
2ED2 00                         nop
2ED3 00                         nop
2ED4 00                         nop
2ED5 00                         nop
2ED6 00                         nop
2ED7 00                         nop
2ED8 00                         nop
2ED9 00                         nop
2EDA 00                         nop
2EDB 00                         nop
2EDC 00                         nop
2EDD 00                         nop
2EDE 00                         nop
2EDF 00                         nop
2EE0 00                         nop
2EE1 00                         nop
2EE2 00                         nop
2EE3 00                         nop
2EE4 00                         nop
2EE5 00                         nop
2EE6 00                         nop
2EE7 00                         nop
2EE8 00                         nop
2EE9 00                         nop
2EEA 00                         nop
2EEB 00                         nop
2EEC 00                         nop
2EED 00                         nop
2EEE 00                         nop
2EEF 00                         nop
2EF0 00                         nop
2EF1 00                         nop
2EF2 00                         nop
2EF3 00                         nop
2EF4 00                         nop
2EF5 00                         nop
2EF6 00                         nop
2EF7 00                         nop
2EF8 00                         nop
2EF9 00                         nop
2EFA 00                         nop
2EFB 00                         nop
2EFC 00                         nop
2EFD 00                         nop
2EFE 00                         nop
2EFF 00                         nop
2F00 00                         nop
2F01 00                         nop
2F02 00                         nop
2F03 00                         nop
2F04 00                         nop
2F05 00                         nop
2F06 00                         nop
2F07 00                         nop
2F08 00                         nop
2F09 00                         nop
2F0A 00                         nop
2F0B 00                         nop
2F0C 00                         nop
2F0D 00                         nop
2F0E 00                         nop
2F0F 00                         nop
2F10 00                         nop
2F11 00                         nop
2F12 00                         nop
2F13 00                         nop
2F14 00                         nop
2F15 00                         nop
2F16 00                         nop
2F17 00                         nop
2F18 00                         nop
2F19 00                         nop
2F1A 00                         nop
2F1B 00                         nop
2F1C 00                         nop
2F1D 00                         nop
2F1E 00                         nop
2F1F 00                         nop
2F20 00                         nop
2F21 00                         nop
2F22 00                         nop
2F23 00                         nop
2F24 00                         nop
2F25 00                         nop
2F26 00                         nop
2F27 00                         nop
2F28 00                         nop
2F29 00                         nop
2F2A 00                         nop
2F2B 00                         nop
2F2C 00                         nop
2F2D 00                         nop
2F2E 00                         nop
2F2F 00                         nop
2F30 00                         nop
2F31 00                         nop
2F32 00                         nop
2F33 00                         nop
2F34 00                         nop
2F35 00                         nop
2F36 00                         nop
2F37 00                         nop
2F38 00                         nop
2F39 00                         nop
2F3A 00                         nop
2F3B 00                         nop
2F3C 00                         nop
2F3D 00                         nop
2F3E 00                         nop
2F3F 00                         nop
2F40 00                         nop
2F41 00                         nop
2F42 00                         nop
2F43 00                         nop
2F44 00                         nop
2F45 00                         nop
2F46 00                         nop
2F47 00                         nop
2F48 00                         nop
2F49 00                         nop
2F4A 00                         nop
2F4B 00                         nop
2F4C 00                         nop
2F4D 00                         nop
2F4E 00                         nop
2F4F 00                         nop
2F50 00                         nop
2F51 00                         nop
2F52 00                         nop
2F53 00                         nop
2F54 00                         nop
2F55 00                         nop
2F56 00                         nop
2F57 00                         nop
2F58 00                         nop
2F59 00                         nop
2F5A 00                         nop
2F5B 00                         nop
2F5C 00                         nop
2F5D 00                         nop
2F5E 00                         nop
2F5F 00                         nop
2F60 00                         nop
2F61 00                         nop
2F62 00                         nop
2F63 00                         nop
2F64 00                         nop
2F65 00                         nop
2F66 00                         nop
2F67 00                         nop
2F68 00                         nop
2F69 00                         nop
2F6A 00                         nop
2F6B 00                         nop
2F6C 00                         nop
2F6D 00                         nop
2F6E 00                         nop
2F6F 00                         nop
2F70 00                         nop
2F71 00                         nop
2F72 00                         nop
2F73 00                         nop
2F74 00                         nop
2F75 00                         nop
2F76 00                         nop
2F77 00                         nop
2F78 00                         nop
2F79 00                         nop
2F7A 00                         nop
2F7B 00                         nop
2F7C 00                         nop
2F7D 00                         nop
2F7E 00                         nop
2F7F 00                         nop
2F80 00                         nop
2F81 00                         nop
2F82 00                         nop
2F83 00                         nop
2F84 00                         nop
2F85 00                         nop
2F86 00                         nop
2F87 00                         nop
2F88 00                         nop
2F89 00                         nop
2F8A 00                         nop
2F8B 00                         nop
2F8C 00                         nop
2F8D 00                         nop
2F8E 00                         nop
2F8F 00                         nop
2F90 00                         nop
2F91 00                         nop
2F92 00                         nop
2F93 00                         nop
2F94 00                         nop
2F95 00                         nop
2F96 00                         nop
2F97 00                         nop
2F98 00                         nop
2F99 00                         nop
2F9A 00                         nop
2F9B 00                         nop
2F9C 00                         nop
2F9D 00                         nop
2F9E 00                         nop
2F9F 00                         nop
2FA0 00                         nop
2FA1 00                         nop
2FA2 00                         nop
2FA3 00                         nop
2FA4 00                         nop
2FA5 00                         nop
2FA6 00                         nop
2FA7 00                         nop
2FA8 00                         nop
2FA9 00                         nop
2FAA 00                         nop
2FAB 00                         nop
2FAC 00                         nop
2FAD 00                         nop
2FAE 00                         nop
2FAF 00                         nop
2FB0 00                         nop
2FB1 00                         nop
2FB2 00                         nop
2FB3 00                         nop
2FB4 00                         nop
2FB5 00                         nop
2FB6 00                         nop
2FB7 00                         nop
2FB8 00                         nop
2FB9 00                         nop
2FBA 00                         nop
2FBB 00                         nop
2FBC 00                         nop
2FBD 00                         nop
2FBE 00                         nop
2FBF 00                         nop
2FC0 00                         nop
2FC1 00                         nop
2FC2 00                         nop
2FC3 00                         nop
2FC4 00                         nop
2FC5 00                         nop
2FC6 00                         nop
2FC7 00                         nop
2FC8 00                         nop
2FC9 00                         nop
2FCA 00                         nop
2FCB 00                         nop
2FCC 00                         nop
2FCD 00                         nop
2FCE 00                         nop
2FCF 00                         nop
2FD0 00                         nop
2FD1 00                         nop
2FD2 00                         nop
2FD3 00                         nop
2FD4 00                         nop
2FD5 00                         nop
2FD6 00                         nop
2FD7 00                         nop
2FD8 00                         nop
2FD9 00                         nop
2FDA 00                         nop
2FDB 00                         nop
2FDC 00                         nop
2FDD 00                         nop
2FDE 00                         nop
2FDF 00                         nop
2FE0 00                         nop
2FE1 00                         nop
2FE2 00                         nop
2FE3 00                         nop
2FE4 00                         nop
2FE5 00                         nop
2FE6 00                         nop
2FE7 00                         nop
2FE8 00                         nop
2FE9 00                         nop
2FEA 00                         nop
2FEB 00                         nop
2FEC 00                         nop
2FED 00                         nop
2FEE 00                         nop
2FEF 00                         nop
2FF0 00                         nop
2FF1 00                         nop
2FF2 00                         nop
2FF3 00                         nop
2FF4 00                         nop
2FF5 00                         nop
2FF6 00                         nop
2FF7 00                         nop
2FF8 00                         nop
2FF9 00                         nop
2FFA 00                         nop
2FFB 00                         nop
2FFC 00                         nop
2FFD 00                         nop
2FFE 00                         nop
2FFF 00                         nop
3000 00                         nop
3001 00                         nop
3002 00                         nop
3003 00                         nop
3004 00                         nop
3005 00                         nop
3006 00                         nop
3007 00                         nop
3008 00                         nop
3009 00                         nop
300A 00                         nop
300B 00                         nop
300C 00                         nop
300D 00                         nop
300E 00                         nop
300F 00                         nop
3010 00                         nop
3011 00                         nop
3012 00                         nop
3013 00                         nop
3014 00                         nop
3015 00                         nop
3016 00                         nop
3017 00                         nop
3018 00                         nop
3019 00                         nop
301A 00                         nop
301B 00                         nop
301C 00                         nop
301D 00                         nop
301E 00                         nop
301F 00                         nop
3020 00                         nop
3021 00                         nop
3022 00                         nop
3023 00                         nop
3024 00                         nop
3025 00                         nop
3026 00                         nop
3027 00                         nop
3028 00                         nop
3029 00                         nop
302A 00                         nop
302B 00                         nop
302C 00                         nop
302D 00                         nop
302E 00                         nop
302F 00                         nop
3030 00                         nop
3031 00                         nop
3032 00                         nop
3033 00                         nop
3034 00                         nop
3035 00                         nop
3036 00                         nop
3037 00                         nop
3038 00                         nop
3039 00                         nop
303A 00                         nop
303B 00                         nop
303C 00                         nop
303D 00                         nop
303E 00                         nop
303F 00                         nop
3040 00                         nop
3041 00                         nop
3042 00                         nop
3043 00                         nop
3044 00                         nop
3045 00                         nop
3046 00                         nop
3047 00                         nop
3048 00                         nop
3049 00                         nop
304A 00                         nop
304B 00                         nop
304C 00                         nop
304D 00                         nop
304E 00                         nop
304F 00                         nop
3050 00                         nop
3051 00                         nop
3052 00                         nop
3053 00                         nop
3054 00                         nop
3055 00                         nop
3056 00                         nop
3057 00                         nop
3058 00                         nop
3059 00                         nop
305A 00                         nop
305B 00                         nop
305C 00                         nop
305D 00                         nop
305E 00                         nop
305F 00                         nop
3060 00                         nop
3061 00                         nop
3062 00                         nop
3063 00                         nop
3064 00                         nop
3065 00                         nop
3066 00                         nop
3067 00                         nop
3068 00                         nop
3069 00                         nop
306A 00                         nop
306B 00                         nop
306C 00                         nop
306D 00                         nop
306E 00                         nop
306F 00                         nop
3070 00                         nop
3071 00                         nop
3072 00                         nop
3073 00                         nop
3074 00                         nop
3075 00                         nop
3076 00                         nop
3077 00                         nop
3078 00                         nop
3079 00                         nop
307A 00                         nop
307B 00                         nop
307C 00                         nop
307D 00                         nop
307E 00                         nop
307F 00                         nop
3080 00                         nop
3081 00                         nop
3082 00                         nop
3083 00                         nop
3084 00                         nop
3085 00                         nop
3086 00                         nop
3087 00                         nop
3088 00                         nop
3089 00                         nop
308A 00                         nop
308B 00                         nop
308C 00                         nop
308D 00                         nop
308E 00                         nop
308F 00                         nop
3090 00                         nop
3091 00                         nop
3092 00                         nop
3093 00                         nop
3094 00                         nop
3095 00                         nop
3096 00                         nop
3097 00                         nop
3098 00                         nop
3099 00                         nop
309A 00                         nop
309B 00                         nop
309C 00                         nop
309D 00                         nop
309E 00                         nop
309F 00                         nop
30A0 00                         nop
30A1 00                         nop
30A2 00                         nop
30A3 00                         nop
30A4 00                         nop
30A5 00                         nop
30A6 00                         nop
30A7 00                         nop
30A8 00                         nop
30A9 00                         nop
30AA 00                         nop
30AB 00                         nop
30AC 00                         nop
30AD 00                         nop
30AE 00                         nop
30AF 00                         nop
30B0 00                         nop
30B1 00                         nop
30B2 00                         nop
30B3 00                         nop
30B4 00                         nop
30B5 00                         nop
30B6 00                         nop
30B7 00                         nop
30B8 00                         nop
30B9 00                         nop
30BA 00                         nop
30BB 00                         nop
30BC 00                         nop
30BD 00                         nop
30BE 00                         nop
30BF 00                         nop
30C0 00                         nop
30C1 00                         nop
30C2 00                         nop
30C3 00                         nop
30C4 00                         nop
30C5 00                         nop
30C6 00                         nop
30C7 00                         nop
30C8 00                         nop
30C9 00                         nop
30CA 00                         nop
30CB 00                         nop
30CC 00                         nop
30CD 00                         nop
30CE 00                         nop
30CF 00                         nop
30D0 00                         nop
30D1 00                         nop
30D2 00                         nop
30D3 00                         nop
30D4 00                         nop
30D5 00                         nop
30D6 00                         nop
30D7 00                         nop
30D8 00                         nop
30D9 00                         nop
30DA 00                         nop
30DB 00                         nop
30DC 00                         nop
30DD 00                         nop
30DE 00                         nop
30DF 00                         nop
30E0 00                         nop
30E1 00                         nop
30E2 00                         nop
30E3 00                         nop
30E4 00                         nop
30E5 00                         nop
30E6 00                         nop
30E7 00                         nop
30E8 00                         nop
30E9 00                         nop
30EA 00                         nop
30EB 00                         nop
30EC 00                         nop
30ED 00                         nop
30EE 00                         nop
30EF 00                         nop
30F0 00                         nop
30F1 00                         nop
30F2 00                         nop
30F3 00                         nop
30F4 00                         nop
30F5 00                         nop
30F6 00                         nop
30F7 00                         nop
30F8 00                         nop
30F9 00                         nop
30FA 00                         nop
30FB 00                         nop
30FC 00                         nop
30FD 00                         nop
30FE 00                         nop
30FF 00                         nop
3100 00                         nop
3101 00                         nop
3102 00                         nop
3103 00                         nop
3104 00                         nop
3105 00                         nop
3106 00                         nop
3107 00                         nop
3108 00                         nop
3109 00                         nop
310A 00                         nop
310B 00                         nop
310C 00                         nop
310D 00                         nop
310E 00                         nop
310F 00                         nop
3110 00                         nop
3111 00                         nop
3112 00                         nop
3113 00                         nop
3114 00                         nop
3115 00                         nop
3116 00                         nop
3117 00                         nop
3118 00                         nop
3119 00                         nop
311A 00                         nop
311B 00                         nop
311C 00                         nop
311D 00                         nop
311E 00                         nop
311F 00                         nop
3120 00                         nop
3121 00                         nop
3122 00                         nop
3123 00                         nop
3124 00                         nop
3125 00                         nop
3126 00                         nop
3127 00                         nop
3128 00                         nop
3129 00                         nop
312A 00                         nop
312B 00                         nop
312C 00                         nop
312D 00                         nop
312E 00                         nop
312F 00                         nop
3130 00                         nop
3131 00                         nop
3132 00                         nop
3133 00                         nop
3134 00                         nop
3135 00                         nop
3136 00                         nop
3137 00                         nop
3138 00                         nop
3139 00                         nop
313A 00                         nop
313B 00                         nop
313C 00                         nop
313D 00                         nop
313E 00                         nop
313F 00                         nop
3140 00                         nop
3141 00                         nop
3142 00                         nop
3143 00                         nop
3144 00                         nop
3145 00                         nop
3146 00                         nop
3147 00                         nop
3148 00                         nop
3149 00                         nop
314A 00                         nop
314B 00                         nop
314C 00                         nop
314D 00                         nop
314E 00                         nop
314F 00                         nop
3150 00                         nop
3151 00                         nop
3152 00                         nop
3153 00                         nop
3154 00                         nop
3155 00                         nop
3156 00                         nop
3157 00                         nop
3158 00                         nop
3159 00                         nop
315A 00                         nop
315B 00                         nop
315C 00                         nop
315D 00                         nop
315E 00                         nop
315F 00                         nop
3160 00                         nop
3161 00                         nop
3162 00                         nop
3163 00                         nop
3164 00                         nop
3165 00                         nop
3166 00                         nop
3167 00                         nop
3168 00                         nop
3169 00                         nop
316A 00                         nop
316B 00                         nop
316C 00                         nop
316D 00                         nop
316E 00                         nop
316F 00                         nop
3170 00                         nop
3171 00                         nop
3172 00                         nop
3173 00                         nop
3174 00                         nop
3175 00                         nop
3176 00                         nop
3177 00                         nop
3178 00                         nop
3179 00                         nop
317A 00                         nop
317B 00                         nop
317C 00                         nop
317D 00                         nop
317E 00                         nop
317F 00                         nop
3180 00                         nop
3181 00                         nop
3182 00                         nop
3183 00                         nop
3184 00                         nop
3185 00                         nop
3186 00                         nop
3187 00                         nop
3188 00                         nop
3189 00                         nop
318A 00                         nop
318B 00                         nop
318C 00                         nop
318D 00                         nop
318E 00                         nop
318F 00                         nop
3190 00                         nop
3191 00                         nop
3192 00                         nop
3193 00                         nop
3194 00                         nop
3195 00                         nop
3196 00                         nop
3197 00                         nop
3198 00                         nop
3199 00                         nop
319A 00                         nop
319B 00                         nop
319C 00                         nop
319D 00                         nop
319E 00                         nop
319F 00                         nop
31A0 00                         nop
31A1 00                         nop
31A2 00                         nop
31A3 00                         nop
31A4 00                         nop
31A5 00                         nop
31A6 00                         nop
31A7 00                         nop
31A8 00                         nop
31A9 00                         nop
31AA 00                         nop
31AB 00                         nop
31AC 00                         nop
31AD 00                         nop
31AE 00                         nop
31AF 00                         nop
31B0 00                         nop
31B1 00                         nop
31B2 00                         nop
31B3 00                         nop
31B4 00                         nop
31B5 00                         nop
31B6 00                         nop
31B7 00                         nop
31B8 00                         nop
31B9 00                         nop
31BA 00                         nop
31BB 00                         nop
31BC 00                         nop
31BD 00                         nop
31BE 00                         nop
31BF 00                         nop
31C0 00                         nop
31C1 00                         nop
31C2 00                         nop
31C3 00                         nop
31C4 00                         nop
31C5 00                         nop
31C6 00                         nop
31C7 00                         nop
31C8 00                         nop
31C9 00                         nop
31CA 00                         nop
31CB 00                         nop
31CC 00                         nop
31CD 00                         nop
31CE 00                         nop
31CF 00                         nop
31D0 00                         nop
31D1 00                         nop
31D2 00                         nop
31D3 00                         nop
31D4 00                         nop
31D5 00                         nop
31D6 00                         nop
31D7 00                         nop
31D8 00                         nop
31D9 00                         nop
31DA 00                         nop
31DB 00                         nop
31DC 00                         nop
31DD 00                         nop
31DE 00                         nop
31DF 00                         nop
31E0 00                         nop
31E1 00                         nop
31E2 00                         nop
31E3 00                         nop
31E4 00                         nop
31E5 00                         nop
31E6 00                         nop
31E7 00                         nop
31E8 00                         nop
31E9 00                         nop
31EA 00                         nop
31EB 00                         nop
31EC 00                         nop
31ED 00                         nop
31EE 00                         nop
31EF 00                         nop
31F0 00                         nop
31F1 00                         nop
31F2 00                         nop
31F3 00                         nop
31F4 00                         nop
31F5 00                         nop
31F6 00                         nop
31F7 00                         nop
31F8 00                         nop
31F9 00                         nop
31FA 00                         nop
31FB 00                         nop
31FC 00                         nop
31FD 00                         nop
31FE 00                         nop
31FF 00                         nop
3200 00                         nop
3201 00                         nop
3202 00                         nop
3203 00                         nop
3204 00                         nop
3205 00                         nop
3206 00                         nop
3207 00                         nop
3208 00                         nop
3209 00                         nop
320A 00                         nop
320B 00                         nop
320C 00                         nop
320D 00                         nop
320E 00                         nop
320F 00                         nop
3210 00                         nop
3211 00                         nop
3212 00                         nop
3213 00                         nop
3214 00                         nop
3215 00                         nop
3216 00                         nop
3217 00                         nop
3218 00                         nop
3219 00                         nop
321A 00                         nop
321B 00                         nop
321C 00                         nop
321D 00                         nop
321E 00                         nop
321F 00                         nop
3220 00                         nop
3221 00                         nop
3222 00                         nop
3223 00                         nop
3224 00                         nop
3225 00                         nop
3226 00                         nop
3227 00                         nop
3228 00                         nop
3229 00                         nop
322A 00                         nop
322B 00                         nop
322C 00                         nop
322D 00                         nop
322E 00                         nop
322F 00                         nop
3230 00                         nop
3231 00                         nop
3232 00                         nop
3233 00                         nop
3234 00                         nop
3235 00                         nop
3236 00                         nop
3237 00                         nop
3238 00                         nop
3239 00                         nop
323A 00                         nop
323B 00                         nop
323C 00                         nop
323D 00                         nop
323E 00                         nop
323F 00                         nop
3240 00                         nop
3241 00                         nop
3242 00                         nop
3243 00                         nop
3244 00                         nop
3245 00                         nop
3246 00                         nop
3247 00                         nop
3248 00                         nop
3249 00                         nop
324A 00                         nop
324B 00                         nop
324C 00                         nop
324D 00                         nop
324E 00                         nop
324F 00                         nop
3250 00                         nop
3251 00                         nop
3252 00                         nop
3253 00                         nop
3254 00                         nop
3255 00                         nop
3256 00                         nop
3257 00                         nop
3258 00                         nop
3259 00                         nop
325A 00                         nop
325B 00                         nop
325C 00                         nop
325D 00                         nop
325E 00                         nop
325F 00                         nop
3260 00                         nop
3261 00                         nop
3262 00                         nop
3263 00                         nop
3264 00                         nop
3265 00                         nop
3266 00                         nop
3267 00                         nop
3268 00                         nop
3269 00                         nop
326A 00                         nop
326B 00                         nop
326C 00                         nop
326D 00                         nop
326E 00                         nop
326F 00                         nop
3270 00                         nop
3271 00                         nop
3272 00                         nop
3273 00                         nop
3274 00                         nop
3275 00                         nop
3276 00                         nop
3277 00                         nop
3278 00                         nop
3279 00                         nop
327A 00                         nop
327B 00                         nop
327C 00                         nop
327D 00                         nop
327E 00                         nop
327F 00                         nop
3280 00                         nop
3281 00                         nop
3282 00                         nop
3283 00                         nop
3284 00                         nop
3285 00                         nop
3286 00                         nop
3287 00                         nop
3288 00                         nop
3289 00                         nop
328A 00                         nop
328B 00                         nop
328C 00                         nop
328D 00                         nop
328E 00                         nop
328F 00                         nop
3290 00                         nop
3291 00                         nop
3292 00                         nop
3293 00                         nop
3294 00                         nop
3295 00                         nop
3296 00                         nop
3297 00                         nop
3298 00                         nop
3299 00                         nop
329A 00                         nop
329B 00                         nop
329C 00                         nop
329D 00                         nop
329E 00                         nop
329F 00                         nop
32A0 00                         nop
32A1 00                         nop
32A2 00                         nop
32A3 00                         nop
32A4 00                         nop
32A5 00                         nop
32A6 00                         nop
32A7 00                         nop
32A8 00                         nop
32A9 00                         nop
32AA 00                         nop
32AB 00                         nop
32AC 00                         nop
32AD 00                         nop
32AE 00                         nop
32AF 00                         nop
32B0 00                         nop
32B1 00                         nop
32B2 00                         nop
32B3 00                         nop
32B4 00                         nop
32B5 00                         nop
32B6 00                         nop
32B7 00                         nop
32B8 00                         nop
32B9 00                         nop
32BA 00                         nop
32BB 00                         nop
32BC 00                         nop
32BD 00                         nop
32BE 00                         nop
32BF 00                         nop
32C0 00                         nop
32C1 00                         nop
32C2 00                         nop
32C3 00                         nop
32C4 00                         nop
32C5 00                         nop
32C6 00                         nop
32C7 00                         nop
32C8 00                         nop
32C9 00                         nop
32CA 00                         nop
32CB 00                         nop
32CC 00                         nop
32CD 00                         nop
32CE 00                         nop
32CF 00                         nop
32D0 00                         nop
32D1 00                         nop
32D2 00                         nop
32D3 00                         nop
32D4 00                         nop
32D5 00                         nop
32D6 00                         nop
32D7 00                         nop
32D8 00                         nop
32D9 00                         nop
32DA 00                         nop
32DB 00                         nop
32DC 00                         nop
32DD 00                         nop
32DE 00                         nop
32DF 00                         nop
32E0 00                         nop
32E1 00                         nop
32E2 00                         nop
32E3 00                         nop
32E4 00                         nop
32E5 00                         nop
32E6 00                         nop
32E7 00                         nop
32E8 00                         nop
32E9 00                         nop
32EA 00                         nop
32EB 00                         nop
32EC 00                         nop
32ED 00                         nop
32EE 00                         nop
32EF 00                         nop
32F0 00                         nop
32F1 00                         nop
32F2 00                         nop
32F3 00                         nop
32F4 00                         nop
32F5 00                         nop
32F6 00                         nop
32F7 00                         nop
32F8 00                         nop
32F9 00                         nop
32FA 00                         nop
32FB 00                         nop
32FC 00                         nop
32FD 00                         nop
32FE 00                         nop
32FF 00                         nop
3300 00                         nop
3301 00                         nop
3302 00                         nop
3303 00                         nop
3304 00                         nop
3305 00                         nop
3306 00                         nop
3307 00                         nop
3308 00                         nop
3309 00                         nop
330A 00                         nop
330B 00                         nop
330C 00                         nop
330D 00                         nop
330E 00                         nop
330F 00                         nop
3310 00                         nop
3311 00                         nop
3312 00                         nop
3313 00                         nop
3314 00                         nop
3315 00                         nop
3316 00                         nop
3317 00                         nop
3318 00                         nop
3319 00                         nop
331A 00                         nop
331B 00                         nop
331C 00                         nop
331D 00                         nop
331E 00                         nop
331F 00                         nop
3320 00                         nop
3321 00                         nop
3322 00                         nop
3323 00                         nop
3324 00                         nop
3325 00                         nop
3326 00                         nop
3327 00                         nop
3328 00                         nop
3329 00                         nop
332A 00                         nop
332B 00                         nop
332C 00                         nop
332D 00                         nop
332E 00                         nop
332F 00                         nop
3330 00                         nop
3331 00                         nop
3332 00                         nop
3333 00                         nop
3334 00                         nop
3335 00                         nop
3336 00                         nop
3337 00                         nop
3338 00                         nop
3339 00                         nop
333A 00                         nop
333B 00                         nop
333C 00                         nop
333D 00                         nop
333E 00                         nop
333F 00                         nop
3340 00                         nop
3341 00                         nop
3342 00                         nop
3343 00                         nop
3344 00                         nop
3345 00                         nop
3346 00                         nop
3347 00                         nop
3348 00                         nop
3349 00                         nop
334A 00                         nop
334B 00                         nop
334C 00                         nop
334D 00                         nop
334E 00                         nop
334F 00                         nop
3350 00                         nop
3351 00                         nop
3352 00                         nop
3353 00                         nop
3354 00                         nop
3355 00                         nop
3356 00                         nop
3357 00                         nop
3358 00                         nop
3359 00                         nop
335A 00                         nop
335B 00                         nop
335C 00                         nop
335D 00                         nop
335E 00                         nop
335F 00                         nop
3360 00                         nop
3361 00                         nop
3362 00                         nop
3363 00                         nop
3364 00                         nop
3365 00                         nop
3366 00                         nop
3367 00                         nop
3368 00                         nop
3369 00                         nop
336A 00                         nop
336B 00                         nop
336C 00                         nop
336D 00                         nop
336E 00                         nop
336F 00                         nop
3370 00                         nop
3371 00                         nop
3372 00                         nop
3373 00                         nop
3374 00                         nop
3375 00                         nop
3376 00                         nop
3377 00                         nop
3378 00                         nop
3379 00                         nop
337A 00                         nop
337B 00                         nop
337C 00                         nop
337D 00                         nop
337E 00                         nop
337F 00                         nop
3380 00                         nop
3381 00                         nop
3382 00                         nop
3383 00                         nop
3384 00                         nop
3385 00                         nop
3386 00                         nop
3387 00                         nop
3388 00                         nop
3389 00                         nop
338A 00                         nop
338B 00                         nop
338C 00                         nop
338D 00                         nop
338E 00                         nop
338F 00                         nop
3390 00                         nop
3391 00                         nop
3392 00                         nop
3393 00                         nop
3394 00                         nop
3395 00                         nop
3396 00                         nop
3397 00                         nop
3398 00                         nop
3399 00                         nop
339A 00                         nop
339B 00                         nop
339C 00                         nop
339D 00                         nop
339E 00                         nop
339F 00                         nop
33A0 00                         nop
33A1 00                         nop
33A2 00                         nop
33A3 00                         nop
33A4 00                         nop
33A5 00                         nop
33A6 00                         nop
33A7 00                         nop
33A8 00                         nop
33A9 00                         nop
33AA 00                         nop
33AB 00                         nop
33AC 00                         nop
33AD 00                         nop
33AE 00                         nop
33AF 00                         nop
33B0 00                         nop
33B1 00                         nop
33B2 00                         nop
33B3 00                         nop
33B4 00                         nop
33B5 00                         nop
33B6 00                         nop
33B7 00                         nop
33B8 00                         nop
33B9 00                         nop
33BA 00                         nop
33BB 00                         nop
33BC 00                         nop
33BD 00                         nop
33BE 00                         nop
33BF 00                         nop
33C0 00                         nop
33C1 00                         nop
33C2 00                         nop
33C3 00                         nop
33C4 00                         nop
33C5 00                         nop
33C6 00                         nop
33C7 00                         nop
33C8 00                         nop
33C9 00                         nop
33CA 00                         nop
33CB 00                         nop
33CC 00                         nop
33CD 00                         nop
33CE 00                         nop
33CF 00                         nop
33D0 00                         nop
33D1 00                         nop
33D2 00                         nop
33D3 00                         nop
33D4 00                         nop
33D5 00                         nop
33D6 00                         nop
33D7 00                         nop
33D8 00                         nop
33D9 00                         nop
33DA 00                         nop
33DB 00                         nop
33DC 00                         nop
33DD 00                         nop
33DE 00                         nop
33DF 00                         nop
33E0 00                         nop
33E1 00                         nop
33E2 00                         nop
33E3 00                         nop
33E4 00                         nop
33E5 00                         nop
33E6 00                         nop
33E7 00                         nop
33E8 00                         nop
33E9 00                         nop
33EA 00                         nop
33EB 00                         nop
33EC 00                         nop
33ED 00                         nop
33EE 00                         nop
33EF 00                         nop
33F0 00                         nop
33F1 00                         nop
33F2 00                         nop
33F3 00                         nop
33F4 00                         nop
33F5 00                         nop
33F6 00                         nop
33F7 00                         nop
33F8 00                         nop
33F9 00                         nop
33FA 00                         nop
33FB 00                         nop
33FC 00                         nop
33FD 00                         nop
33FE 00                         nop
33FF 00                         nop
3400 00                         nop
3401 00                         nop
3402 00                         nop
3403 00                         nop
3404 00                         nop
3405 00                         nop
3406 00                         nop
3407 00                         nop
3408 00                         nop
3409 00                         nop
340A 00                         nop
340B 00                         nop
340C 00                         nop
340D 00                         nop
340E 00                         nop
340F 00                         nop
3410 00                         nop
3411 00                         nop
3412 00                         nop
3413 00                         nop
3414 00                         nop
3415 00                         nop
3416 00                         nop
3417 00                         nop
3418 00                         nop
3419 00                         nop
341A 00                         nop
341B 00                         nop
341C 00                         nop
341D 00                         nop
341E 00                         nop
341F 00                         nop
3420 00                         nop
3421 00                         nop
3422 00                         nop
3423 00                         nop
3424 00                         nop
3425 00                         nop
3426 00                         nop
3427 00                         nop
3428 00                         nop
3429 00                         nop
342A 00                         nop
342B 00                         nop
342C 00                         nop
342D 00                         nop
342E 00                         nop
342F 00                         nop
3430 00                         nop
3431 00                         nop
3432 00                         nop
3433 00                         nop
3434 00                         nop
3435 00                         nop
3436 00                         nop
3437 00                         nop
3438 00                         nop
3439 00                         nop
343A 00                         nop
343B 00                         nop
343C 00                         nop
343D 00                         nop
343E 00                         nop
343F 00                         nop
3440 00                         nop
3441 00                         nop
3442 00                         nop
3443 00                         nop
3444 00                         nop
3445 00                         nop
3446 00                         nop
3447 00                         nop
3448 00                         nop
3449 00                         nop
344A 00                         nop
344B 00                         nop
344C 00                         nop
344D 00                         nop
344E 00                         nop
344F 00                         nop
3450 00                         nop
3451 00                         nop
3452 00                         nop
3453 00                         nop
3454 00                         nop
3455 00                         nop
3456 00                         nop
3457 00                         nop
3458 00                         nop
3459 00                         nop
345A 00                         nop
345B 00                         nop
345C 00                         nop
345D 00                         nop
345E 00                         nop
345F 00                         nop
3460 00                         nop
3461 00                         nop
3462 00                         nop
3463 00                         nop
3464 00                         nop
3465 00                         nop
3466 00                         nop
3467 00                         nop
3468 00                         nop
3469 00                         nop
346A 00                         nop
346B 00                         nop
346C 00                         nop
346D 00                         nop
346E 00                         nop
346F 00                         nop
3470 00                         nop
3471 00                         nop
3472 00                         nop
3473 00                         nop
3474 00                         nop
3475 00                         nop
3476 00                         nop
3477 00                         nop
3478 00                         nop
3479 00                         nop
347A 00                         nop
347B 00                         nop
347C 00                         nop
347D 00                         nop
347E 00                         nop
347F 00                         nop
3480 00                         nop
3481 00                         nop
3482 00                         nop
3483 00                         nop
3484 00                         nop
3485 00                         nop
3486 00                         nop
3487 00                         nop
3488 00                         nop
3489 00                         nop
348A 00                         nop
348B 00                         nop
348C 00                         nop
348D 00                         nop
348E 00                         nop
348F 00                         nop
3490 00                         nop
3491 00                         nop
3492 00                         nop
3493 00                         nop
3494 00                         nop
3495 00                         nop
3496 00                         nop
3497 00                         nop
3498 00                         nop
3499 00                         nop
349A 00                         nop
349B 00                         nop
349C 00                         nop
349D 00                         nop
349E 00                         nop
349F 00                         nop
34A0 00                         nop
34A1 00                         nop
34A2 00                         nop
34A3 00                         nop
34A4 00                         nop
34A5 00                         nop
34A6 00                         nop
34A7 00                         nop
34A8 00                         nop
34A9 00                         nop
34AA 00                         nop
34AB 00                         nop
34AC 00                         nop
34AD 00                         nop
34AE 00                         nop
34AF 00                         nop
34B0 00                         nop
34B1 00                         nop
34B2 00                         nop
34B3 00                         nop
34B4 00                         nop
34B5 00                         nop
34B6 00                         nop
34B7 00                         nop
34B8 00                         nop
34B9 00                         nop
34BA 00                         nop
34BB 00                         nop
34BC 00                         nop
34BD 00                         nop
34BE 00                         nop
34BF 00                         nop
34C0 00                         nop
34C1 00                         nop
34C2 00                         nop
34C3 00                         nop
34C4 00                         nop
34C5 00                         nop
34C6 00                         nop
34C7 00                         nop
34C8 00                         nop
34C9 00                         nop
34CA 00                         nop
34CB 00                         nop
34CC 00                         nop
34CD 00                         nop
34CE 00                         nop
34CF 00                         nop
34D0 00                         nop
34D1 00                         nop
34D2 00                         nop
34D3 00                         nop
34D4 00                         nop
34D5 00                         nop
34D6 00                         nop
34D7 00                         nop
34D8 00                         nop
34D9 00                         nop
34DA 00                         nop
34DB 00                         nop
34DC 00                         nop
34DD 00                         nop
34DE 00                         nop
34DF 00                         nop
34E0 00                         nop
34E1 00                         nop
34E2 00                         nop
34E3 00                         nop
34E4 00                         nop
34E5 00                         nop
34E6 00                         nop
34E7 00                         nop
34E8 00                         nop
34E9 00                         nop
34EA 00                         nop
34EB 00                         nop
34EC 00                         nop
34ED 00                         nop
34EE 00                         nop
34EF 00                         nop
34F0 00                         nop
34F1 00                         nop
34F2 00                         nop
34F3 00                         nop
34F4 00                         nop
34F5 00                         nop
34F6 00                         nop
34F7 00                         nop
34F8 00                         nop
34F9 00                         nop
34FA 00                         nop
34FB 00                         nop
34FC 00                         nop
34FD 00                         nop
34FE 00                         nop
34FF 00                         nop
3500 00                         nop
3501 00                         nop
3502 00                         nop
3503 00                         nop
3504 00                         nop
3505 00                         nop
3506 00                         nop
3507 00                         nop
3508 00                         nop
3509 00                         nop
350A 00                         nop
350B 00                         nop
350C 00                         nop
350D 00                         nop
350E 00                         nop
350F 00                         nop
3510 00                         nop
3511 00                         nop
3512 00                         nop
3513 00                         nop
3514 00                         nop
3515 00                         nop
3516 00                         nop
3517 00                         nop
3518 00                         nop
3519 00                         nop
351A 00                         nop
351B 00                         nop
351C 00                         nop
351D 00                         nop
351E 00                         nop
351F 00                         nop
3520 00                         nop
3521 00                         nop
3522 00                         nop
3523 00                         nop
3524 00                         nop
3525 00                         nop
3526 00                         nop
3527 00                         nop
3528 00                         nop
3529 00                         nop
352A 00                         nop
352B 00                         nop
352C 00                         nop
352D 00                         nop
352E 00                         nop
352F 00                         nop
3530 00                         nop
3531 00                         nop
3532 00                         nop
3533 00                         nop
3534 00                         nop
3535 00                         nop
3536 00                         nop
3537 00                         nop
3538 00                         nop
3539 00                         nop
353A 00                         nop
353B 00                         nop
353C 00                         nop
353D 00                         nop
353E 00                         nop
353F 00                         nop
3540 00                         nop
3541 00                         nop
3542 00                         nop
3543 00                         nop
3544 00                         nop
3545 00                         nop
3546 00                         nop
3547 00                         nop
3548 00                         nop
3549 00                         nop
354A 00                         nop
354B 00                         nop
354C 00                         nop
354D 00                         nop
354E 00                         nop
354F 00                         nop
3550 00                         nop
3551 00                         nop
3552 00                         nop
3553 00                         nop
3554 00                         nop
3555 00                         nop
3556 00                         nop
3557 00                         nop
3558 00                         nop
3559 00                         nop
355A 00                         nop
355B 00                         nop
355C 00                         nop
355D 00                         nop
355E 00                         nop
355F 00                         nop
3560 00                         nop
3561 00                         nop
3562 00                         nop
3563 00                         nop
3564 00                         nop
3565 00                         nop
3566 00                         nop
3567 00                         nop
3568 00                         nop
3569 00                         nop
356A 00                         nop
356B 00                         nop
356C 00                         nop
356D 00                         nop
356E 00                         nop
356F 00                         nop
3570 00                         nop
3571 00                         nop
3572 00                         nop
3573 00                         nop
3574 00                         nop
3575 00                         nop
3576 00                         nop
3577 00                         nop
3578 00                         nop
3579 00                         nop
357A 00                         nop
357B 00                         nop
357C 00                         nop
357D 00                         nop
357E 00                         nop
357F 00                         nop
3580 00                         nop
3581 00                         nop
3582 00                         nop
3583 00                         nop
3584 00                         nop
3585 00                         nop
3586 00                         nop
3587 00                         nop
3588 00                         nop
3589 00                         nop
358A 00                         nop
358B 00                         nop
358C 00                         nop
358D 00                         nop
358E 00                         nop
358F 00                         nop
3590 00                         nop
3591 00                         nop
3592 00                         nop
3593 00                         nop
3594 00                         nop
3595 00                         nop
3596 00                         nop
3597 00                         nop
3598 00                         nop
3599 00                         nop
359A 00                         nop
359B 00                         nop
359C 00                         nop
359D 00                         nop
359E 00                         nop
359F 00                         nop
35A0 00                         nop
35A1 00                         nop
35A2 00                         nop
35A3 00                         nop
35A4 00                         nop
35A5 00                         nop
35A6 00                         nop
35A7 00                         nop
35A8 00                         nop
35A9 00                         nop
35AA 00                         nop
35AB 00                         nop
35AC 00                         nop
35AD 00                         nop
35AE 00                         nop
35AF 00                         nop
35B0 00                         nop
35B1 00                         nop
35B2 00                         nop
35B3 00                         nop
35B4 00                         nop
35B5 00                         nop
35B6 00                         nop
35B7 00                         nop
35B8 00                         nop
35B9 00                         nop
35BA 00                         nop
35BB 00                         nop
35BC 00                         nop
35BD 00                         nop
35BE 00                         nop
35BF 00                         nop
35C0 00                         nop
35C1 00                         nop
35C2 00                         nop
35C3 00                         nop
35C4 00                         nop
35C5 00                         nop
35C6 00                         nop
35C7 00                         nop
35C8 00                         nop
35C9 00                         nop
35CA 00                         nop
35CB 00                         nop
35CC 00                         nop
35CD 00                         nop
35CE 00                         nop
35CF 00                         nop
35D0 00                         nop
35D1 00                         nop
35D2 00                         nop
35D3 00                         nop
35D4 00                         nop
35D5 00                         nop
35D6 00                         nop
35D7 00                         nop
35D8 00                         nop
35D9 00                         nop
35DA 00                         nop
35DB 00                         nop
35DC 00                         nop
35DD 00                         nop
35DE 00                         nop
35DF 00                         nop
35E0 00                         nop
35E1 00                         nop
35E2 00                         nop
35E3 00                         nop
35E4 00                         nop
35E5 00                         nop
35E6 00                         nop
35E7 00                         nop
35E8 00                         nop
35E9 00                         nop
35EA 00                         nop
35EB 00                         nop
35EC 00                         nop
35ED 00                         nop
35EE 00                         nop
35EF 00                         nop
35F0 00                         nop
35F1 00                         nop
35F2 00                         nop
35F3 00                         nop
35F4 00                         nop
35F5 00                         nop
35F6 00                         nop
35F7 00                         nop
35F8 00                         nop
35F9 00                         nop
35FA 00                         nop
35FB 00                         nop
35FC 00                         nop
35FD 00                         nop
35FE 00                         nop
35FF 00                         nop
3600 00                         nop
3601 00                         nop
3602 00                         nop
3603 00                         nop
3604 00                         nop
3605 00                         nop
3606 00                         nop
3607 00                         nop
3608 00                         nop
3609 00                         nop
360A 00                         nop
360B 00                         nop
360C 00                         nop
360D 00                         nop
360E 00                         nop
360F 00                         nop
3610 00                         nop
3611 00                         nop
3612 00                         nop
3613 00                         nop
3614 00                         nop
3615 00                         nop
3616 00                         nop
3617 00                         nop
3618 00                         nop
3619 00                         nop
361A 00                         nop
361B 00                         nop
361C 00                         nop
361D 00                         nop
361E 00                         nop
361F 00                         nop
3620 00                         nop
3621 00                         nop
3622 00                         nop
3623 00                         nop
3624 00                         nop
3625 00                         nop
3626 00                         nop
3627 00                         nop
3628 00                         nop
3629 00                         nop
362A 00                         nop
362B 00                         nop
362C 00                         nop
362D 00                         nop
362E 00                         nop
362F 00                         nop
3630 00                         nop
3631 00                         nop
3632 00                         nop
3633 00                         nop
3634 00                         nop
3635 00                         nop
3636 00                         nop
3637 00                         nop
3638 00                         nop
3639 00                         nop
363A 00                         nop
363B 00                         nop
363C 00                         nop
363D 00                         nop
363E 00                         nop
363F 00                         nop
3640 00                         nop
3641 00                         nop
3642 00                         nop
3643 00                         nop
3644 00                         nop
3645 00                         nop
3646 00                         nop
3647 00                         nop
3648 00                         nop
3649 00                         nop
364A 00                         nop
364B 00                         nop
364C 00                         nop
364D 00                         nop
364E 00                         nop
364F 00                         nop
3650 00                         nop
3651 00                         nop
3652 00                         nop
3653 00                         nop
3654 00                         nop
3655 00                         nop
3656 00                         nop
3657 00                         nop
3658 00                         nop
3659 00                         nop
365A 00                         nop
365B 00                         nop
365C 00                         nop
365D 00                         nop
365E 00                         nop
365F 00                         nop
3660 00                         nop
3661 00                         nop
3662 00                         nop
3663 00                         nop
3664 00                         nop
3665 00                         nop
3666 00                         nop
3667 00                         nop
3668 00                         nop
3669 00                         nop
366A 00                         nop
366B 00                         nop
366C 00                         nop
366D 00                         nop
366E 00                         nop
366F 00                         nop
3670 00                         nop
3671 00                         nop
3672 00                         nop
3673 00                         nop
3674 00                         nop
3675 00                         nop
3676 00                         nop
3677 00                         nop
3678 00                         nop
3679 00                         nop
367A 00                         nop
367B 00                         nop
367C 00                         nop
367D 00                         nop
367E 00                         nop
367F 00                         nop
3680 00                         nop
3681 00                         nop
3682 00                         nop
3683 00                         nop
3684 00                         nop
3685 00                         nop
3686 00                         nop
3687 00                         nop
3688 00                         nop
3689 00                         nop
368A 00                         nop
368B 00                         nop
368C 00                         nop
368D 00                         nop
368E 00                         nop
368F 00                         nop
3690 00                         nop
3691 00                         nop
3692 00                         nop
3693 00                         nop
3694 00                         nop
3695 00                         nop
3696 00                         nop
3697 00                         nop
3698 00                         nop
3699 00                         nop
369A 00                         nop
369B 00                         nop
369C 00                         nop
369D 00                         nop
369E 00                         nop
369F 00                         nop
36A0 00                         nop
36A1 00                         nop
36A2 00                         nop
36A3 00                         nop
36A4 00                         nop
36A5 00                         nop
36A6 00                         nop
36A7 00                         nop
36A8 00                         nop
36A9 00                         nop
36AA 00                         nop
36AB 00                         nop
36AC 00                         nop
36AD 00                         nop
36AE 00                         nop
36AF 00                         nop
36B0 00                         nop
36B1 00                         nop
36B2 00                         nop
36B3 00                         nop
36B4 00                         nop
36B5 00                         nop
36B6 00                         nop
36B7 00                         nop
36B8 00                         nop
36B9 00                         nop
36BA 00                         nop
36BB 00                         nop
36BC 00                         nop
36BD 00                         nop
36BE 00                         nop
36BF 00                         nop
36C0 00                         nop
36C1 00                         nop
36C2 00                         nop
36C3 00                         nop
36C4 00                         nop
36C5 00                         nop
36C6 00                         nop
36C7 00                         nop
36C8 00                         nop
36C9 00                         nop
36CA 00                         nop
36CB 00                         nop
36CC 00                         nop
36CD 00                         nop
36CE 00                         nop
36CF 00                         nop
36D0 00                         nop
36D1 00                         nop
36D2 00                         nop
36D3 00                         nop
36D4 00                         nop
36D5 00                         nop
36D6 00                         nop
36D7 00                         nop
36D8 00                         nop
36D9 00                         nop
36DA 00                         nop
36DB 00                         nop
36DC 00                         nop
36DD 00                         nop
36DE 00                         nop
36DF 00                         nop
36E0 00                         nop
36E1 00                         nop
36E2 00                         nop
36E3 00                         nop
36E4 00                         nop
36E5 00                         nop
36E6 00                         nop
36E7 00                         nop
36E8 00                         nop
36E9 00                         nop
36EA 00                         nop
36EB 00                         nop
36EC 00                         nop
36ED 00                         nop
36EE 00                         nop
36EF 00                         nop
36F0 00                         nop
36F1 00                         nop
36F2 00                         nop
36F3 00                         nop
36F4 00                         nop
36F5 00                         nop
36F6 00                         nop
36F7 00                         nop
36F8 00                         nop
36F9 00                         nop
36FA 00                         nop
36FB 00                         nop
36FC 00                         nop
36FD 00                         nop
36FE 00                         nop
36FF 00                         nop
3700 00                         nop
3701 00                         nop
3702 00                         nop
3703 00                         nop
3704 00                         nop
3705 00                         nop
3706 00                         nop
3707 00                         nop
3708 00                         nop
3709 00                         nop
370A 00                         nop
370B 00                         nop
370C 00                         nop
370D 00                         nop
370E 00                         nop
370F 00                         nop
3710 00                         nop
3711 00                         nop
3712 00                         nop
3713 00                         nop
3714 00                         nop
3715 00                         nop
3716 00                         nop
3717 00                         nop
3718 00                         nop
3719 00                         nop
371A 00                         nop
371B 00                         nop
371C 00                         nop
371D 00                         nop
371E 00                         nop
371F 00                         nop
3720 00                         nop
3721 00                         nop
3722 00                         nop
3723 00                         nop
3724 00                         nop
3725 00                         nop
3726 00                         nop
3727 00                         nop
3728 00                         nop
3729 00                         nop
372A 00                         nop
372B 00                         nop
372C 00                         nop
372D 00                         nop
372E 00                         nop
372F 00                         nop
3730 00                         nop
3731 00                         nop
3732 00                         nop
3733 00                         nop
3734 00                         nop
3735 00                         nop
3736 00                         nop
3737 00                         nop
3738 00                         nop
3739 00                         nop
373A 00                         nop
373B 00                         nop
373C 00                         nop
373D 00                         nop
373E 00                         nop
373F 00                         nop
3740 00                         nop
3741 00                         nop
3742 00                         nop
3743 00                         nop
3744 00                         nop
3745 00                         nop
3746 00                         nop
3747 00                         nop
3748 00                         nop
3749 00                         nop
374A 00                         nop
374B 00                         nop
374C 00                         nop
374D 00                         nop
374E 00                         nop
374F 00                         nop
3750 00                         nop
3751 00                         nop
3752 00                         nop
3753 00                         nop
3754 00                         nop
3755 00                         nop
3756 00                         nop
3757 00                         nop
3758 00                         nop
3759 00                         nop
375A 00                         nop
375B 00                         nop
375C 00                         nop
375D 00                         nop
375E 00                         nop
375F 00                         nop
3760 00                         nop
3761 00                         nop
3762 00                         nop
3763 00                         nop
3764 00                         nop
3765 00                         nop
3766 00                         nop
3767 00                         nop
3768 00                         nop
3769 00                         nop
376A 00                         nop
376B 00                         nop
376C 00                         nop
376D 00                         nop
376E 00                         nop
376F 00                         nop
3770 00                         nop
3771 00                         nop
3772 00                         nop
3773 00                         nop
3774 00                         nop
3775 00                         nop
3776 00                         nop
3777 00                         nop
3778 00                         nop
3779 00                         nop
377A 00                         nop
377B 00                         nop
377C 00                         nop
377D 00                         nop
377E 00                         nop
377F 00                         nop
3780 00                         nop
3781 00                         nop
3782 00                         nop
3783 00                         nop
3784 00                         nop
3785 00                         nop
3786 00                         nop
3787 00                         nop
3788 00                         nop
3789 00                         nop
378A 00                         nop
378B 00                         nop
378C 00                         nop
378D 00                         nop
378E 00                         nop
378F 00                         nop
3790 00                         nop
3791 00                         nop
3792 00                         nop
3793 00                         nop
3794 00                         nop
3795 00                         nop
3796 00                         nop
3797 00                         nop
3798 00                         nop
3799 00                         nop
379A 00                         nop
379B 00                         nop
379C 00                         nop
379D 00                         nop
379E 00                         nop
379F 00                         nop
37A0 00                         nop
37A1 00                         nop
37A2 00                         nop
37A3 00                         nop
37A4 00                         nop
37A5 00                         nop
37A6 00                         nop
37A7 00                         nop
37A8 00                         nop
37A9 00                         nop
37AA 00                         nop
37AB 00                         nop
37AC 00                         nop
37AD 00                         nop
37AE 00                         nop
37AF 00                         nop
37B0 00                         nop
37B1 00                         nop
37B2 00                         nop
37B3 00                         nop
37B4 00                         nop
37B5 00                         nop
37B6 00                         nop
37B7 00                         nop
37B8 00                         nop
37B9 00                         nop
37BA 00                         nop
37BB 00                         nop
37BC 00                         nop
37BD 00                         nop
37BE 00                         nop
37BF 00                         nop
37C0 00                         nop
37C1 00                         nop
37C2 00                         nop
37C3 00                         nop
37C4 00                         nop
37C5 00                         nop
37C6 00                         nop
37C7 00                         nop
37C8 00                         nop
37C9 00                         nop
37CA 00                         nop
37CB 00                         nop
37CC 00                         nop
37CD 00                         nop
37CE 00                         nop
37CF 00                         nop
37D0 00                         nop
37D1 00                         nop
37D2 00                         nop
37D3 00                         nop
37D4 00                         nop
37D5 00                         nop
37D6 00                         nop
37D7 00                         nop
37D8 00                         nop
37D9 00                         nop
37DA 00                         nop
37DB 00                         nop
37DC 00                         nop
37DD 00                         nop
37DE 00                         nop
37DF 00                         nop
37E0 00                         nop
37E1 00                         nop
37E2 00                         nop
37E3 00                         nop
37E4 00                         nop
37E5 00                         nop
37E6 00                         nop
37E7 00                         nop
37E8 00                         nop
37E9 00                         nop
37EA 00                         nop
37EB 00                         nop
37EC 00                         nop
37ED 00                         nop
37EE 00                         nop
37EF 00                         nop
37F0 00                         nop
37F1 00                         nop
37F2 00                         nop
37F3 00                         nop
37F4 00                         nop
37F5 00                         nop
37F6 00                         nop
37F7 00                         nop
37F8 00                         nop
37F9 00                         nop
37FA 00                         nop
37FB 00                         nop
37FC 00                         nop
37FD 00                         nop
37FE 00                         nop
37FF 00                         nop
3800 00                         nop
3801 00                         nop
3802 00                         nop
3803 00                         nop
3804 00                         nop
3805 00                         nop
3806 00                         nop
3807 00                         nop
3808 00                         nop
3809 00                         nop
380A 00                         nop
380B 00                         nop
380C 00                         nop
380D 00                         nop
380E 00                         nop
380F 00                         nop
3810 00                         nop
3811 00                         nop
3812 00                         nop
3813 00                         nop
3814 00                         nop
3815 00                         nop
3816 00                         nop
3817 00                         nop
3818 00                         nop
3819 00                         nop
381A 00                         nop
381B 00                         nop
381C 00                         nop
381D 00                         nop
381E 00                         nop
381F 00                         nop
3820 00                         nop
3821 00                         nop
3822 00                         nop
3823 00                         nop
3824 00                         nop
3825 00                         nop
3826 00                         nop
3827 00                         nop
3828 00                         nop
3829 00                         nop
382A 00                         nop
382B 00                         nop
382C 00                         nop
382D 00                         nop
382E 00                         nop
382F 00                         nop
3830 00                         nop
3831 00                         nop
3832 00                         nop
3833 00                         nop
3834 00                         nop
3835 00                         nop
3836 00                         nop
3837 00                         nop
3838 00                         nop
3839 00                         nop
383A 00                         nop
383B 00                         nop
383C 00                         nop
383D 00                         nop
383E 00                         nop
383F 00                         nop
3840 00                         nop
3841 00                         nop
3842 00                         nop
3843 00                         nop
3844 00                         nop
3845 00                         nop
3846 00                         nop
3847 00                         nop
3848 00                         nop
3849 00                         nop
384A 00                         nop
384B 00                         nop
384C 00                         nop
384D 00                         nop
384E 00                         nop
384F 00                         nop
3850 00                         nop
3851 00                         nop
3852 00                         nop
3853 00                         nop
3854 00                         nop
3855 00                         nop
3856 00                         nop
3857 00                         nop
3858 00                         nop
3859 00                         nop
385A 00                         nop
385B 00                         nop
385C 00                         nop
385D 00                         nop
385E 00                         nop
385F 00                         nop
3860 00                         nop
3861 00                         nop
3862 00                         nop
3863 00                         nop
3864 00                         nop
3865 00                         nop
3866 00                         nop
3867 00                         nop
3868 00                         nop
3869 00                         nop
386A 00                         nop
386B 00                         nop
386C 00                         nop
386D 00                         nop
386E 00                         nop
386F 00                         nop
3870 00                         nop
3871 00                         nop
3872 00                         nop
3873 00                         nop
3874 00                         nop
3875 00                         nop
3876 00                         nop
3877 00                         nop
3878 00                         nop
3879 00                         nop
387A 00                         nop
387B 00                         nop
387C 00                         nop
387D 00                         nop
387E 00                         nop
387F 00                         nop
3880 00                         nop
3881 00                         nop
3882 00                         nop
3883 00                         nop
3884 00                         nop
3885 00                         nop
3886 00                         nop
3887 00                         nop
3888 00                         nop
3889 00                         nop
388A 00                         nop
388B 00                         nop
388C 00                         nop
388D 00                         nop
388E 00                         nop
388F 00                         nop
3890 00                         nop
3891 00                         nop
3892 00                         nop
3893 00                         nop
3894 00                         nop
3895 00                         nop
3896 00                         nop
3897 00                         nop
3898 00                         nop
3899 00                         nop
389A 00                         nop
389B 00                         nop
389C 00                         nop
389D 00                         nop
389E 00                         nop
389F 00                         nop
38A0 00                         nop
38A1 00                         nop
38A2 00                         nop
38A3 00                         nop
38A4 00                         nop
38A5 00                         nop
38A6 00                         nop
38A7 00                         nop
38A8 00                         nop
38A9 00                         nop
38AA 00                         nop
38AB 00                         nop
38AC 00                         nop
38AD 00                         nop
38AE 00                         nop
38AF 00                         nop
38B0 00                         nop
38B1 00                         nop
38B2 00                         nop
38B3 00                         nop
38B4 00                         nop
38B5 00                         nop
38B6 00                         nop
38B7 00                         nop
38B8 00                         nop
38B9 00                         nop
38BA 00                         nop
38BB 00                         nop
38BC 00                         nop
38BD 00                         nop
38BE 00                         nop
38BF 00                         nop
38C0 00                         nop
38C1 00                         nop
38C2 00                         nop
38C3 00                         nop
38C4 00                         nop
38C5 00                         nop
38C6 00                         nop
38C7 00                         nop
38C8 00                         nop
38C9 00                         nop
38CA 00                         nop
38CB 00                         nop
38CC 00                         nop
38CD 00                         nop
38CE 00                         nop
38CF 00                         nop
38D0 00                         nop
38D1 00                         nop
38D2 00                         nop
38D3 00                         nop
38D4 00                         nop
38D5 00                         nop
38D6 00                         nop
38D7 00                         nop
38D8 00                         nop
38D9 00                         nop
38DA 00                         nop
38DB 00                         nop
38DC 00                         nop
38DD 00                         nop
38DE 00                         nop
38DF 00                         nop
38E0 00                         nop
38E1 00                         nop
38E2 00                         nop
38E3 00                         nop
38E4 00                         nop
38E5 00                         nop
38E6 00                         nop
38E7 00                         nop
38E8 00                         nop
38E9 00                         nop
38EA 00                         nop
38EB 00                         nop
38EC 00                         nop
38ED 00                         nop
38EE 00                         nop
38EF 00                         nop
38F0 00                         nop
38F1 00                         nop
38F2 00                         nop
38F3 00                         nop
38F4 00                         nop
38F5 00                         nop
38F6 00                         nop
38F7 00                         nop
38F8 00                         nop
38F9 00                         nop
38FA 00                         nop
38FB 00                         nop
38FC 00                         nop
38FD 00                         nop
38FE 00                         nop
38FF 00                         nop
3900 00                         nop
3901 00                         nop
3902 00                         nop
3903 00                         nop
3904 00                         nop
3905 00                         nop
3906 00                         nop
3907 00                         nop
3908 00                         nop
3909 00                         nop
390A 00                         nop
390B 00                         nop
390C 00                         nop
390D 00                         nop
390E 00                         nop
390F 00                         nop
3910 00                         nop
3911 00                         nop
3912 00                         nop
3913 00                         nop
3914 00                         nop
3915 00                         nop
3916 00                         nop
3917 00                         nop
3918 00                         nop
3919 00                         nop
391A 00                         nop
391B 00                         nop
391C 00                         nop
391D 00                         nop
391E 00                         nop
391F 00                         nop
3920 00                         nop
3921 00                         nop
3922 00                         nop
3923 00                         nop
3924 00                         nop
3925 00                         nop
3926 00                         nop
3927 00                         nop
3928 00                         nop
3929 00                         nop
392A 00                         nop
392B 00                         nop
392C 00                         nop
392D 00                         nop
392E 00                         nop
392F 00                         nop
3930 00                         nop
3931 00                         nop
3932 00                         nop
3933 00                         nop
3934 00                         nop
3935 00                         nop
3936 00                         nop
3937 00                         nop
3938 00                         nop
3939 00                         nop
393A 00                         nop
393B 00                         nop
393C 00                         nop
393D 00                         nop
393E 00                         nop
393F 00                         nop
3940 00                         nop
3941 00                         nop
3942 00                         nop
3943 00                         nop
3944 00                         nop
3945 00                         nop
3946 00                         nop
3947 00                         nop
3948 00                         nop
3949 00                         nop
394A 00                         nop
394B 00                         nop
394C 00                         nop
394D 00                         nop
394E 00                         nop
394F 00                         nop
3950 00                         nop
3951 00                         nop
3952 00                         nop
3953 00                         nop
3954 00                         nop
3955 00                         nop
3956 00                         nop
3957 00                         nop
3958 00                         nop
3959 00                         nop
395A 00                         nop
395B 00                         nop
395C 00                         nop
395D 00                         nop
395E 00                         nop
395F 00                         nop
3960 00                         nop
3961 00                         nop
3962 00                         nop
3963 00                         nop
3964 00                         nop
3965 00                         nop
3966 00                         nop
3967 00                         nop
3968 00                         nop
3969 00                         nop
396A 00                         nop
396B 00                         nop
396C 00                         nop
396D 00                         nop
396E 00                         nop
396F 00                         nop
3970 00                         nop
3971 00                         nop
3972 00                         nop
3973 00                         nop
3974 00                         nop
3975 00                         nop
3976 00                         nop
3977 00                         nop
3978 00                         nop
3979 00                         nop
397A 00                         nop
397B 00                         nop
397C 00                         nop
397D 00                         nop
397E 00                         nop
397F 00                         nop
3980 00                         nop
3981 00                         nop
3982 00                         nop
3983 00                         nop
3984 00                         nop
3985 00                         nop
3986 00                         nop
3987 00                         nop
3988 00                         nop
3989 00                         nop
398A 00                         nop
398B 00                         nop
398C 00                         nop
398D 00                         nop
398E 00                         nop
398F 00                         nop
3990 00                         nop
3991 00                         nop
3992 00                         nop
3993 00                         nop
3994 00                         nop
3995 00                         nop
3996 00                         nop
3997 00                         nop
3998 00                         nop
3999 00                         nop
399A 00                         nop
399B 00                         nop
399C 00                         nop
399D 00                         nop
399E 00                         nop
399F 00                         nop
39A0 00                         nop
39A1 00                         nop
39A2 00                         nop
39A3 00                         nop
39A4 00                         nop
39A5 00                         nop
39A6 00                         nop
39A7 00                         nop
39A8 00                         nop
39A9 00                         nop
39AA 00                         nop
39AB 00                         nop
39AC 00                         nop
39AD 00                         nop
39AE 00                         nop
39AF 00                         nop
39B0 00                         nop
39B1 00                         nop
39B2 00                         nop
39B3 00                         nop
39B4 00                         nop
39B5 00                         nop
39B6 00                         nop
39B7 00                         nop
39B8 00                         nop
39B9 00                         nop
39BA 00                         nop
39BB 00                         nop
39BC 00                         nop
39BD 00                         nop
39BE 00                         nop
39BF 00                         nop
39C0 00                         nop
39C1 00                         nop
39C2 00                         nop
39C3 00                         nop
39C4 00                         nop
39C5 00                         nop
39C6 00                         nop
39C7 00                         nop
39C8 00                         nop
39C9 00                         nop
39CA 00                         nop
39CB 00                         nop
39CC 00                         nop
39CD 00                         nop
39CE 00                         nop
39CF 00                         nop
39D0 00                         nop
39D1 00                         nop
39D2 00                         nop
39D3 00                         nop
39D4 00                         nop
39D5 00                         nop
39D6 00                         nop
39D7 00                         nop
39D8 00                         nop
39D9 00                         nop
39DA 00                         nop
39DB 00                         nop
39DC 00                         nop
39DD 00                         nop
39DE 00                         nop
39DF 00                         nop
39E0 00                         nop
39E1 00                         nop
39E2 00                         nop
39E3 00                         nop
39E4 00                         nop
39E5 00                         nop
39E6 00                         nop
39E7 00                         nop
39E8 00                         nop
39E9 00                         nop
39EA 00                         nop
39EB 00                         nop
39EC 00                         nop
39ED 00                         nop
39EE 00                         nop
39EF 00                         nop
39F0 00                         nop
39F1 00                         nop
39F2 00                         nop
39F3 00                         nop
39F4 00                         nop
39F5 00                         nop
39F6 00                         nop
39F7 00                         nop
39F8 00                         nop
39F9 00                         nop
39FA 00                         nop
39FB 00                         nop
39FC 00                         nop
39FD 00                         nop
39FE 00                         nop
39FF 00                         nop
3A00 00                         nop
3A01 00                         nop
3A02 00                         nop
3A03 00                         nop
3A04 00                         nop
3A05 00                         nop
3A06 00                         nop
3A07 00                         nop
3A08 00                         nop
3A09 00                         nop
3A0A 00                         nop
3A0B 00                         nop
3A0C 00                         nop
3A0D 00                         nop
3A0E 00                         nop
3A0F 00                         nop
3A10 00                         nop
3A11 00                         nop
3A12 00                         nop
3A13 00                         nop
3A14 00                         nop
3A15 00                         nop
3A16 00                         nop
3A17 00                         nop
3A18 00                         nop
3A19 00                         nop
3A1A 00                         nop
3A1B 00                         nop
3A1C 00                         nop
3A1D 00                         nop
3A1E 00                         nop
3A1F 00                         nop
3A20 00                         nop
3A21 00                         nop
3A22 00                         nop
3A23 00                         nop
3A24 00                         nop
3A25 00                         nop
3A26 00                         nop
3A27 00                         nop
3A28 00                         nop
3A29 00                         nop
3A2A 00                         nop
3A2B 00                         nop
3A2C 00                         nop
3A2D 00                         nop
3A2E 00                         nop
3A2F 00                         nop
3A30 00                         nop
3A31 00                         nop
3A32 00                         nop
3A33 00                         nop
3A34 00                         nop
3A35 00                         nop
3A36 00                         nop
3A37 00                         nop
3A38 00                         nop
3A39 00                         nop
3A3A 00                         nop
3A3B 00                         nop
3A3C 00                         nop
3A3D 00                         nop
3A3E 00                         nop
3A3F 00                         nop
3A40 00                         nop
3A41 00                         nop
3A42 00                         nop
3A43 00                         nop
3A44 00                         nop
3A45 00                         nop
3A46 00                         nop
3A47 00                         nop
3A48 00                         nop
3A49 00                         nop
3A4A 00                         nop
3A4B 00                         nop
3A4C 00                         nop
3A4D 00                         nop
3A4E 00                         nop
3A4F 00                         nop
3A50 00                         nop
3A51 00                         nop
3A52 00                         nop
3A53 00                         nop
3A54 00                         nop
3A55 00                         nop
3A56 00                         nop
3A57 00                         nop
3A58 00                         nop
3A59 00                         nop
3A5A 00                         nop
3A5B 00                         nop
3A5C 00                         nop
3A5D 00                         nop
3A5E 00                         nop
3A5F 00                         nop
3A60 00                         nop
3A61 00                         nop
3A62 00                         nop
3A63 00                         nop
3A64 00                         nop
3A65 00                         nop
3A66 00                         nop
3A67 00                         nop
3A68 00                         nop
3A69 00                         nop
3A6A 00                         nop
3A6B 00                         nop
3A6C 00                         nop
3A6D 00                         nop
3A6E 00                         nop
3A6F 00                         nop
3A70 00                         nop
3A71 00                         nop
3A72 00                         nop
3A73 00                         nop
3A74 00                         nop
3A75 00                         nop
3A76 00                         nop
3A77 00                         nop
3A78 00                         nop
3A79 00                         nop
3A7A 00                         nop
3A7B 00                         nop
3A7C 00                         nop
3A7D 00                         nop
3A7E 00                         nop
3A7F 00                         nop
3A80 00                         nop
3A81 00                         nop
3A82 00                         nop
3A83 00                         nop
3A84 00                         nop
3A85 00                         nop
3A86 00                         nop
3A87 00                         nop
3A88 00                         nop
3A89 00                         nop
3A8A 00                         nop
3A8B 00                         nop
3A8C 00                         nop
3A8D 00                         nop
3A8E 00                         nop
3A8F 00                         nop
3A90 00                         nop
3A91 00                         nop
3A92 00                         nop
3A93 00                         nop
3A94 00                         nop
3A95 00                         nop
3A96 00                         nop
3A97 00                         nop
3A98 00                         nop
3A99 00                         nop
3A9A 00                         nop
3A9B 00                         nop
3A9C 00                         nop
3A9D 00                         nop
3A9E 00                         nop
3A9F 00                         nop
3AA0 00                         nop
3AA1 00                         nop
3AA2 00                         nop
3AA3 00                         nop
3AA4 00                         nop
3AA5 00                         nop
3AA6 00                         nop
3AA7 00                         nop
3AA8 00                         nop
3AA9 00                         nop
3AAA 00                         nop
3AAB 00                         nop
3AAC 00                         nop
3AAD 00                         nop
3AAE 00                         nop
3AAF 00                         nop
3AB0 00                         nop
3AB1 00                         nop
3AB2 00                         nop
3AB3 00                         nop
3AB4 00                         nop
3AB5 00                         nop
3AB6 00                         nop
3AB7 00                         nop
3AB8 00                         nop
3AB9 00                         nop
3ABA 00                         nop
3ABB 00                         nop
3ABC 00                         nop
3ABD 00                         nop
3ABE 00                         nop
3ABF 00                         nop
3AC0 00                         nop
3AC1 00                         nop
3AC2 00                         nop
3AC3 00                         nop
3AC4 00                         nop
3AC5 00                         nop
3AC6 00                         nop
3AC7 00                         nop
3AC8 00                         nop
3AC9 00                         nop
3ACA 00                         nop
3ACB 00                         nop
3ACC 00                         nop
3ACD 00                         nop
3ACE 00                         nop
3ACF 00                         nop
3AD0 00                         nop
3AD1 00                         nop
3AD2 00                         nop
3AD3 00                         nop
3AD4 00                         nop
3AD5 00                         nop
3AD6 00                         nop
3AD7 00                         nop
3AD8 00                         nop
3AD9 00                         nop
3ADA 00                         nop
3ADB 00                         nop
3ADC 00                         nop
3ADD 00                         nop
3ADE 00                         nop
3ADF 00                         nop
3AE0 00                         nop
3AE1 00                         nop
3AE2 00                         nop
3AE3 00                         nop
3AE4 00                         nop
3AE5 00                         nop
3AE6 00                         nop
3AE7 00                         nop
3AE8 00                         nop
3AE9 00                         nop
3AEA 00                         nop
3AEB 00                         nop
3AEC 00                         nop
3AED 00                         nop
3AEE 00                         nop
3AEF 00                         nop
3AF0 00                         nop
3AF1 00                         nop
3AF2 00                         nop
3AF3 00                         nop
3AF4 00                         nop
3AF5 00                         nop
3AF6 00                         nop
3AF7 00                         nop
3AF8 00                         nop
3AF9 00                         nop
3AFA 00                         nop
3AFB 00                         nop
3AFC 00                         nop
3AFD 00                         nop
3AFE 00                         nop
3AFF 00                         nop
3B00 00                         nop
3B01 00                         nop
3B02 00                         nop
3B03 00                         nop
3B04 00                         nop
3B05 00                         nop
3B06 00                         nop
3B07 00                         nop
3B08 00                         nop
3B09 00                         nop
3B0A 00                         nop
3B0B 00                         nop
3B0C 00                         nop
3B0D 00                         nop
3B0E 00                         nop
3B0F 00                         nop
3B10 00                         nop
3B11 00                         nop
3B12 00                         nop
3B13 00                         nop
3B14 00                         nop
3B15 00                         nop
3B16 00                         nop
3B17 00                         nop
3B18 00                         nop
3B19 00                         nop
3B1A 00                         nop
3B1B 00                         nop
3B1C 00                         nop
3B1D 00                         nop
3B1E 00                         nop
3B1F 00                         nop
3B20 00                         nop
3B21 00                         nop
3B22 00                         nop
3B23 00                         nop
3B24 00                         nop
3B25 00                         nop
3B26 00                         nop
3B27 00                         nop
3B28 00                         nop
3B29 00                         nop
3B2A 00                         nop
3B2B 00                         nop
3B2C 00                         nop
3B2D 00                         nop
3B2E 00                         nop
3B2F 00                         nop
3B30 00                         nop
3B31 00                         nop
3B32 00                         nop
3B33 00                         nop
3B34 00                         nop
3B35 00                         nop
3B36 00                         nop
3B37 00                         nop
3B38 00                         nop
3B39 00                         nop
3B3A 00                         nop
3B3B 00                         nop
3B3C 00                         nop
3B3D 00                         nop
3B3E 00                         nop
3B3F 00                         nop
3B40 00                         nop
3B41 00                         nop
3B42 00                         nop
3B43 00                         nop
3B44 00                         nop
3B45 00                         nop
3B46 00                         nop
3B47 00                         nop
3B48 00                         nop
3B49 00                         nop
3B4A 00                         nop
3B4B 00                         nop
3B4C 00                         nop
3B4D 00                         nop
3B4E 00                         nop
3B4F 00                         nop
3B50 00                         nop
3B51 00                         nop
3B52 00                         nop
3B53 00                         nop
3B54 00                         nop
3B55 00                         nop
3B56 00                         nop
3B57 00                         nop
3B58 00                         nop
3B59 00                         nop
3B5A 00                         nop
3B5B 00                         nop
3B5C 00                         nop
3B5D 00                         nop
3B5E 00                         nop
3B5F 00                         nop
3B60 00                         nop
3B61 00                         nop
3B62 00                         nop
3B63 00                         nop
3B64 00                         nop
3B65 00                         nop
3B66 00                         nop
3B67 00                         nop
3B68 00                         nop
3B69 00                         nop
3B6A 00                         nop
3B6B 00                         nop
3B6C 00                         nop
3B6D 00                         nop
3B6E 00                         nop
3B6F 00                         nop
3B70 00                         nop
3B71 00                         nop
3B72 00                         nop
3B73 00                         nop
3B74 00                         nop
3B75 00                         nop
3B76 00                         nop
3B77 00                         nop
3B78 00                         nop
3B79 00                         nop
3B7A 00                         nop
3B7B 00                         nop
3B7C 00                         nop
3B7D 00                         nop
3B7E 00                         nop
3B7F 00                         nop
3B80 00                         nop
3B81 00                         nop
3B82 00                         nop
3B83 00                         nop
3B84 00                         nop
3B85 00                         nop
3B86 00                         nop
3B87 00                         nop
3B88 00                         nop
3B89 00                         nop
3B8A 00                         nop
3B8B 00                         nop
3B8C 00                         nop
3B8D 00                         nop
3B8E 00                         nop
3B8F 00                         nop
3B90 00                         nop
3B91 00                         nop
3B92 00                         nop
3B93 00                         nop
3B94 00                         nop
3B95 00                         nop
3B96 00                         nop
3B97 00                         nop
3B98 00                         nop
3B99 00                         nop
3B9A 00                         nop
3B9B 00                         nop
3B9C 00                         nop
3B9D 00                         nop
3B9E 00                         nop
3B9F 00                         nop
3BA0 00                         nop
3BA1 00                         nop
3BA2 00                         nop
3BA3 00                         nop
3BA4 00                         nop
3BA5 00                         nop
3BA6 00                         nop
3BA7 00                         nop
3BA8 00                         nop
3BA9 00                         nop
3BAA 00                         nop
3BAB 00                         nop
3BAC 00                         nop
3BAD 00                         nop
3BAE 00                         nop
3BAF 00                         nop
3BB0 00                         nop
3BB1 00                         nop
3BB2 00                         nop
3BB3 00                         nop
3BB4 00                         nop
3BB5 00                         nop
3BB6 00                         nop
3BB7 00                         nop
3BB8 00                         nop
3BB9 00                         nop
3BBA 00                         nop
3BBB 00                         nop
3BBC 00                         nop
3BBD 00                         nop
3BBE 00                         nop
3BBF 00                         nop
3BC0 00                         nop
3BC1 00                         nop
3BC2 00                         nop
3BC3 00                         nop
3BC4 00                         nop
3BC5 00                         nop
3BC6 00                         nop
3BC7 00                         nop
3BC8 00                         nop
3BC9 00                         nop
3BCA 00                         nop
3BCB 00                         nop
3BCC 00                         nop
3BCD 00                         nop
3BCE 00                         nop
3BCF 00                         nop
3BD0 00                         nop
3BD1 00                         nop
3BD2 00                         nop
3BD3 00                         nop
3BD4 00                         nop
3BD5 00                         nop
3BD6 00                         nop
3BD7 00                         nop
3BD8 00                         nop
3BD9 00                         nop
3BDA 00                         nop
3BDB 00                         nop
3BDC 00                         nop
3BDD 00                         nop
3BDE 00                         nop
3BDF 00                         nop
3BE0 00                         nop
3BE1 00                         nop
3BE2 00                         nop
3BE3 00                         nop
3BE4 00                         nop
3BE5 00                         nop
3BE6 00                         nop
3BE7 00                         nop
3BE8 00                         nop
3BE9 00                         nop
3BEA 00                         nop
3BEB 00                         nop
3BEC 00                         nop
3BED 00                         nop
3BEE 00                         nop
3BEF 00                         nop
3BF0 00                         nop
3BF1 00                         nop
3BF2 00                         nop
3BF3 00                         nop
3BF4 00                         nop
3BF5 00                         nop
3BF6 00                         nop
3BF7 00                         nop
3BF8 00                         nop
3BF9 00                         nop
3BFA 00                         nop
3BFB 00                         nop
3BFC 00                         nop
3BFD 00                         nop
3BFE 00                         nop
3BFF 00                         nop
3C00 00                         nop
3C01 00                         nop
3C02 00                         nop
3C03 00                         nop
3C04 00                         nop
3C05 00                         nop
3C06 00                         nop
3C07 00                         nop
3C08 00                         nop
3C09 00                         nop
3C0A 00                         nop
3C0B 00                         nop
3C0C 00                         nop
3C0D 00                         nop
3C0E 00                         nop
3C0F 00                         nop
3C10 00                         nop
3C11 00                         nop
3C12 00                         nop
3C13 00                         nop
3C14 00                         nop
3C15 00                         nop
3C16 00                         nop
3C17 00                         nop
3C18 00                         nop
3C19 00                         nop
3C1A 00                         nop
3C1B 00                         nop
3C1C 00                         nop
3C1D 00                         nop
3C1E 00                         nop
3C1F 00                         nop
3C20 00                         nop
3C21 00                         nop
3C22 00                         nop
3C23 00                         nop
3C24 00                         nop
3C25 00                         nop
3C26 00                         nop
3C27 00                         nop
3C28 00                         nop
3C29 00                         nop
3C2A 00                         nop
3C2B 00                         nop
3C2C 00                         nop
3C2D 00                         nop
3C2E 00                         nop
3C2F 00                         nop
3C30 00                         nop
3C31 00                         nop
3C32 00                         nop
3C33 00                         nop
3C34 00                         nop
3C35 00                         nop
3C36 00                         nop
3C37 00                         nop
3C38 00                         nop
3C39 00                         nop
3C3A 00                         nop
3C3B 00                         nop
3C3C 00                         nop
3C3D 00                         nop
3C3E 00                         nop
3C3F 00                         nop
3C40 00                         nop
3C41 00                         nop
3C42 00                         nop
3C43 00                         nop
3C44 00                         nop
3C45 00                         nop
3C46 00                         nop
3C47 00                         nop
3C48 00                         nop
3C49 00                         nop
3C4A 00                         nop
3C4B 00                         nop
3C4C 00                         nop
3C4D 00                         nop
3C4E 00                         nop
3C4F 00                         nop
3C50 00                         nop
3C51 00                         nop
3C52 00                         nop
3C53 00                         nop
3C54 00                         nop
3C55 00                         nop
3C56 00                         nop
3C57 00                         nop
3C58 00                         nop
3C59 00                         nop
3C5A 00                         nop
3C5B 00                         nop
3C5C 00                         nop
3C5D 00                         nop
3C5E 00                         nop
3C5F 00                         nop
3C60 00                         nop
3C61 00                         nop
3C62 00                         nop
3C63 00                         nop
3C64 00                         nop
3C65 00                         nop
3C66 00                         nop
3C67 00                         nop
3C68 00                         nop
3C69 00                         nop
3C6A 00                         nop
3C6B 00                         nop
3C6C 00                         nop
3C6D 00                         nop
3C6E 00                         nop
3C6F 00                         nop
3C70 00                         nop
3C71 00                         nop
3C72 00                         nop
3C73 00                         nop
3C74 00                         nop
3C75 00                         nop
3C76 00                         nop
3C77 00                         nop
3C78 00                         nop
3C79 00                         nop
3C7A 00                         nop
3C7B 00                         nop
3C7C 00                         nop
3C7D 00                         nop
3C7E 00                         nop
3C7F 00                         nop
3C80 00                         nop
3C81 00                         nop
3C82 00                         nop
3C83 00                         nop
3C84 00                         nop
3C85 00                         nop
3C86 00                         nop
3C87 00                         nop
3C88 00                         nop
3C89 00                         nop
3C8A 00                         nop
3C8B 00                         nop
3C8C 00                         nop
3C8D 00                         nop
3C8E 00                         nop
3C8F 00                         nop
3C90 00                         nop
3C91 00                         nop
3C92 00                         nop
3C93 00                         nop
3C94 00                         nop
3C95 00                         nop
3C96 00                         nop
3C97 00                         nop
3C98 00                         nop
3C99 00                         nop
3C9A 00                         nop
3C9B 00                         nop
3C9C 00                         nop
3C9D 00                         nop
3C9E 00                         nop
3C9F 00                         nop
3CA0 00                         nop
3CA1 00                         nop
3CA2 00                         nop
3CA3 00                         nop
3CA4 00                         nop
3CA5 00                         nop
3CA6 00                         nop
3CA7 00                         nop
3CA8 00                         nop
3CA9 00                         nop
3CAA 00                         nop
3CAB 00                         nop
3CAC 00                         nop
3CAD 00                         nop
3CAE 00                         nop
3CAF 00                         nop
3CB0 00                         nop
3CB1 00                         nop
3CB2 00                         nop
3CB3 00                         nop
3CB4 00                         nop
3CB5 00                         nop
3CB6 00                         nop
3CB7 00                         nop
3CB8 00                         nop
3CB9 00                         nop
3CBA 00                         nop
3CBB 00                         nop
3CBC 00                         nop
3CBD 00                         nop
3CBE 00                         nop
3CBF 00                         nop
3CC0 00                         nop
3CC1 00                         nop
3CC2 00                         nop
3CC3 00                         nop
3CC4 00                         nop
3CC5 00                         nop
3CC6 00                         nop
3CC7 00                         nop
3CC8 00                         nop
3CC9 00                         nop
3CCA 00                         nop
3CCB 00                         nop
3CCC 00                         nop
3CCD 00                         nop
3CCE 00                         nop
3CCF 00                         nop
3CD0 00                         nop
3CD1 00                         nop
3CD2 00                         nop
3CD3 00                         nop
3CD4 00                         nop
3CD5 00                         nop
3CD6 00                         nop
3CD7 00                         nop
3CD8 00                         nop
3CD9 00                         nop
3CDA 00                         nop
3CDB 00                         nop
3CDC 00                         nop
3CDD 00                         nop
3CDE 00                         nop
3CDF 00                         nop
3CE0 00                         nop
3CE1 00                         nop
3CE2 00                         nop
3CE3 00                         nop
3CE4 00                         nop
3CE5 00                         nop
3CE6 00                         nop
3CE7 00                         nop
3CE8 00                         nop
3CE9 00                         nop
3CEA 00                         nop
3CEB 00                         nop
3CEC 00                         nop
3CED 00                         nop
3CEE 00                         nop
3CEF 00                         nop
3CF0 00                         nop
3CF1 00                         nop
3CF2 00                         nop
3CF3 00                         nop
3CF4 00                         nop
3CF5 00                         nop
3CF6 00                         nop
3CF7 00                         nop
3CF8 00                         nop
3CF9 00                         nop
3CFA 00                         nop
3CFB 00                         nop
3CFC 00                         nop
3CFD 00                         nop
3CFE 00                         nop
3CFF 00                         nop
3D00 00                         nop
3D01 00                         nop
3D02 00                         nop
3D03 00                         nop
3D04 00                         nop
3D05 00                         nop
3D06 00                         nop
3D07 00                         nop
3D08 00                         nop
3D09 00                         nop
3D0A 00                         nop
3D0B 00                         nop
3D0C 00                         nop
3D0D 00                         nop
3D0E 00                         nop
3D0F 00                         nop
3D10 00                         nop
3D11 00                         nop
3D12 00                         nop
3D13 00                         nop
3D14 00                         nop
3D15 00                         nop
3D16 00                         nop
3D17 00                         nop
3D18 00                         nop
3D19 00                         nop
3D1A 00                         nop
3D1B 00                         nop
3D1C 00                         nop
3D1D 00                         nop
3D1E 00                         nop
3D1F 00                         nop
3D20 00                         nop
3D21 00                         nop
3D22 00                         nop
3D23 00                         nop
3D24 00                         nop
3D25 00                         nop
3D26 00                         nop
3D27 00                         nop
3D28 00                         nop
3D29 00                         nop
3D2A 00                         nop
3D2B 00                         nop
3D2C 00                         nop
3D2D 00                         nop
3D2E 00                         nop
3D2F 00                         nop
3D30 00                         nop
3D31 00                         nop
3D32 00                         nop
3D33 00                         nop
3D34 00                         nop
3D35 00                         nop
3D36 00                         nop
3D37 00                         nop
3D38 00                         nop
3D39 00                         nop
3D3A 00                         nop
3D3B 00                         nop
3D3C 00                         nop
3D3D 00                         nop
3D3E 00                         nop
3D3F 00                         nop
3D40 00                         nop
3D41 00                         nop
3D42 00                         nop
3D43 00                         nop
3D44 00                         nop
3D45 00                         nop
3D46 00                         nop
3D47 00                         nop
3D48 00                         nop
3D49 00                         nop
3D4A 00                         nop
3D4B 00                         nop
3D4C 00                         nop
3D4D 00                         nop
3D4E 00                         nop
3D4F 00                         nop
3D50 00                         nop
3D51 00                         nop
3D52 00                         nop
3D53 00                         nop
3D54 00                         nop
3D55 00                         nop
3D56 00                         nop
3D57 00                         nop
3D58 00                         nop
3D59 00                         nop
3D5A 00                         nop
3D5B 00                         nop
3D5C 00                         nop
3D5D 00                         nop
3D5E 00                         nop
3D5F 00                         nop
3D60 00                         nop
3D61 00                         nop
3D62 00                         nop
3D63 00                         nop
3D64 00                         nop
3D65 00                         nop
3D66 00                         nop
3D67 00                         nop
3D68 00                         nop
3D69 00                         nop
3D6A 00                         nop
3D6B 00                         nop
3D6C 00                         nop
3D6D 00                         nop
3D6E 00                         nop
3D6F 00                         nop
3D70 00                         nop
3D71 00                         nop
3D72 00                         nop
3D73 00                         nop
3D74 00                         nop
3D75 00                         nop
3D76 00                         nop
3D77 00                         nop
3D78 00                         nop
3D79 00                         nop
3D7A 00                         nop
3D7B 00                         nop
3D7C 00                         nop
3D7D 00                         nop
3D7E 00                         nop
3D7F 00                         nop
3D80 00                         nop
3D81 00                         nop
3D82 00                         nop
3D83 00                         nop
3D84 00                         nop
3D85 00                         nop
3D86 00                         nop
3D87 00                         nop
3D88 00                         nop
3D89 00                         nop
3D8A 00                         nop
3D8B 00                         nop
3D8C 00                         nop
3D8D 00                         nop
3D8E 00                         nop
3D8F 00                         nop
3D90 00                         nop
3D91 00                         nop
3D92 00                         nop
3D93 00                         nop
3D94 00                         nop
3D95 00                         nop
3D96 00                         nop
3D97 00                         nop
3D98 00                         nop
3D99 00                         nop
3D9A 00                         nop
3D9B 00                         nop
3D9C 00                         nop
3D9D 00                         nop
3D9E 00                         nop
3D9F 00                         nop
3DA0 00                         nop
3DA1 00                         nop
3DA2 00                         nop
3DA3 00                         nop
3DA4 00                         nop
3DA5 00                         nop
3DA6 00                         nop
3DA7 00                         nop
3DA8 00                         nop
3DA9 00                         nop
3DAA 00                         nop
3DAB 00                         nop
3DAC 00                         nop
3DAD 00                         nop
3DAE 00                         nop
3DAF 00                         nop
3DB0 00                         nop
3DB1 00                         nop
3DB2 00                         nop
3DB3 00                         nop
3DB4 00                         nop
3DB5 00                         nop
3DB6 00                         nop
3DB7 00                         nop
3DB8 00                         nop
3DB9 00                         nop
3DBA 00                         nop
3DBB 00                         nop
3DBC 00                         nop
3DBD 00                         nop
3DBE 00                         nop
3DBF 00                         nop
3DC0 00                         nop
3DC1 00                         nop
3DC2 00                         nop
3DC3 00                         nop
3DC4 00                         nop
3DC5 00                         nop
3DC6 00                         nop
3DC7 00                         nop
3DC8 00                         nop
3DC9 00                         nop
3DCA 00                         nop
3DCB 00                         nop
3DCC 00                         nop
3DCD 00                         nop
3DCE 00                         nop
3DCF 00                         nop
3DD0 00                         nop
3DD1 00                         nop
3DD2 00                         nop
3DD3 00                         nop
3DD4 00                         nop
3DD5 00                         nop
3DD6 00                         nop
3DD7 00                         nop
3DD8 00                         nop
3DD9 00                         nop
3DDA 00                         nop
3DDB 00                         nop
3DDC 00                         nop
3DDD 00                         nop
3DDE 00                         nop
3DDF 00                         nop
3DE0 00                         nop
3DE1 00                         nop
3DE2 00                         nop
3DE3 00                         nop
3DE4 00                         nop
3DE5 00                         nop
3DE6 00                         nop
3DE7 00                         nop
3DE8 00                         nop
3DE9 00                         nop
3DEA 00                         nop
3DEB 00                         nop
3DEC 00                         nop
3DED 00                         nop
3DEE 00                         nop
3DEF 00                         nop
3DF0 00                         nop
3DF1 00                         nop
3DF2 00                         nop
3DF3 00                         nop
3DF4 00                         nop
3DF5 00                         nop
3DF6 00                         nop
3DF7 00                         nop
3DF8 00                         nop
3DF9 00                         nop
3DFA 00                         nop
3DFB 00                         nop
3DFC 00                         nop
3DFD 00                         nop
3DFE 00                         nop
3DFF 00                         nop
3E00 00                         nop
3E01 00                         nop
3E02 00                         nop
3E03 00                         nop
3E04 00                         nop
3E05 00                         nop
3E06 00                         nop
3E07 00                         nop
3E08 00                         nop
3E09 00                         nop
3E0A 00                         nop
3E0B 00                         nop
3E0C 00                         nop
3E0D 00                         nop
3E0E 00                         nop
3E0F 00                         nop
3E10 00                         nop
3E11 00                         nop
3E12 00                         nop
3E13 00                         nop
3E14 00                         nop
3E15 00                         nop
3E16 00                         nop
3E17 00                         nop
3E18 00                         nop
3E19 00                         nop
3E1A 00                         nop
3E1B 00                         nop
3E1C 00                         nop
3E1D 00                         nop
3E1E 00                         nop
3E1F 00                         nop
3E20 00                         nop
3E21 00                         nop
3E22 00                         nop
3E23 00                         nop
3E24 00                         nop
3E25 00                         nop
3E26 00                         nop
3E27 00                         nop
3E28 00                         nop
3E29 00                         nop
3E2A 00                         nop
3E2B 00                         nop
3E2C 00                         nop
3E2D 00                         nop
3E2E 00                         nop
3E2F 00                         nop
3E30 00                         nop
3E31 00                         nop
3E32 00                         nop
3E33 00                         nop
3E34 00                         nop
3E35 00                         nop
3E36 00                         nop
3E37 00                         nop
3E38 00                         nop
3E39 00                         nop
3E3A 00                         nop
3E3B 00                         nop
3E3C 00                         nop
3E3D 00                         nop
3E3E 00                         nop
3E3F 00                         nop
3E40 00                         nop
3E41 00                         nop
3E42 00                         nop
3E43 00                         nop
3E44 00                         nop
3E45 00                         nop
3E46 00                         nop
3E47 00                         nop
3E48 00                         nop
3E49 00                         nop
3E4A 00                         nop
3E4B 00                         nop
3E4C 00                         nop
3E4D 00                         nop
3E4E 00                         nop
3E4F 00                         nop
3E50 00                         nop
3E51 00                         nop
3E52 00                         nop
3E53 00                         nop
3E54 00                         nop
3E55 00                         nop
3E56 00                         nop
3E57 00                         nop
3E58 00                         nop
3E59 00                         nop
3E5A 00                         nop
3E5B 00                         nop
3E5C 00                         nop
3E5D 00                         nop
3E5E 00                         nop
3E5F 00                         nop
3E60 00                         nop
3E61 00                         nop
3E62 00                         nop
3E63 00                         nop
3E64 00                         nop
3E65 00                         nop
3E66 00                         nop
3E67 00                         nop
3E68 00                         nop
3E69 00                         nop
3E6A 00                         nop
3E6B 00                         nop
3E6C 00                         nop
3E6D 00                         nop
3E6E 00                         nop
3E6F 00                         nop
3E70 00                         nop
3E71 00                         nop
3E72 00                         nop
3E73 00                         nop
3E74 00                         nop
3E75 00                         nop
3E76 00                         nop
3E77 00                         nop
3E78 00                         nop
3E79 00                         nop
3E7A 00                         nop
3E7B 00                         nop
3E7C 00                         nop
3E7D 00                         nop
3E7E 00                         nop
3E7F 00                         nop
3E80 00                         nop
3E81 00                         nop
3E82 00                         nop
3E83 00                         nop
3E84 00                         nop
3E85 00                         nop
3E86 00                         nop
3E87 00                         nop
3E88 00                         nop
3E89 00                         nop
3E8A 00                         nop
3E8B 00                         nop
3E8C 00                         nop
3E8D 00                         nop
3E8E 00                         nop
3E8F 00                         nop
3E90 00                         nop
3E91 00                         nop
3E92 00                         nop
3E93 00                         nop
3E94 00                         nop
3E95 00                         nop
3E96 00                         nop
3E97 00                         nop
3E98 00                         nop
3E99 00                         nop
3E9A 00                         nop
3E9B 00                         nop
3E9C 00                         nop
3E9D 00                         nop
3E9E 00                         nop
3E9F 00                         nop
3EA0 00                         nop
3EA1 00                         nop
3EA2 00                         nop
3EA3 00                         nop
3EA4 00                         nop
3EA5 00                         nop
3EA6 00                         nop
3EA7 00                         nop
3EA8 00                         nop
3EA9 00                         nop
3EAA 00                         nop
3EAB 00                         nop
3EAC 00                         nop
3EAD 00                         nop
3EAE 00                         nop
3EAF 00                         nop
3EB0 00                         nop
3EB1 00                         nop
3EB2 00                         nop
3EB3 00                         nop
3EB4 00                         nop
3EB5 00                         nop
3EB6 00                         nop
3EB7 00                         nop
3EB8 00                         nop
3EB9 00                         nop
3EBA 00                         nop
3EBB 00                         nop
3EBC 00                         nop
3EBD 00                         nop
3EBE 00                         nop
3EBF 00                         nop
3EC0 00                         nop
3EC1 00                         nop
3EC2 00                         nop
3EC3 00                         nop
3EC4 00                         nop
3EC5 00                         nop
3EC6 00                         nop
3EC7 00                         nop
3EC8 00                         nop
3EC9 00                         nop
3ECA 00                         nop
3ECB 00                         nop
3ECC 00                         nop
3ECD 00                         nop
3ECE 00                         nop
3ECF 00                         nop
3ED0 00                         nop
3ED1 00                         nop
3ED2 00                         nop
3ED3 00                         nop
3ED4 00                         nop
3ED5 00                         nop
3ED6 00                         nop
3ED7 00                         nop
3ED8 00                         nop
3ED9 00                         nop
3EDA 00                         nop
3EDB 00                         nop
3EDC 00                         nop
3EDD 00                         nop
3EDE 00                         nop
3EDF 00                         nop
3EE0 00                         nop
3EE1 00                         nop
3EE2 00                         nop
3EE3 00                         nop
3EE4 00                         nop
3EE5 00                         nop
3EE6 00                         nop
3EE7 00                         nop
3EE8 00                         nop
3EE9 00                         nop
3EEA 00                         nop
3EEB 00                         nop
3EEC 00                         nop
3EED 00                         nop
3EEE 00                         nop
3EEF 00                         nop
3EF0 00                         nop
3EF1 00                         nop
3EF2 00                         nop
3EF3 00                         nop
3EF4 00                         nop
3EF5 00                         nop
3EF6 00                         nop
3EF7 00                         nop
3EF8 00                         nop
3EF9 00                         nop
3EFA 00                         nop
3EFB 00                         nop
3EFC 00                         nop
3EFD 00                         nop
3EFE 00                         nop
3EFF 00                         nop
3F00 00                         nop
3F01 00                         nop
3F02 00                         nop
3F03 00                         nop
3F04 00                         nop
3F05 00                         nop
3F06 00                         nop
3F07 00                         nop
3F08 00                         nop
3F09 00                         nop
3F0A 00                         nop
3F0B 00                         nop
3F0C 00                         nop
3F0D 00                         nop
3F0E 00                         nop
3F0F 00                         nop
3F10 00                         nop
3F11 00                         nop
3F12 00                         nop
3F13 00                         nop
3F14 00                         nop
3F15 00                         nop
3F16 00                         nop
3F17 00                         nop
3F18 00                         nop
3F19 00                         nop
3F1A 00                         nop
3F1B 00                         nop
3F1C 00                         nop
3F1D 00                         nop
3F1E 00                         nop
3F1F 00                         nop
3F20 00                         nop
3F21 00                         nop
3F22 00                         nop
3F23 00                         nop
3F24 00                         nop
3F25 00                         nop
3F26 00                         nop
3F27 00                         nop
3F28 00                         nop
3F29 00                         nop
3F2A 00                         nop
3F2B 00                         nop
3F2C 00                         nop
3F2D 00                         nop
3F2E 00                         nop
3F2F 00                         nop
3F30 00                         nop
3F31 00                         nop
3F32 00                         nop
3F33 00                         nop
3F34 00                         nop
3F35 00                         nop
3F36 00                         nop
3F37 00                         nop
3F38 00                         nop
3F39 00                         nop
3F3A 00                         nop
3F3B 00                         nop
3F3C 00                         nop
3F3D 00                         nop
3F3E 00                         nop
3F3F 00                         nop
3F40 00                         nop
3F41 00                         nop
3F42 00                         nop
3F43 00                         nop
3F44 00                         nop
3F45 00                         nop
3F46 00                         nop
3F47 00                         nop
3F48 00                         nop
3F49 00                         nop
3F4A 00                         nop
3F4B 00                         nop
3F4C 00                         nop
3F4D 00                         nop
3F4E 00                         nop
3F4F 00                         nop
3F50 00                         nop
3F51 00                         nop
3F52 00                         nop
3F53 00                         nop
3F54 00                         nop
3F55 00                         nop
3F56 00                         nop
3F57 00                         nop
3F58 00                         nop
3F59 00                         nop
3F5A 00                         nop
3F5B 00                         nop
3F5C 00                         nop
3F5D 00                         nop
3F5E 00                         nop
3F5F 00                         nop
3F60 00                         nop
3F61 00                         nop
3F62 00                         nop
3F63 00                         nop
3F64 00                         nop
3F65 00                         nop
3F66 00                         nop
3F67 00                         nop
3F68 00                         nop
3F69 00                         nop
3F6A 00                         nop
3F6B 00                         nop
3F6C 00                         nop
3F6D 00                         nop
3F6E 00                         nop
3F6F 00                         nop
3F70 00                         nop
3F71 00                         nop
3F72 00                         nop
3F73 00                         nop
3F74 00                         nop
3F75 00                         nop
3F76 00                         nop
3F77 00                         nop
3F78 00                         nop
3F79 00                         nop
3F7A 00                         nop
3F7B 00                         nop
3F7C 00                         nop
3F7D 00                         nop
3F7E 00                         nop
3F7F 00                         nop
3F80 00                         nop
3F81 00                         nop
3F82 00                         nop
3F83 00                         nop
3F84 00                         nop
3F85 00                         nop
3F86 00                         nop
3F87 00                         nop
3F88 00                         nop
3F89 00                         nop
3F8A 00                         nop
3F8B 00                         nop
3F8C 00                         nop
3F8D 00                         nop
3F8E 00                         nop
3F8F 00                         nop
3F90 00                         nop
3F91 00                         nop
3F92 00                         nop
3F93 00                         nop
3F94 00                         nop
3F95 00                         nop
3F96 00                         nop
3F97 00                         nop
3F98 00                         nop
3F99 00                         nop
3F9A 00                         nop
3F9B 00                         nop
3F9C 00                         nop
3F9D 00                         nop
3F9E 00                         nop
3F9F 00                         nop
3FA0 00                         nop
3FA1 00                         nop
3FA2 00                         nop
3FA3 00                         nop
3FA4 00                         nop
3FA5 00                         nop
3FA6 00                         nop
3FA7 00                         nop
3FA8 00                         nop
3FA9 00                         nop
3FAA 00                         nop
3FAB 00                         nop
3FAC 00                         nop
3FAD 00                         nop
3FAE 00                         nop
3FAF 00                         nop
3FB0 00                         nop
3FB1 00                         nop
3FB2 00                         nop
3FB3 00                         nop
3FB4 00                         nop
3FB5 00                         nop
3FB6 00                         nop
3FB7 00                         nop
3FB8 00                         nop
3FB9 00                         nop
3FBA 00                         nop
3FBB 00                         nop
3FBC 00                         nop
3FBD 00                         nop
3FBE 00                         nop
3FBF 00                         nop
3FC0 00                         nop
3FC1 00                         nop
3FC2 00                         nop
3FC3 00                         nop
3FC4 00                         nop
3FC5 00                         nop
3FC6 00                         nop
3FC7 00                         nop
3FC8 00                         nop
3FC9 00                         nop
3FCA 00                         nop
3FCB 00                         nop
3FCC 00                         nop
3FCD 00                         nop
3FCE 00                         nop
3FCF 00                         nop
3FD0 00                         nop
3FD1 00                         nop
3FD2 00                         nop
3FD3 00                         nop
3FD4 00                         nop
3FD5 00                         nop
3FD6 00                         nop
3FD7 00                         nop
3FD8 00                         nop
3FD9 00                         nop
3FDA 00                         nop
3FDB 00                         nop
3FDC 00                         nop
3FDD 00                         nop
3FDE 00                         nop
3FDF 00                         nop
3FE0 00                         nop
3FE1 00                         nop
3FE2 00                         nop
3FE3 00                         nop
3FE4 00                         nop
3FE5 00                         nop
3FE6 00                         nop
3FE7 00                         nop
3FE8 00                         nop
3FE9 00                         nop
3FEA 00                         nop
3FEB 00                         nop
3FEC 00                         nop
3FED 00                         nop
3FEE 00                         nop
3FEF 00                         nop
3FF0 00                         nop
3FF1 00                         nop
3FF2 00                         nop
3FF3 00                         nop
3FF4 00                         nop
3FF5 00                         nop
3FF6 00                         nop
3FF7 00                         nop
3FF8 00                         nop
3FF9 00                         nop
3FFA 00                         nop
3FFB 00                         nop
3FFC 00                         nop
3FFD 00                         nop
3FFE 00                         nop
3FFF 00                         nop
