ZX Spectrum Next MMC ROM Disassembly
=======================================================================================================================
File: enNxtmmc.rom
Address Range: $0000 - $1FFF (0 - 8191)
Total Instructions: 4922
=======================================================================================================================

0000 F3                         di
0001 C3 6A 00                   jp L006A
0004 44                         ld b,h
0005 56                         ld d,(hl)
0006 08                         ex af,af'
0007 02                         ld (bc),a
0008 C3 12 05                   jp L0512
000B E1                         pop hl
000C F5                         push af
000D C3 64 33                   jp L3364
0010 DF                         rst $18
0011 10 00                      djnz L0013
0013 C9            L0013:       ret
0014 3E 3A         L0014:       ld a,$3A
0016 A7                         and a
0017 C9                         ret
0018 00                         nop
0019 00                         nop
001A C3 C6 03                   jp L03C6
001D 7E                         ld a,(hl)
001E C9                         ret
001F FF                         rst $38
0020 33                         inc sp
0021 33                         inc sp
0022 CD CE 00                   call L00CE
0025 C3 71 00                   jp L0071
0028 E3                         ex (sp),hl
0029 4E                         ld c,(hl)
002A 23                         inc hl
002B E3                         ex (sp),hl
002C C3 E9 04                   jp L04E9
002F 00                         nop
0030 D9                         exx
0031 E3                         ex (sp),hl
0032 D5                         push de
0033 57                         ld d,a
0034 E5                         push hl
0035 C3 8D 01                   jp L018D
0038 C3 E5 00                   jp L00E5
003B CD 45 00                   call L0045
003E 21 50 00                   ld hl,$0050
0041 E3                         ex (sp),hl
0042 C3 F9 1F                   jp L1FF9
0045 DB E3         L0045:       in a,($E3)
0047 67                         ld h,a
0048 E6 C0                      and $C0
004A F6 01                      or $01
004C D3 E3                      out ($E3),a
004E ED 73 B8 25                ld ($25B8),sp
0052 31 ED 26                   ld sp,$26ED
0055 E5                         push hl
0056 CD 09 20                   call L2009
0059 F1                         pop af
005A ED 7B B8 25                ld sp,($25B8)
005E D3 E3                      out ($E3),a
0060 C9                         ret
0061 DD E9                      jp (ix)
0063 00                         nop
0064 00                         nop
0065 00                         nop
0066 F5                         push af
0067 F1                         pop af
0068 ED 45                      retn
006A ED 8A 00 01   L006A:       push $0001
006E C3 90 1E                   jp L1E90
0071 E5            L0071:       push hl
0072 AF                         xor a
0073 32 FF 32                   ld ($32FF),a
0076 C3 F9 1F                   jp L1FF9
0079 01 3B 24                   ld bc,$243B
007C ED 79                      out (c),a
007E 04                         inc b
007F ED 78                      in a,(c)
0081 C9                         ret
0082 F5            L0082:       push af
0083 3E 07                      ld a,$07
0085 18 02                      jr L0089
0087 F5            L0087:       push af
0088 79                         ld a,c
0089 87            L0089:       add a,a
008A ED 92 56                   nextreg $56,a
008D 3C                         inc a
008E ED 92 57                   nextreg $57,a
0091 F1                         pop af
0092 C9                         ret
0093 06 FF                      ld b,$FF
0095 4E            L0095:       ld c,(hl)
0096 23                         inc hl
0097 E5            L0097:       push hl
0098 DB E3                      in a,($E3)
009A 6F                         ld l,a
009B 3E 02                      ld a,$02
009D D3 E3                      out ($E3),a
009F 79                         ld a,c
00A0 3C                         inc a
00A1 28 01                      jr z,L00A4
00A3 79                         ld a,c
00A4 12            L00A4:       ld (de),a
00A5 13                         inc de
00A6 7D                         ld a,l
00A7 D3 E3                      out ($E3),a
00A9 E1                         pop hl
00AA C8                         ret z
00AB 10 E8                      djnz L0095
00AD 0E FF                      ld c,$FF
00AF 18 E6                      jr L0097
00B1 3E FF                      ld a,$FF
00B3 47                         ld b,a
00B4 D5                         push de
00B5 DB E3         L00B5:       in a,($E3)
00B7 4F                         ld c,a
00B8 3E 02                      ld a,$02
00BA D3 E3                      out ($E3),a
00BC 79                         ld a,c
00BD 4E                         ld c,(hl)
00BE 23                         inc hl
00BF D3 E3                      out ($E3),a
00C1 79                         ld a,c
00C2 A7                         and a
00C3 28 04                      jr z,L00C9
00C5 12                         ld (de),a
00C6 13                         inc de
00C7 10 EC                      djnz L00B5
00C9 3E FF         L00C9:       ld a,$FF
00CB 12                         ld (de),a
00CC E1                         pop hl
00CD C9                         ret
00CE 3E 80         L00CE:       ld a,$80
00D0 D3 E3                      out ($E3),a
00D2 C3 FD 3C                   jp L3CFD
00D5 00                         nop
00D6 00                         nop
00D7 00                         nop
00D8 00                         nop
00D9 00                         nop
00DA 00                         nop
00DB 00                         nop
00DC 00                         nop
00DD 00                         nop
00DE 00                         nop
00DF 00                         nop
00E0 00                         nop
00E1 00                         nop
00E2 00                         nop
00E3 00                         nop
00E4 00                         nop
00E5 F5            L00E5:       push af
00E6 E5                         push hl
00E7 CD 45 00                   call L0045
00EA 87                         add a,a
00EB DA FC 1F                   jp c,L1FFC
00EE E1                         pop hl
00EF F1                         pop af
00F0 FB                         ei
00F1 C9                         ret
00F2 01 00 00      L00F2:       ld bc,$0000
00F5 CD 1F 04                   call L041F
00F8 01 4F 20                   ld bc,$204F
00FB C9                         ret
00FC 46                         ld b,(hl)
00FD 41                         ld b,c
00FE D4 00 F7                   call nc,LF700
0101 AF                         xor a
0102 09                         add hl,bc
0103 F7                         rst $30
0104 DA 0E F7                   jp c,LF70E
0107 DF                         rst $18
0108 0E F7                      ld c,$F7
010A 50                         ld d,b
010B 0D                         dec c
010C F7                         rst $30
010D 01 0D F7                   ld bc,$F70D
0110 A5                         and l
0111 0D                         dec c
0112 C3 14 00                   jp L0014
0115 C3 14 00                   jp L0014
0118 F7                         rst $30
0119 C9                         ret
011A 09                         add hl,bc
011B F7                         rst $30
011C 8F                         adc a,a
011D 0E F7                      ld c,$F7
011F 58                         ld e,b
0120 0E F7                      ld c,$F7
0122 0E 0E                      ld c,$0E
0124 F7            L0124:       rst $30
0125 14                         inc d
0126 00                         nop
0127 F7            L0127:       rst $30
0128 A0                         and b
0129 12                         ld (de),a
012A C3 14 00                   jp L0014
012D F7                         rst $30
012E F1                         pop af
012F 3D                         dec a
0130 F7            L0130:       rst $30
0131 1F                         rra
0132 3E F7                      ld a,$F7
0134 81                         add a,c
0135 3E F7                      ld a,$F7
0137 5C                         ld e,h
0138 17                         rla
0139 C3 91 1C                   jp L1C91
013C C3 20 1D                   jp L1D20
013F F7                         rst $30
0140 A3                         and e
0141 16 F7                      ld d,$F7
0143 59                         ld e,c
0144 15                         dec d
0145 F7                         rst $30
0146 15                         dec d
0147 16 F7                      ld d,$F7
0149 17                         rla
014A 15                         dec d
014B F7                         rst $30
014C 3D                         dec a
014D 15                         dec d
014E F7                         rst $30
014F 69                         ld l,c
0150 16 F7                      ld d,$F7
0152 72                         ld (hl),d
0153 16 F7                      ld d,$F7
0155 81                         add a,c
0156 16 F7                      ld d,$F7
0158 0A                         ld a,(bc)
0159 17                         rla
015A F7            L015A:       rst $30
015B B4                         or h
015C 16 F7                      ld d,$F7
015E FF                         rst $38
015F 16 F7                      ld d,$F7
0161 BC                         cp h
0162 16 F7                      ld d,$F7
0164 F5                         push af
0165 13                         inc de
0166 C3 33 03                   jp L0333
0169 C3 D4 02                   jp L02D4
016C C3 E2 02                   jp L02E2
016F C3 ED 02                   jp L02ED
0172 C3 23 02                   jp L0223
0175 C3 BD 02                   jp L02BD
0178 C3 CD 02                   jp L02CD
017B C3 10 03                   jp L0310
017E C3 2C 03                   jp L032C
0181 C3 A8 1D                   jp L1DA8
0184 C3 17 03                   jp L0317
0187 C3 1E 03                   jp L031E
018A C3 25 03                   jp L0325
018D DB E3         L018D:       in a,($E3)
018F 5F                         ld e,a
0190 7D                         ld a,l
0191 21 20 23                   ld hl,$2320
0194 FE 3F                      cp $3F
0196 30 0D                      jr nc,L01A5
0198 2E 00                      ld l,$00
019A FE 18                      cp $18
019C 38 07                      jr c,L01A5
019E 2E 10                      ld l,$10
01A0 7A                         ld a,d
01A1 E6 0F                      and $0F
01A3 18 12                      jr L01B7
01A5 7A            L01A5:       ld a,d
01A6 FE 10                      cp $10
01A8 38 0D                      jr c,L01B7
01AA E1                         pop hl
01AB 7D            L01AB:       ld a,l
01AC FE 3F                      cp $3F
01AE 3E 1D                      ld a,$1D
01B0 30 2A                      jr nc,L01DC
01B2 3E 16                      ld a,$16
01B4 A7                         and a
01B5 18 25                      jr L01DC
01B7 ED 31         L01B7:       add hl,a
01B9 7E                         ld a,(hl)
01BA E1                         pop hl
01BB 32 06 20                   ld ($2006),a
01BE CB 77                      bit 6,a
01C0 20 06                      jr nz,L01C8
01C2 F5                         push af
01C3 7A                         ld a,d
01C4 E6 0F                      and $0F
01C6 57                         ld d,a
01C7 F1                         pop af
01C8 E6 8F         L01C8:       and $8F
01CA FA AB 01                   jp m,L01AB
01CD 20 15                      jr nz,L01E4
01CF 7E                         ld a,(hl)
01D0 2C                         inc l
01D1 66                         ld h,(hl)
01D2 6F                         ld l,a
01D3 CD E0 01      L01D3:       call L01E0
01D6 D9                         exx
01D7 57                         ld d,a
01D8 7B                         ld a,e
01D9 D3 E3                      out ($E3),a
01DB 7A                         ld a,d
01DC D1            L01DC:       pop de
01DD E1                         pop hl
01DE D9                         exx
01DF C9                         ret
01E0 E5            L01E0:       push hl
01E1 7A                         ld a,d
01E2 D9                         exx
01E3 C9                         ret
01E4 67            L01E4:       ld h,a
01E5 7B                         ld a,e
01E6 E6 80                      and $80
01E8 B4                         or h
01E9 D3 E3                      out ($E3),a
01EB 2D                         dec l
01EC 26 20                      ld h,$20
01EE 18 E3                      jr L01D3
01F0 F5            L01F0:       push af
01F1 DB E3                      in a,($E3)
01F3 E6 0F                      and $0F
01F5 28 03                      jr z,L01FA
01F7 DD 26 20                   ld xh,$20
01FA F1            L01FA:       pop af
01FB E5                         push hl
01FC DD 6E 01                   ld l,(ix+$01)
01FF DD 66 02                   ld h,(ix+$02)
0202 E3                         ex (sp),hl
0203 C9                         ret
0204 E5            L0204:       push hl
0205 E6 0F                      and $0F
0207 21 10 23                   ld hl,$2310
020A ED 31                      add hl,a
020C 7E                         ld a,(hl)
020D E1                         pop hl
020E C9                         ret
020F CD 18 02      L020F:       call L0218
0212 D0                         ret nc
0213 F8                         ret m
0214 3E 14                      ld a,$14
0216 A7                         and a
0217 C9                         ret
0218 FD 67         L0218:       ld yh,a
021A CD 04 02                   call L0204
021D CD 0D 04                   call L040D
0220 A8                         xor b
0221 1B                         dec de
0222 C9                         ret
0223 FD 67         L0223:       ld yh,a
0225 E5                         push hl
0226 78                         ld a,b
0227 FE 10                      cp $10
0229 30 0A                      jr nc,L0235
022B 21 20 23                   ld hl,$2320
022E ED 31                      add hl,a
0230 7E                         ld a,(hl)
0231 A7                         and a
0232 FA 3A 02                   jp m,L023A
0235 3E 1D         L0235:       ld a,$1D
0237 A7            L0237:       and a
0238 E1                         pop hl
0239 C9                         ret
023A E3            L023A:       ex (sp),hl
023B C5                         push bc
023C D5                         push de
023D DD E5                      push ix
023F FD E5                      push iy
0241 FD 7C                      ld a,yh
0243 CD 0F 02                   call L020F
0246 FD E1                      pop iy
0248 DD E1                      pop ix
024A D1                         pop de
024B C1                         pop bc
024C 30 E9                      jr nc,L0237
024E 28 0B                      jr z,L025B
0250 7B                         ld a,e
0251 FE 03                      cp $03
0253 3E 14                      ld a,$14
0255 30 E0                      jr nc,L0237
0257 14                         inc d
0258 15                         dec d
0259 20 DC                      jr nz,L0237
025B C5            L025B:       push bc
025C D5                         push de
025D E5                         push hl
025E DD E5                      push ix
0260 FD E5                      push iy
0262 CD 07 04                   call L0407
0265 7B                         ld a,e
0266 1C                         inc e
0267 FD E1                      pop iy
0269 DD E1                      pop ix
026B E1                         pop hl
026C D1                         pop de
026D C1                         pop bc
026E 30 32                      jr nc,L02A2
0270 3E 14                      ld a,$14
0272 20 C3                      jr nz,L0237
0274 1C                         inc e
0275 1D                         dec e
0276 3E 18                      ld a,$18
0278 28 BD                      jr z,L0237
027A 7B                         ld a,e
027B FE 03                      cp $03
027D 38 1D                      jr c,L029C
027F FE 05                      cp $05
0281 3E 15         L0281:       ld a,$15
0283 30 B2                      jr nc,L0237
0285 C5                         push bc
0286 D5                         push de
0287 E5                         push hl
0288 DD E5                      push ix
028A FD E5                      push iy
028C FD 7C                      ld a,yh
028E CD 30 01                   call L0130
0291 FD E1                      pop iy
0293 DD E1                      pop ix
0295 E1                         pop hl
0296 D1                         pop de
0297 C1                         pop bc
0298 30 9D                      jr nc,L0237
029A 18 06                      jr L02A2
029C 53            L029C:       ld d,e
029D 15                         dec d
029E CB CA                      set 1,d
02A0 18 0B                      jr L02AD
02A2 7A            L02A2:       ld a,d
02A3 FE 03                      cp $03
02A5 30 DA                      jr nc,L0281
02A7 A7                         and a
02A8 3E 17                      ld a,$17
02AA 28 8B                      jr z,L0237
02AC 15                         dec d
02AD D5            L02AD:       push de
02AE FD 7C                      ld a,yh
02B0 CD 36 01                   call L0136
02B3 D1                         pop de
02B4 E1                         pop hl
02B5 D0                         ret nc
02B6 3A 06 20                   ld a,($2006)
02B9 77                         ld (hl),a
02BA CB 4A                      bit 1,d
02BC C9                         ret
02BD F5            L02BD:       push af
02BE CD 5A 01                   call L015A
02C1 C1                         pop bc
02C2 D0            L02C2:       ret nc
02C3 21 20 23                   ld hl,$2320
02C6 78            L02C6:       ld a,b
02C7 ED 31                      add hl,a
02C9 36 FF                      ld (hl),$FF
02CB 37                         scf
02CC C9                         ret
02CD F5            L02CD:       push af
02CE CD 5D 01                   call L015D
02D1 C1                         pop bc
02D2 18 EE                      jr L02C2
02D4 E5            L02D4:       push hl
02D5 7A                         ld a,d
02D6 E6 7F                      and $7F
02D8 CD 0F 01                   call L010F
02DB E1                         pop hl
02DC D0                         ret nc
02DD 3A 06 20                   ld a,($2006)
02E0 77                         ld (hl),a
02E1 C9                         ret
02E2 F5            L02E2:       push af
02E3 CD 21 01                   call L0121
02E6 C1                         pop bc
02E7 D0                         ret nc
02E8 21 10 23                   ld hl,$2310
02EB 18 D9                      jr L02C6
02ED FE FF         L02ED:       cp $FF
02EF 28 16                      jr z,L0307
02F1 F5                         push af
02F2 06 01                      ld b,$01
02F4 CD 27 01                   call L0127
02F7 C1                         pop bc
02F8 38 04                      jr c,L02FE
02FA 3E 16         L02FA:       ld a,$16
02FC A7                         and a
02FD C9                         ret
02FE 78            L02FE:       ld a,b
02FF 2F                         cpl
0300 32 08 20                   ld ($2008),a
0303 78                         ld a,b
0304 32 07 20                   ld ($2007),a
0307 3A 07 20      L0307:       ld a,($2007)
030A 37                         scf
030B C9                         ret
030C 33            L030C:       inc sp
030D 33                         inc sp
030E 18 EA                      jr L02FA
0310 CD 1F 04      L0310:       call L041F
0313 0C                         inc c
0314 E7                         rst $20
0315 26 C9                      ld h,$C9
0317 CD 1F 04      L0317:       call L041F
031A 0C                         inc c
031B 8D                         adc a,l
031C 29                         add hl,hl
031D C9                         ret
031E CD 1F 04      L031E:       call L041F
0321 0C                         inc c
0322 DE 28                      sbc a,$28
0324 C9                         ret
0325 CD 1F 04      L0325:       call L041F
0328 0C                         inc c
0329 7F                         ld a,a
032A 29                         add hl,hl
032B C9                         ret
032C CD 1F 04      L032C:       call L041F
032F 0C                         inc c
0330 72                         ld (hl),d
0331 26 C9                      ld h,$C9
0333 D5            L0333:       push de
0334 E5                         push hl
0335 73                         ld (hl),e
0336 7A                         ld a,d
0337 CD 00 01                   call L0100
033A AF                         xor a
033B D3 E3                      out ($E3),a
033D E1                         pop hl
033E D1                         pop de
033F 36 FF                      ld (hl),$FF
0341 04                         inc b
0342 18 07                      jr L034B
0344 7A            L0344:       ld a,d
0345 FE 10                      cp $10
0347 D0                         ret nc
0348 73                         ld (hl),e
0349 23                         inc hl
034A 14                         inc d
034B 10 F7         L034B:       djnz L0344
034D 37                         scf
034E C9                         ret
034F D5                         push de
0350 E5                         push hl
0351 1E 00                      ld e,$00
0353 CD A0 03                   call L03A0
0356 38 0E                      jr c,L0366
0358 CD A0 03                   call L03A0
035B 7B                         ld a,e
035C FE 10                      cp $10
035E 30 04                      jr nc,L0364
0360 CB FB                      set 7,e
0362 18 02                      jr L0366
0364 E1            L0364:       pop hl
0365 E5                         push hl
0366 7E            L0366:       ld a,(hl)
0367 E6 DF                      and $DF
0369 D6 41                      sub $41
036B 38 08                      jr c,L0375
036D FE 10                      cp $10
036F 30 04                      jr nc,L0375
0371 57                         ld d,a
0372 23                         inc hl
0373 CB F3                      set 6,e
0375 7E            L0375:       ld a,(hl)
0376 23                         inc hl
0377 FE 3A                      cp $3A
0379 28 04                      jr z,L037F
037B 1E 00                      ld e,$00
037D 18 01                      jr L0380
037F E3            L037F:       ex (sp),hl
0380 CB 73         L0380:       bit 6,e
0382 20 04                      jr nz,L0388
0384 3A 07 20                   ld a,($2007)
0387 57                         ld d,a
0388 7B            L0388:       ld a,e
0389 E6 0F                      and $0F
038B CB 7B                      bit 7,e
038D 20 0B                      jr nz,L039A
038F D5                         push de
0390 7A                         ld a,d
0391 16 FF                      ld d,$FF
0393 CD 24 01                   call L0124
0396 D1                         pop de
0397 38 01                      jr c,L039A
0399 AF                         xor a
039A ED 23         L039A:       swapnib
039C B2                         or d
039D E1                         pop hl
039E D1                         pop de
039F C9                         ret
03A0 7E            L03A0:       ld a,(hl)
03A1 D6 30                      sub $30
03A3 D8                         ret c
03A4 16 0A                      ld d,$0A
03A6 BA                         cp d
03A7 3F                         ccf
03A8 D8                         ret c
03A9 23                         inc hl
03AA ED 30                      mul d,e
03AC ED 32                      add de,a
03AE A7                         and a
03AF C9                         ret
03B0 06 01                      ld b,$01
03B2 21 20 23                   ld hl,$2320
03B5 78                         ld a,b
03B6 ED 31                      add hl,a
03B8 7E            L03B8:       ld a,(hl)
03B9 A7                         and a
03BA 37                         scf
03BB F8                         ret m
03BC 23                         inc hl
03BD 04                         inc b
03BE CB 60                      bit 4,b
03C0 28 F6                      jr z,L03B8
03C2 3E 1D                      ld a,$1D
03C4 A7                         and a
03C5 C9                         ret
03C6 E3            L03C6:       ex (sp),hl
03C7 F5                         push af
03C8 D5                         push de
03C9 56                         ld d,(hl)
03CA 23                         inc hl
03CB 5E                         ld e,(hl)
03CC 23                         inc hl
03CD DB E3                      in a,($E3)
03CF F5                         push af
03D0 CD CE 00                   call L00CE
03D3 F1                         pop af
03D4 32 02 20                   ld ($2002),a
03D7 ED 53 53 3C                ld ($3C53),de
03DB D1                         pop de
03DC F1                         pop af
03DD E3                         ex (sp),hl
03DE ED 73 16 20                ld ($2016),sp
03E2 CD 4D 3C                   call L3C4D
03E5 F5                         push af
03E6 3A 02 20                   ld a,($2002)
03E9 FE 82                      cp $82
03EB CC F3 1F                   call z,L1FF3
03EE D3 E3                      out ($E3),a
03F0 F1                         pop af
03F1 C9                         ret
03F2 22 10 20                   ld ($2010),hl
03F5 21 BD 01                   ld hl,$01BD
03F8 ED 8A 3C FC   L03F8:       push $3CFC
03FC E5                         push hl
03FD 2A 10 20                   ld hl,($2010)
0400 ED 91 8E 02                nextreg $8E,$02
0404 C3 F9 1F                   jp L1FF9
0407 F5            L0407:       push af
0408 FD E1                      pop iy
040A 3A 06 20                   ld a,($2006)
040D 32 06 20      L040D:       ld ($2006),a
0410 E6 8F                      and $8F
0412 FA 0C 03                   jp m,L030C
0415 D9                         exx
0416 E3                         ex (sp),hl
0417 D5                         push de
0418 C5                         push bc
0419 47                         ld b,a
041A FD E5                      push iy
041C F1                         pop af
041D 18 06                      jr L0425
041F D9            L041F:       exx
0420 E3                         ex (sp),hl
0421 D5                         push de
0422 C5                         push bc
0423 46                         ld b,(hl)
0424 23                         inc hl
0425 F5            L0425:       push af
0426 DB E3                      in a,($E3)
0428 4F                         ld c,a
0429 E6 C0                      and $C0
042B B0                         or b
042C 5F                         ld e,a
042D F1                         pop af
042E 47                         ld b,a
042F 7B                         ld a,e
0430 5E                         ld e,(hl)
0431 23                         inc hl
0432 56                         ld d,(hl)
0433 23                         inc hl
0434 D3 E3                      out ($E3),a
0436 78                         ld a,b
0437 CD 45 04                   call L0445
043A D9                         exx
043B 5F                         ld e,a
043C 79                         ld a,c
043D D3 E3                      out ($E3),a
043F 7B                         ld a,e
0440 C1                         pop bc
0441 D1                         pop de
0442 E3                         ex (sp),hl
0443 D9                         exx
0444 C9                         ret
0445 D5            L0445:       push de
0446 D9                         exx
0447 C9                         ret
0448 D3 E3                      out ($E3),a
044A CD 5D 04                   call L045D
044D F5                         push af
044E AF                         xor a
044F D3 E3                      out ($E3),a
0451 F1                         pop af
0452 ED 91 8E 02                nextreg $8E,$02
0456 ED 8A 3F 40                push $3F40
045A C3 F9 1F                   jp L1FF9
045D E5            L045D:       push hl
045E 2A 56 5B                   ld hl,($5B56)
0461 E5                         push hl
0462 F1                         pop af
0463 2A 52 5B                   ld hl,($5B52)
0466 C9                         ret
0467 00                         nop
0468 00                         nop
0469 00                         nop
046A 00                         nop
046B 00                         nop
046C 00                         nop
046D 00                         nop
046E 00                         nop
046F 00                         nop
0470 00                         nop
0471 00                         nop
0472 00                         nop
0473 00                         nop
0474 00                         nop
0475 00                         nop
0476 00                         nop
0477 00                         nop
0478 00                         nop
0479 00                         nop
047A 00                         nop
047B 00                         nop
047C 00                         nop
047D 00                         nop
047E 00                         nop
047F 00                         nop
0480 00                         nop
0481 00                         nop
0482 00                         nop
0483 00                         nop
0484 00                         nop
0485 00                         nop
0486 00                         nop
0487 00                         nop
0488 00                         nop
0489 00                         nop
048A 00                         nop
048B 00                         nop
048C 00                         nop
048D 00                         nop
048E 00                         nop
048F 00                         nop
0490 00                         nop
0491 00                         nop
0492 00                         nop
0493 00                         nop
0494 00                         nop
0495 00                         nop
0496 00                         nop
0497 00                         nop
0498 00                         nop
0499 00                         nop
049A 00                         nop
049B 00                         nop
049C 00                         nop
049D 00                         nop
049E 00                         nop
049F 00                         nop
04A0 00                         nop
04A1 00                         nop
04A2 00                         nop
04A3 00                         nop
04A4 00                         nop
04A5 00                         nop
04A6 00                         nop
04A7 00                         nop
04A8 00                         nop
04A9 00                         nop
04AA 00                         nop
04AB 00                         nop
04AC 00                         nop
04AD 00                         nop
04AE 00                         nop
04AF 00                         nop
04B0 00                         nop
04B1 00                         nop
04B2 00                         nop
04B3 00                         nop
04B4 00                         nop
04B5 00                         nop
04B6 00                         nop
04B7 00                         nop
04B8 00                         nop
04B9 00                         nop
04BA 00                         nop
04BB 00                         nop
04BC 00                         nop
04BD 00                         nop
04BE 00                         nop
04BF 00                         nop
04C0 00                         nop
04C1 00                         nop
04C2 00                         nop
04C3 00                         nop
04C4 00                         nop
04C5 00                         nop
04C6 00                         nop
04C7 00                         nop
04C8 00                         nop
04C9 00                         nop
04CA 00                         nop
04CB 00                         nop
04CC 00                         nop
04CD 00                         nop
04CE 00                         nop
04CF 00                         nop
04D0 00                         nop
04D1 00                         nop
04D2 00                         nop
04D3 00                         nop
04D4 00                         nop
04D5 00                         nop
04D6 00                         nop
04D7 00                         nop
04D8 C3 34 3A                   jp L3A34
04DB AF                         xor a
04DC 77                         ld (hl),a
04DD ED B0                      ldir
04DF 37                         scf
04E0 C9                         ret
04E1 E3            L04E1:       ex (sp),hl
04E2 4E                         ld c,(hl)
04E3 23                         inc hl
04E4 E3                         ex (sp),hl
04E5 DD E5                      push ix
04E7 18 02                      jr L04EB
04E9 FD E5         L04E9:       push iy
04EB E3            L04EB:       ex (sp),hl
04EC 06 00                      ld b,$00
04EE 09                         add hl,bc
04EF 4E                         ld c,(hl)
04F0 23                         inc hl
04F1 46                         ld b,(hl)
04F2 23                         inc hl
04F3 5E                         ld e,(hl)
04F4 23                         inc hl
04F5 56                         ld d,(hl)
04F6 E1                         pop hl
04F7 C9                         ret
04F8 E3            L04F8:       ex (sp),hl
04F9 7E                         ld a,(hl)
04FA 23                         inc hl
04FB E3                         ex (sp),hl
04FC DD E5                      push ix
04FE 18 06                      jr L0506
0500 E3            L0500:       ex (sp),hl
0501 7E                         ld a,(hl)
0502 23                         inc hl
0503 E3                         ex (sp),hl
0504 FD E5                      push iy
0506 E3            L0506:       ex (sp),hl
0507 ED 31                      add hl,a
0509 71                         ld (hl),c
050A 23                         inc hl
050B 70                         ld (hl),b
050C 23                         inc hl
050D 73                         ld (hl),e
050E 23                         inc hl
050F 72                         ld (hl),d
0510 E1                         pop hl
0511 C9                         ret
0512 E3            L0512:       ex (sp),hl
0513 DD E3                      ex (sp),ix
0515 08                         ex af,af'
0516 F5                         push af
0517 ED 57                      ld a,i
0519 7E                         ld a,(hl)
051A 23                         inc hl
051B E5                         push hl
051C 6F                         ld l,a
051D F3                         di
051E 3E 80                      ld a,$80
0520 D3 E3                      out ($E3),a
0522 ED 73 14 20                ld ($2014),sp
0526 3A 15 20                   ld a,($2015)
0529 07                         rlca
052A 38 08                      jr c,L0534
052C 07                         rlca
052D 38 05                      jr c,L0534
052F 31 00 21                   ld sp,$2100
0532 18 04                      jr L0538
0534 E2 38 05      L0534:       jp po,L0538
0537 FB                         ei
0538 F5            L0538:       push af
0539 ED 91 8E 03                nextreg $8E,$03
053D CD CE 00                   call L00CE
0540 7D                         ld a,l
0541 DD E5                      push ix
0543 E1                         pop hl
0544 CD B4 33                   call L33B4
0547 F1                         pop af
0548 37                         scf
0549 CD F3 1F                   call L1FF3
054C 30 04                      jr nc,L0552
054E ED 7B 14 20                ld sp,($2014)
0552 3E 82         L0552:       ld a,$82
0554 D3 E3                      out ($E3),a
0556 E2 5A 05                   jp po,L055A
0559 FB                         ei
055A DD E1         L055A:       pop ix
055C F1                         pop af
055D 08                         ex af,af'
055E DD E3                      ex (sp),ix
0560 C9                         ret
0561 F5                         push af
0562 CD CE 00                   call L00CE
0565 3E 0A                      ld a,$0A
0567 D3 E3                      out ($E3),a
0569 F1                         pop af
056A C9                         ret
056B C3 86 38                   jp L3886
056E CD C3 06      L056E:       call L06C3
0571 D0                         ret nc
0572 CD BC 07                   call L07BC
0575 37                         scf
0576 C9                         ret
0577 FD E5         L0577:       push iy
0579 E1                         pop hl
057A 09                         add hl,bc
057B 34                         inc (hl)
057C 7E                         ld a,(hl)
057D 23                         inc hl
057E DD BE 21                   cp (ix+$21)
0581 D8                         ret c
0582 4E                         ld c,(hl)
0583 23                         inc hl
0584 46                         ld b,(hl)
0585 23                         inc hl
0586 5E                         ld e,(hl)
0587 23                         inc hl
0588 56                         ld d,(hl)
0589 E5                         push hl
058A CD 12 09                   call L0912
058D E1                         pop hl
058E D0                         ret nc
058F CD A1 05                   call L05A1
0592 3E 19                      ld a,$19
0594 D0                         ret nc
0595 72                         ld (hl),d
0596 2B                         dec hl
0597 73                         ld (hl),e
0598 2B                         dec hl
0599 70                         ld (hl),b
059A 2B                         dec hl
059B 71                         ld (hl),c
059C 2B                         dec hl
059D 36 00                      ld (hl),$00
059F 37                         scf
05A0 C9                         ret
05A1 79            L05A1:       ld a,c
05A2 FE 02                      cp $02
05A4 30 04                      jr nc,L05AA
05A6 78                         ld a,b
05A7 B3                         or e
05A8 B2                         or d
05A9 C8                         ret z
05AA E5            L05AA:       push hl
05AB DD 6E 22                   ld l,(ix+$22)
05AE DD 66 23                   ld h,(ix+$23)
05B1 A7                         and a
05B2 ED 42                      sbc hl,bc
05B4 DD 6E 24                   ld l,(ix+$24)
05B7 DD 66 25                   ld h,(ix+$25)
05BA ED 52                      sbc hl,de
05BC 3F                         ccf
05BD E1                         pop hl
05BE C9                         ret
05BF CD E1 04      L05BF:       call L04E1
05C2 2F                         cpl
05C3 0C            L05C3:       inc c
05C4 20 07                      jr nz,L05CD
05C6 04                         inc b
05C7 20 04                      jr nz,L05CD
05C9 1C                         inc e
05CA 20 01                      jr nz,L05CD
05CC 14                         inc d
05CD CD A1 05      L05CD:       call L05A1
05D0 38 06                      jr c,L05D8
05D2 11 00 00                   ld de,$0000
05D5 01 02 00                   ld bc,$0002
05D8 79            L05D8:       ld a,c
05D9 DD BE 2F                   cp (ix+$2F)
05DC 20 13                      jr nz,L05F1
05DE 78                         ld a,b
05DF DD BE 30                   cp (ix+$30)
05E2 20 0D                      jr nz,L05F1
05E4 7B                         ld a,e
05E5 DD BE 31                   cp (ix+$31)
05E8 20 07                      jr nz,L05F1
05EA 7A                         ld a,d
05EB DD BE 32                   cp (ix+$32)
05EE 3E 1A                      ld a,$1A
05F0 C8                         ret z
05F1 C5            L05F1:       push bc
05F2 D5                         push de
05F3 CD 12 09                   call L0912
05F6 38 03                      jr c,L05FB
05F8 E1                         pop hl
05F9 E1                         pop hl
05FA C9                         ret
05FB 7A            L05FB:       ld a,d
05FC E6 0F                      and $0F
05FE B3                         or e
05FF B0                         or b
0600 B1                         or c
0601 D1                         pop de
0602 C1                         pop bc
0603 20 BE                      jr nz,L05C3
0605 CD F8 04                   call L04F8
0608 2F                         cpl
0609 DD 6E 2B                   ld l,(ix+$2B)
060C DD 66 2C                   ld h,(ix+$2C)
060F 2B                         dec hl
0610 DD 75 2B                   ld (ix+$2B),l
0613 DD 74 2C                   ld (ix+$2C),h
0616 7C                         ld a,h
0617 A5                         and l
0618 3C                         inc a
0619 20 0D                      jr nz,L0628
061B DD 6E 2D                   ld l,(ix+$2D)
061E DD 66 2E                   ld h,(ix+$2E)
0621 2B                         dec hl
0622 DD 75 2D                   ld (ix+$2D),l
0625 DD 74 2E                   ld (ix+$2E),h
0628 C5            L0628:       push bc
0629 D5                         push de
062A FD E5                      push iy
062C FD 21 FF 0F                ld iy,$0FFF
0630 21 FF FF                   ld hl,$FFFF
0633 CD 5A 09                   call L095A
0636 FD E1                      pop iy
0638 D1                         pop de
0639 C1                         pop bc
063A DC AC 0E                   call c,L0EAC
063D C9                         ret
063E FD E5         L063E:       push iy
0640 C5                         push bc
0641 D5                         push de
0642 CD BF 05                   call L05BF
0645 69                         ld l,c
0646 60                         ld h,b
0647 D5                         push de
0648 FD E1                      pop iy
064A D1                         pop de
064B C1                         pop bc
064C FD E5                      push iy
064E E5                         push hl
064F DC 5A 09                   call c,L095A
0652 C1                         pop bc
0653 D1                         pop de
0654 FD E1                      pop iy
0656 C9                         ret
0657 FD E5                      push iy
0659 CD A1 05      L0659:       call L05A1
065C 30 22                      jr nc,L0680
065E C5                         push bc
065F D5                         push de
0660 CD 12 09                   call L0912
0663 30 16                      jr nc,L067B
0665 E1                         pop hl
0666 FD E1                      pop iy
0668 C5                         push bc
0669 D5                         push de
066A EB                         ex de,hl
066B FD E5                      push iy
066D C1                         pop bc
066E CD D2 1F                   call L1FD2
0671 21 00 00                   ld hl,$0000
0674 FD 21 00 00                ld iy,$0000
0678 CD 5A 09                   call L095A
067B D1            L067B:       pop de
067C C1                         pop bc
067D 38 DA                      jr c,L0659
067F C9                         ret
0680 FD E1         L0680:       pop iy
0682 CD AC 0E                   call L0EAC
0685 C3 D1 08                   jp L08D1
0688 C5            L0688:       push bc
0689 D5                         push de
068A AF                         xor a
068B CD 6E 05                   call L056E
068E D1                         pop de
068F C1                         pop bc
0690 D0                         ret nc
0691 E5                         push hl
0692 C5                         push bc
0693 D5                         push de
0694 54                         ld d,h
0695 5D                         ld e,l
0696 13                         inc de
0697 01 FF 01                   ld bc,$01FF
069A 36 00                      ld (hl),$00
069C ED B0                      ldir
069E D1                         pop de
069F C1                         pop bc
06A0 AF                         xor a
06A1 CD C3 06                   call L06C3
06A4 E1                         pop hl
06A5 D0                         ret nc
06A6 CD E2 1F                   call L1FE2
06A9 F5            L06A9:       push af
06AA C5                         push bc
06AB D5                         push de
06AC E5                         push hl
06AD CD C4 1E                   call L1EC4
06B0 E1                         pop hl
06B1 D1                         pop de
06B2 C1                         pop bc
06B3 30 0C                      jr nc,L06C1
06B5 13                         inc de
06B6 7A                         ld a,d
06B7 B3                         or e
06B8 20 01                      jr nz,L06BB
06BA 03                         inc bc
06BB F1            L06BB:       pop af
06BC 3D                         dec a
06BD 20 EA                      jr nz,L06A9
06BF 37                         scf
06C0 C9                         ret
06C1 D1            L06C1:       pop de
06C2 C9                         ret
06C3 DD BE 21      L06C3:       cp (ix+$21)
06C6 30 23                      jr nc,L06EB
06C8 FD E5                      push iy
06CA FD 6F                      ld yl,a
06CC FD 26 00                   ld yh,$00
06CF 21 00 00                   ld hl,$0000
06D2 CD E2 1F                   call L1FE2
06D5 FD 09         L06D5:       add iy,bc
06D7 ED 5A                      adc hl,de
06D9 3D                         dec a
06DA 20 F9                      jr nz,L06D5
06DC CD E1 04                   call L04E1
06DF 26 FD                      ld h,$FD
06E1 09                         add hl,bc
06E2 ED 5A                      adc hl,de
06E4 FD E3                      ex (sp),iy
06E6 D1                         pop de
06E7 4D                         ld c,l
06E8 44                         ld b,h
06E9 37                         scf
06EA C9                         ret
06EB 3E 02         L06EB:       ld a,$02
06ED C9                         ret
06EE CD C3 06      L06EE:       call L06C3
06F1 D0                         ret nc
06F2 C3 32 08                   jp L0832
06F5 4E                         ld c,(hl)
06F6 23                         inc hl
06F7 46                         ld b,(hl)
06F8 23                         inc hl
06F9 CD 01 07                   call L0701
06FC 1B                         dec de
06FD 03                         inc bc
06FE 21 F3 00                   ld hl,$00F3
0701 3E 02         L0701:       ld a,$02
0703 F5            L0703:       push af
0704 7A                         ld a,d
0705 E6 C0                      and $C0
0707 20 5A                      jr nz,L0763
0709 F1                         pop af
070A E5                         push hl
070B EB                         ex de,hl
070C D9                         exx
070D E3                         ex (sp),hl
070E D5                         push de
070F C5                         push bc
0710 57                         ld d,a
0711 0E E3                      ld c,$E3
0713 ED 40                      in b,(c)
0715 D9                         exx
0716 79                         ld a,c
0717 E6 03                      and $03
0719 28 19                      jr z,L0734
071B C5                         push bc
071C 4F                         ld c,a
071D D9                         exx
071E 7E            L071E:       ld a,(hl)
071F 23                         inc hl
0720 ED 51                      out (c),d
0722 D9                         exx
0723 77                         ld (hl),a
0724 23                         inc hl
0725 0D                         dec c
0726 D9                         exx
0727 ED 41                      out (c),b
0729 C2 1E 07                   jp nz,L071E
072C D9                         exx
072D C1                         pop bc
072E 79                         ld a,c
072F E6 FC                      and $FC
0731 4F                         ld c,a
0732 18 21                      jr L0755
0734 D9            L0734:       exx
0735 7E            L0735:       ld a,(hl)
0736 23                         inc hl
0737 D9                         exx
0738 5F                         ld e,a
0739 D9                         exx
073A 7E                         ld a,(hl)
073B 23                         inc hl
073C D9                         exx
073D 57                         ld d,a
073E D9                         exx
073F 7E                         ld a,(hl)
0740 23                         inc hl
0741 5E                         ld e,(hl)
0742 23                         inc hl
0743 ED 51                      out (c),d
0745 D9                         exx
0746 73                         ld (hl),e
0747 23                         inc hl
0748 72                         ld (hl),d
0749 23                         inc hl
074A 77                         ld (hl),a
074B 23                         inc hl
074C D9                         exx
074D 7B                         ld a,e
074E D9                         exx
074F 77                         ld (hl),a
0750 23                         inc hl
0751 ED 36 FC FF                add bc,$FFFC
0755 78            L0755:       ld a,b
0756 B1                         or c
0757 D9                         exx
0758 ED 41                      out (c),b
075A 20 D9                      jr nz,L0735
075C C1                         pop bc
075D D1                         pop de
075E E3                         ex (sp),hl
075F D9                         exx
0760 EB                         ex de,hl
0761 E1                         pop hl
0762 C9                         ret
0763 F1            L0763:       pop af
0764 ED B0                      ldir
0766 C9                         ret
0767 3E 02                      ld a,$02
0769 F5            L0769:       push af
076A 7C                         ld a,h
076B E6 C0                      and $C0
076D 20 F4                      jr nz,L0763
076F F1                         pop af
0770 E5                         push hl
0771 D9                         exx
0772 E3                         ex (sp),hl
0773 D5                         push de
0774 C5                         push bc
0775 57                         ld d,a
0776 0E E3                      ld c,$E3
0778 ED 40                      in b,(c)
077A ED 51         L077A:       out (c),d
077C 7E                         ld a,(hl)
077D 23                         inc hl
077E ED 41                      out (c),b
0780 D9                         exx
0781 12                         ld (de),a
0782 13                         inc de
0783 0B                         dec bc
0784 78                         ld a,b
0785 B1                         or c
0786 D9                         exx
0787 20 F1                      jr nz,L077A
0789 C1                         pop bc
078A D1                         pop de
078B E3                         ex (sp),hl
078C D9                         exx
078D E1                         pop hl
078E C9                         ret
078F 21 30 23      L078F:       ld hl,$2330
0792 01 00 02                   ld bc,$0200
0795 C5                         push bc
0796 71            L0796:       ld (hl),c
0797 23                         inc hl
0798 0C                         inc c
0799 10 FB                      djnz L0796
079B C1                         pop bc
079C 51                         ld d,c
079D 1E 07                      ld e,$07
079F 72            L079F:       ld (hl),d
07A0 19                         add hl,de
07A1 10 FC                      djnz L079F
07A3 C9                         ret
07A4 21 30 23      L07A4:       ld hl,$2330
07A7 47                         ld b,a
07A8 4F                         ld c,a
07A9 7E            L07A9:       ld a,(hl)
07AA 70                         ld (hl),b
07AB 23                         inc hl
07AC 47                         ld b,a
07AD B9                         cp c
07AE 20 F9                      jr nz,L07A9
07B0 3C            L07B0:       inc a
07B1 21 40 21                   ld hl,$2140
07B4 11 00 02                   ld de,$0200
07B7 19            L07B7:       add hl,de
07B8 3D                         dec a
07B9 20 FC                      jr nz,L07B7
07BB C9                         ret
07BC FD E5         L07BC:       push iy
07BE CD C4 07                   call L07C4
07C1 FD E1                      pop iy
07C3 C9                         ret
07C4 FD 21 32 23   L07C4:       ld iy,$2332
07C8 2E 02                      ld l,$02
07CA FD CB 00 46   L07CA:       bit 0,(iy)
07CE 28 2E                      jr z,L07FE
07D0 FD 7E 03                   ld a,(iy+$03)
07D3 BB                         cp e
07D4 20 28                      jr nz,L07FE
07D6 FD 7E 04                   ld a,(iy+$04)
07D9 BA                         cp d
07DA 20 22                      jr nz,L07FE
07DC FD 7E 05                   ld a,(iy+$05)
07DF B9                         cp c
07E0 20 1C                      jr nz,L07FE
07E2 FD 7E 06                   ld a,(iy+$06)
07E5 B8                         cp b
07E6 20 16                      jr nz,L07FE
07E8 DD 7D                      ld a,xl
07EA FD BE 01                   cp (iy+$01)
07ED 20 0F                      jr nz,L07FE
07EF DD 7C                      ld a,xh
07F1 FD BE 02                   cp (iy+$02)
07F4 20 08                      jr nz,L07FE
07F6 3E 02                      ld a,$02
07F8 95                         sub l
07F9 CD A4 07                   call L07A4
07FC 37                         scf
07FD C9                         ret
07FE C5            L07FE:       push bc
07FF 01 07 00                   ld bc,$0007
0802 FD 09                      add iy,bc
0804 C1                         pop bc
0805 2D                         dec l
0806 20 C2                      jr nz,L07CA
0808 3A 31 23                   ld a,($2331)
080B D5                         push de
080C CD B9 08                   call L08B9
080F E1                         pop hl
0810 FD 36 00 01                ld (iy),$01
0814 DD 7D                      ld a,xl
0816 FD 77 01                   ld (iy+$01),a
0819 DD 7C                      ld a,xh
081B FD 77 02                   ld (iy+$02),a
081E FD 75 03                   ld (iy+$03),l
0821 FD 74 04                   ld (iy+$04),h
0824 FD 71 05                   ld (iy+$05),c
0827 FD 70 06                   ld (iy+$06),b
082A 3A 31 23                   ld a,($2331)
082D CD A4 07                   call L07A4
0830 A7                         and a
0831 C9                         ret
0832 FD E5         L0832:       push iy
0834 CD C4 07                   call L07C4
0837 38 17                      jr c,L0850
0839 E5                         push hl
083A FD 5E 03                   ld e,(iy+$03)
083D FD 56 04                   ld d,(iy+$04)
0840 FD 4E 05                   ld c,(iy+$05)
0843 FD 46 06                   ld b,(iy+$06)
0846 CD A5 1E                   call L1EA5
0849 E1                         pop hl
084A 38 04                      jr c,L0850
084C FD CB 00 86                res 0,(iy)
0850 FD E1         L0850:       pop iy
0852 C9                         ret
0853 3A 30 23      L0853:       ld a,($2330)
0856 DD E5         L0856:       push ix
0858 FD E5                      push iy
085A F5                         push af
085B CD 04 09                   call L0904
085E FD 7E 01                   ld a,(iy+$01)
0861 DD 6F                      ld xl,a
0863 FD 7E 02                   ld a,(iy+$02)
0866 DD 67                      ld xh,a
0868 F1                         pop af
0869 CD B0 07                   call L07B0
086C FD CB 00 56                bit 2,(iy)
0870 FD 36 00 01                ld (iy),$01
0874 FD 5E 03                   ld e,(iy+$03)
0877 FD 56 04                   ld d,(iy+$04)
087A FD 4E 05                   ld c,(iy+$05)
087D FD 46 06                   ld b,(iy+$06)
0880 28 2F                      jr z,L08B1
0882 DD 7E 18                   ld a,(ix+$18)
0885 F5            L0885:       push af
0886 E5                         push hl
0887 C5                         push bc
0888 D5                         push de
0889 CD C4 1E                   call L1EC4
088C D1                         pop de
088D C1                         pop bc
088E 30 1D                      jr nc,L08AD
0890 DD 6E 14                   ld l,(ix+$14)
0893 DD 66 15                   ld h,(ix+$15)
0896 19                         add hl,de
0897 EB                         ex de,hl
0898 DD 6E 16                   ld l,(ix+$16)
089B DD 66 17                   ld h,(ix+$17)
089E ED 4A                      adc hl,bc
08A0 44                         ld b,h
08A1 4D                         ld c,l
08A2 E1                         pop hl
08A3 F1                         pop af
08A4 3D                         dec a
08A5 20 DE                      jr nz,L0885
08A7 37                         scf
08A8 FD E1         L08A8:       pop iy
08AA DD E1                      pop ix
08AC C9                         ret
08AD E1            L08AD:       pop hl
08AE D1                         pop de
08AF 18 F7                      jr L08A8
08B1 CD C4 1E      L08B1:       call L1EC4
08B4 18 F2                      jr L08A8
08B6 3A 30 23                   ld a,($2330)
08B9 F5            L08B9:       push af
08BA CD 04 09                   call L0904
08BD F1                         pop af
08BE 37                         scf
08BF FD CB 00 46                bit 0,(iy)
08C3 C8                         ret z
08C4 FD CB 00 4E                bit 1,(iy)
08C8 C5                         push bc
08C9 C4 56 08                   call nz,L0856
08CC C1                         pop bc
08CD C9                         ret
08CE CD E2 08      L08CE:       call L08E2
08D1 FD E5         L08D1:       push iy
08D3 06 02                      ld b,$02
08D5 3E 02         L08D5:       ld a,$02
08D7 90                         sub b
08D8 CD B9 08                   call L08B9
08DB 30 02                      jr nc,L08DF
08DD 10 F6                      djnz L08D5
08DF FD E1         L08DF:       pop iy
08E1 C9                         ret
08E2 FD E5         L08E2:       push iy
08E4 3A 30 23                   ld a,($2330)
08E7 CD 04 09                   call L0904
08EA FD CB 00 CE                set 1,(iy)
08EE FD E1                      pop iy
08F0 C9                         ret
08F1 FD E5         L08F1:       push iy
08F3 3A 30 23                   ld a,($2330)
08F6 CD 04 09                   call L0904
08F9 FD CB 00 CE                set 1,(iy)
08FD FD CB 00 D6                set 2,(iy)
0901 FD E1                      pop iy
0903 C9                         ret
0904 FD 21 2B 23   L0904:       ld iy,$232B
0908 11 07 00                   ld de,$0007
090B 3C                         inc a
090C FD 19         L090C:       add iy,de
090E 3D                         dec a
090F 20 FB                      jr nz,L090C
0911 C9                         ret
0912 CD A1 05      L0912:       call L05A1
0915 3E 02                      ld a,$02
0917 D0                         ret nc
0918 DD CB 13 7E                bit 7,(ix+$13)
091C 20 08                      jr nz,L0926
091E CB 21                      sla c
0920 CB 10                      rl b
0922 CB 13                      rl e
0924 CB 12                      rl d
0926 68            L0926:       ld l,b
0927 63                         ld h,e
0928 7A                         ld a,d
0929 59                         ld e,c
092A DD 4E 19                   ld c,(ix+$19)
092D DD 46 1A                   ld b,(ix+$1A)
0930 09                         add hl,bc
0931 EB                         ex de,hl
0932 CE 00                      adc a,$00
0934 4F                         ld c,a
0935 3E 00                      ld a,$00
0937 8F                         adc a,a
0938 47                         ld b,a
0939 26 00                      ld h,$00
093B 29                         add hl,hl
093C E5                         push hl
093D CD 32 08                   call L0832
0940 D1                         pop de
0941 D0                         ret nc
0942 19                         add hl,de
0943 4E                         ld c,(hl)
0944 23                         inc hl
0945 46                         ld b,(hl)
0946 DD CB 13 7E                bit 7,(ix+$13)
094A 20 09                      jr nz,L0955
094C 23                         inc hl
094D 5E                         ld e,(hl)
094E 23                         inc hl
094F 7E                         ld a,(hl)
0950 E6 0F                      and $0F
0952 57                         ld d,a
0953 37                         scf
0954 C9                         ret
0955 11 00 00      L0955:       ld de,$0000
0958 37                         scf
0959 C9                         ret
095A 22 12 20      L095A:       ld ($2012),hl
095D CD A1 05                   call L05A1
0960 3E 02                      ld a,$02
0962 D0                         ret nc
0963 DD CB 13 7E                bit 7,(ix+$13)
0967 20 08                      jr nz,L0971
0969 CB 21                      sla c
096B CB 10                      rl b
096D CB 13                      rl e
096F CB 12                      rl d
0971 68            L0971:       ld l,b
0972 63                         ld h,e
0973 7A                         ld a,d
0974 59                         ld e,c
0975 DD 4E 19                   ld c,(ix+$19)
0978 DD 46 1A                   ld b,(ix+$1A)
097B 09                         add hl,bc
097C EB                         ex de,hl
097D CE 00                      adc a,$00
097F 4F                         ld c,a
0980 3E 00                      ld a,$00
0982 8F                         adc a,a
0983 47                         ld b,a
0984 26 00                      ld h,$00
0986 29                         add hl,hl
0987 E5                         push hl
0988 CD 32 08                   call L0832
098B D1                         pop de
098C D0                         ret nc
098D 19                         add hl,de
098E ED 5B 12 20                ld de,($2012)
0992 73                         ld (hl),e
0993 23                         inc hl
0994 72                         ld (hl),d
0995 DD CB 13 7E                bit 7,(ix+$13)
0999 20 0F                      jr nz,L09AA
099B 23                         inc hl
099C FD E5                      push iy
099E D1                         pop de
099F 73                         ld (hl),e
09A0 23                         inc hl
09A1 7A                         ld a,d
09A2 E6 0F                      and $0F
09A4 57                         ld d,a
09A5 7E                         ld a,(hl)
09A6 E6 F0                      and $F0
09A8 B2                         or d
09A9 77                         ld (hl),a
09AA CD F1 08      L09AA:       call L08F1
09AD 37                         scf
09AE C9                         ret
09AF CD 8F 07                   call L078F
09B2 06 00                      ld b,$00
09B4 DD 21 8E 2E                ld ix,$2E8E
09B8 CD 3F 0A                   call L0A3F
09BB 06 01                      ld b,$01
09BD DD 21 A1 2E                ld ix,$2EA1
09C1 DC 3F 0A                   call c,L0A3F
09C4 06 01                      ld b,$01
09C6 D0                         ret nc
09C7 04                         inc b
09C8 C9                         ret
09C9 CD 0A 0A                   call L0A0A
09CC CD F7 0C                   call L0CF7
09CF 7A                         ld a,d
09D0 3C                         inc a
09D1 37                         scf
09D2 CC 98 0C                   call z,L0C98
09D5 D0                         ret nc
09D6 21 00 00                   ld hl,$0000
09D9 E5                         push hl
09DA FD E1                      pop iy
09DC DD 7E 21                   ld a,(ix+$21)
09DF FD 09         L09DF:       add iy,bc
09E1 ED 5A                      adc hl,de
09E3 3D                         dec a
09E4 20 F9                      jr nz,L09DF
09E6 FD E5                      push iy
09E8 D1                         pop de
09E9 CB 3C                      srl h
09EB CB 1D                      rr l
09ED CB 1A                      rr d
09EF CB 1B                      rr e
09F1 44                         ld b,h
09F2 4D                         ld c,l
09F3 62                         ld h,d
09F4 6B                         ld l,e
09F5 78                         ld a,b
09F6 B1                         or c
09F7 28 03                      jr z,L09FC
09F9 21 FF FF                   ld hl,$FFFF
09FC 37            L09FC:       scf
09FD C9                         ret
09FE 87            L09FE:       add a,a
09FF 21 6F 2E                   ld hl,$2E6F
0A02 ED 31                      add hl,a
0A04 56                         ld d,(hl)
0A05 2B                         dec hl
0A06 5E                         ld e,(hl)
0A07 7A                         ld a,d
0A08 B3                         or e
0A09 C9                         ret
0A0A CD FE 09      L0A0A:       call L09FE
0A0D D5                         push de
0A0E FD E1                      pop iy
0A10 FD 5E 00                   ld e,(iy)
0A13 FD 56 01                   ld d,(iy+$01)
0A16 D5                         push de
0A17 DD E1                      pop ix
0A19 C9                         ret
0A1A CD 0A 0A      L0A1A:       call L0A0A
0A1D FD E5                      push iy
0A1F E1                         pop hl
0A20 11 50 2E                   ld de,$2E50
0A23 D5                         push de
0A24 01 0F 00                   ld bc,$000F
0A27 ED B0                      ldir
0A29 FD E1                      pop iy
0A2B C9                         ret
0A2C E6 01         L0A2C:       and $01
0A2E 21 8E 2E                   ld hl,$2E8E
0A31 28 03                      jr z,L0A36
0A33 21 A1 2E                   ld hl,$2EA1
0A36 DD E5         L0A36:       push ix
0A38 D1                         pop de
0A39 01 13 00                   ld bc,$0013
0A3C ED B0                      ldir
0A3E C9                         ret
0A3F DD 70 10      L0A3F:       ld (ix+$10),b
0A42 48                         ld c,b
0A43 CD E3 0E                   call L0EE3
0A46 D0                         ret nc
0A47 DD 7E 10                   ld a,(ix+$10)
0A4A B0                         or b
0A4B DD 77 10                   ld (ix+$10),a
0A4E 2B                         dec hl
0A4F 7C                         ld a,h
0A50 A5                         and l
0A51 3C                         inc a
0A52 20 01                      jr nz,L0A55
0A54 1B                         dec de
0A55 44            L0A55:       ld b,h
0A56 4D                         ld c,l
0A57 CD F8 04                   call L04F8
0A5A 07                         rlca
0A5B 37                         scf
0A5C C9                         ret
0A5D 03            L0A5D:       inc bc
0A5E 04                         inc b
0A5F 05                         dec b
0A60 C2 10 0B                   jp nz,L0B10
0A63 41                         ld b,c
0A64 C5                         push bc
0A65 DD E5                      push ix
0A67 CD 2C 0A                   call L0A2C
0A6A DD 21 00 00                ld ix,$0000
0A6E CD BC 07                   call L07BC
0A71 22 2C 20                   ld ($202C),hl
0A74 DD E1                      pop ix
0A76 3E 01                      ld a,$01
0A78 DD 77 2A      L0A78:       ld (ix+$2A),a
0A7B C1                         pop bc
0A7C C5                         push bc
0A7D 0D                         dec c
0A7E DD 71 11                   ld (ix+$11),c
0A81 01 00 00                   ld bc,$0000
0A84 DD 70 12                   ld (ix+$12),b
0A87 50                         ld d,b
0A88 59                         ld e,c
0A89 2A 2C 20                   ld hl,($202C)
0A8C E5                         push hl
0A8D CD A5 1E                   call L1EA5
0A90 E1                         pop hl
0A91 D2 0F 0B                   jp nc,L0B0F
0A94 24                         inc h
0A95 E5                         push hl
0A96 FD E1                      pop iy
0A98 24                         inc h
0A99 2B                         dec hl
0A9A 7E                         ld a,(hl)
0A9B FE AA                      cp $AA
0A9D 20 70                      jr nz,L0B0F
0A9F 2B                         dec hl
0AA0 7E                         ld a,(hl)
0AA1 FE 55                      cp $55
0AA3 20 6A                      jr nz,L0B0F
0AA5 11 BE 00                   ld de,$00BE
0AA8 DD 7E 2A                   ld a,(ix+$2A)
0AAB FD 19         L0AAB:       add iy,de
0AAD 1E 10                      ld e,$10
0AAF 3D                         dec a
0AB0 20 F9                      jr nz,L0AAB
0AB2 FD 7E 04                   ld a,(iy+$04)
0AB5 A7                         and a
0AB6 28 0F                      jr z,L0AC7
0AB8 EF                         rst $28
0AB9 08                         ex af,af'
0ABA CD F8 04                   call L04F8
0ABD 01 EF 0C                   ld bc,$0CEF
0AC0 CD F8 04                   call L04F8
0AC3 07                         rlca
0AC4 CD 14 0B                   call L0B14
0AC7 C1            L0AC7:       pop bc
0AC8 30 28                      jr nc,L0AF2
0ACA 10 26                      djnz L0AF2
0ACC 0D            L0ACC:       dec c
0ACD FD E5                      push iy
0ACF E1                         pop hl
0AD0 7E                         ld a,(hl)
0AD1 FE 29                      cp $29
0AD3 11 E9 0E                   ld de,$0EE9
0AD6 20 0E                      jr nz,L0AE6
0AD8 3E 05                      ld a,$05
0ADA ED 31                      add hl,a
0ADC 11 2E 20                   ld de,$202E
0ADF D5                         push de
0AE0 01 0B 00                   ld bc,$000B
0AE3 ED B0                      ldir
0AE5 D1                         pop de
0AE6 D5            L0AE6:       push de
0AE7 CD 00 12                   call L1200
0AEA D1                         pop de
0AEB 30 03                      jr nc,L0AF0
0AED 20 01                      jr nz,L0AF0
0AEF EB                         ex de,hl
0AF0 37            L0AF0:       scf
0AF1 C9                         ret
0AF2 C5            L0AF2:       push bc
0AF3 DD 7E 10                   ld a,(ix+$10)
0AF6 CD 2C 0A                   call L0A2C
0AF9 DD 7E 2A                   ld a,(ix+$2A)
0AFC 3C                         inc a
0AFD FE 05                      cp $05
0AFF DA 78 0A                   jp c,L0A78
0B02 C1                         pop bc
0B03 0D                         dec c
0B04 20 0A                      jr nz,L0B10
0B06 DD 71 2A                   ld (ix+$2A),c
0B09 CD 14 0B                   call L0B14
0B0C 38 BE                      jr c,L0ACC
0B0E C9                         ret
0B0F E1            L0B0F:       pop hl
0B10 3E 38         L0B10:       ld a,$38
0B12 A7                         and a
0B13 C9                         ret
0B14 06 00         L0B14:       ld b,$00
0B16 48                         ld c,b
0B17 50                         ld d,b
0B18 58                         ld e,b
0B19 2A 2C 20                   ld hl,($202C)
0B1C E5                         push hl
0B1D CD A5 1E                   call L1EA5
0B20 FD E1                      pop iy
0B22 D0                         ret nc
0B23 EF                         rst $28
0B24 0B                         dec bc
0B25 79                         ld a,c
0B26 A7                         and a
0B27 20 E7                      jr nz,L0B10
0B29 78                         ld a,b
0B2A FE 02                      cp $02
0B2C 20 E2                      jr nz,L0B10
0B2E 7B                         ld a,e
0B2F A7                         and a
0B30 28 DE                      jr z,L0B10
0B32 DD 77 21                   ld (ix+$21),a
0B35 EF                         rst $28
0B36 0E 78                      ld c,$78
0B38 B1                         or c
0B39 28 D5                      jr z,L0B10
0B3B DD 71 19                   ld (ix+$19),c
0B3E DD 70 1A                   ld (ix+$1A),b
0B41 60                         ld h,b
0B42 69                         ld l,c
0B43 EF                         rst $28
0B44 16 78                      ld d,$78
0B46 B1                         or c
0B47 28 09                      jr z,L0B52
0B49 DD 36 13 80                ld (ix+$13),$80
0B4D 11 00 00                   ld de,$0000
0B50 18 05                      jr L0B57
0B52 DD 77 13      L0B52:       ld (ix+$13),a
0B55 EF                         rst $28
0B56 24                         inc h
0B57 CD F8 04      L0B57:       call L04F8
0B5A 14                         inc d
0B5B FD 7E 10                   ld a,(iy+$10)
0B5E A7                         and a
0B5F 28 AF         L0B5F:       jr z,L0B10
0B61 DD 77 18                   ld (ix+$18),a
0B64 E5                         push hl
0B65 FD E3                      ex (sp),iy
0B67 21 00 00                   ld hl,$0000
0B6A FD 09         L0B6A:       add iy,bc
0B6C ED 5A                      adc hl,de
0B6E 3D                         dec a
0B6F 20 F9                      jr nz,L0B6A
0B71 FD E3                      ex (sp),iy
0B73 EF                         rst $28
0B74 11 D1 DD                   ld de,$DDD1
0B77 CB 13                      rl e
0B79 7E                         ld a,(hl)
0B7A 20 0E                      jr nz,L0B8A
0B7C 78                         ld a,b
0B7D B1                         or c
0B7E 20 90         L0B7E:       jr nz,L0B10
0B80 D5                         push de
0B81 EF                         rst $28
0B82 2C                         inc l
0B83 CD F8 04                   call L04F8
0B86 1D                         dec e
0B87 D1                         pop de
0B88 18 29                      jr L0BB3
0B8A C5            L0B8A:       push bc
0B8B EB                         ex de,hl
0B8C 44                         ld b,h
0B8D 4D                         ld c,l
0B8E CD F8 04                   call L04F8
0B91 1D                         dec e
0B92 EB                         ex de,hl
0B93 C1                         pop bc
0B94 79                         ld a,c
0B95 E6 0F                      and $0F
0B97 20 E5                      jr nz,L0B7E
0B99 3E 04                      ld a,$04
0B9B CB 38         L0B9B:       srl b
0B9D CB 19                      rr c
0B9F 3D                         dec a
0BA0 20 F9                      jr nz,L0B9B
0BA2 78                         ld a,b
0BA3 B1                         or c
0BA4 28 B9                      jr z,L0B5F
0BA6 DD 71 1B                   ld (ix+$1B),c
0BA9 DD 70 1C                   ld (ix+$1C),b
0BAC EB                         ex de,hl
0BAD 09                         add hl,bc
0BAE EB                         ex de,hl
0BAF 01 00 00                   ld bc,$0000
0BB2 09                         add hl,bc
0BB3 E5            L0BB3:       push hl
0BB4 D5                         push de
0BB5 EB                         ex de,hl
0BB6 06 00                      ld b,$00
0BB8 DD 4E 21                   ld c,(ix+$21)
0BBB A7                         and a
0BBC ED 42                      sbc hl,bc
0BBE EB                         ex de,hl
0BBF 48                         ld c,b
0BC0 ED 42                      sbc hl,bc
0BC2 EB                         ex de,hl
0BC3 DD 4E 21                   ld c,(ix+$21)
0BC6 ED 42                      sbc hl,bc
0BC8 EB                         ex de,hl
0BC9 48                         ld c,b
0BCA ED 42                      sbc hl,bc
0BCC EB                         ex de,hl
0BCD 44                         ld b,h
0BCE 4D                         ld c,l
0BCF CD F8 04                   call L04F8
0BD2 26 EF                      ld h,$EF
0BD4 13                         inc de
0BD5 11 00 00                   ld de,$0000
0BD8 78                         ld a,b
0BD9 B1                         or c
0BDA 20 02                      jr nz,L0BDE
0BDC EF                         rst $28
0BDD 20 60                      jr nz,L0C3F
0BDF 69                         ld l,c
0BE0 42                         ld b,d
0BE1 4B                         ld c,e
0BE2 D1                         pop de
0BE3 ED 52                      sbc hl,de
0BE5 EB                         ex de,hl
0BE6 60                         ld h,b
0BE7 69                         ld l,c
0BE8 C1                         pop bc
0BE9 ED 42                      sbc hl,bc
0BEB DD 7E 21                   ld a,(ix+$21)
0BEE CB 3F         L0BEE:       srl a
0BF0 28 0A                      jr z,L0BFC
0BF2 CB 3C                      srl h
0BF4 CB 1D                      rr l
0BF6 CB 1A                      rr d
0BF8 CB 1B                      rr e
0BFA 18 F2                      jr L0BEE
0BFC 13            L0BFC:       inc de
0BFD 7A                         ld a,d
0BFE B3                         or e
0BFF 20 01                      jr nz,L0C02
0C01 23                         inc hl
0C02 EB            L0C02:       ex de,hl
0C03 44                         ld b,h
0C04 4D                         ld c,l
0C05 CD F8 04                   call L04F8
0C08 22 7A B3                   ld ($B37A),hl
0C0B 20 08                      jr nz,L0C15
0C0D 21 F5 0F                   ld hl,$0FF5
0C10 ED 42                      sbc hl,bc
0C12 D2 10 0B                   jp nc,L0B10
0C15 CB 3A         L0C15:       srl d
0C17 CB 1B                      rr e
0C19 CB 18                      rr b
0C1B CB 19                      rr c
0C1D CD F8 04                   call L04F8
0C20 2F                         cpl
0C21 DD CB 13 7E                bit 7,(ix+$13)
0C25 C2 87 0C                   jp nz,L0C87
0C28 FD 5E 30                   ld e,(iy+$30)
0C2B FD 56 31                   ld d,(iy+$31)
0C2E DD 73 33                   ld (ix+$33),e
0C31 DD 72 34                   ld (ix+$34),d
0C34 01 00 00                   ld bc,$0000
0C37 CD 32 08                   call L0832
0C3A 30 3E                      jr nc,L0C7A
0C3C 11 E4 01                   ld de,$01E4
0C3F 19            L0C3F:       add hl,de
0C40 7E                         ld a,(hl)
0C41 23                         inc hl
0C42 FE 72                      cp $72
0C44 20 34                      jr nz,L0C7A
0C46 7E                         ld a,(hl)
0C47 23                         inc hl
0C48 FE 72                      cp $72
0C4A 20 2E                      jr nz,L0C7A
0C4C 7E                         ld a,(hl)
0C4D 23                         inc hl
0C4E FE 41                      cp $41
0C50 20 28                      jr nz,L0C7A
0C52 7E                         ld a,(hl)
0C53 23                         inc hl
0C54 FE 61                      cp $61
0C56 20 22                      jr nz,L0C7A
0C58 4E                         ld c,(hl)
0C59 23                         inc hl
0C5A 46                         ld b,(hl)
0C5B 23                         inc hl
0C5C 5E                         ld e,(hl)
0C5D 23                         inc hl
0C5E 56                         ld d,(hl)
0C5F 23                         inc hl
0C60 CD AA 05                   call L05AA
0C63 30 15                      jr nc,L0C7A
0C65 CD F8 04                   call L04F8
0C68 2B                         dec hl
0C69 4E                         ld c,(hl)
0C6A 23                         inc hl
0C6B 46                         ld b,(hl)
0C6C 23                         inc hl
0C6D 5E                         ld e,(hl)
0C6E 23                         inc hl
0C6F 56                         ld d,(hl)
0C70 CD F8 04                   call L04F8
0C73 2F                         cpl
0C74 DD CB 13 F6                set 6,(ix+$13)
0C78 18 08                      jr L0C82
0C7A CD E1 04      L0C7A:       call L04E1
0C7D 2F                         cpl
0C7E CD F8 04                   call L04F8
0C81 2B                         dec hl
0C82 11 42 00      L0C82:       ld de,$0042
0C85 18 0D                      jr L0C94
0C87 11 FF FF      L0C87:       ld de,$FFFF
0C8A 01 00 00                   ld bc,$0000
0C8D CD F8 04                   call L04F8
0C90 2B                         dec hl
0C91 11 26 00                   ld de,$0026
0C94 FD 19         L0C94:       add iy,de
0C96 37                         scf
0C97 C9                         ret
0C98 01 00 00      L0C98:       ld bc,$0000
0C9B C5                         push bc
0C9C 50                         ld d,b
0C9D 59                         ld e,c
0C9E CD F8 04                   call L04F8
0CA1 2B                         dec hl
0CA2 CD E1 04                   call L04E1
0CA5 14                         inc d
0CA6 D5                         push de
0CA7 FD E1                      pop iy
0CA9 60                         ld h,b
0CAA 69                         ld l,c
0CAB CD E1 04                   call L04E1
0CAE 17                         rla
0CAF C1                         pop bc
0CB0 D5            L0CB0:       push de
0CB1 C5                         push bc
0CB2 E5                         push hl
0CB3 CD 32 08                   call L0832
0CB6 30 45                      jr nc,L0CFD
0CB8 06 00                      ld b,$00
0CBA DD CB 13 7E                bit 7,(ix+$13)
0CBE 20 15                      jr nz,L0CD5
0CC0 06 80                      ld b,$80
0CC2 7E            L0CC2:       ld a,(hl)
0CC3 23                         inc hl
0CC4 B6                         or (hl)
0CC5 23                         inc hl
0CC6 B6                         or (hl)
0CC7 23                         inc hl
0CC8 4F                         ld c,a
0CC9 7E                         ld a,(hl)
0CCA 23                         inc hl
0CCB E6 0F                      and $0F
0CCD B1                         or c
0CCE CC D2 1F                   call z,L1FD2
0CD1 10 EF                      djnz L0CC2
0CD3 18 09                      jr L0CDE
0CD5 7E            L0CD5:       ld a,(hl)
0CD6 23                         inc hl
0CD7 B6                         or (hl)
0CD8 23                         inc hl
0CD9 CC D2 1F                   call z,L1FD2
0CDC 10 F7                      djnz L0CD5
0CDE E1            L0CDE:       pop hl
0CDF C1                         pop bc
0CE0 D1                         pop de
0CE1 13                         inc de
0CE2 7A                         ld a,d
0CE3 B3                         or e
0CE4 20 01                      jr nz,L0CE7
0CE6 03                         inc bc
0CE7 2B            L0CE7:       dec hl
0CE8 7C                         ld a,h
0CE9 A5                         and l
0CEA 3C                         inc a
0CEB 20 02                      jr nz,L0CEF
0CED FD 2B                      dec iy
0CEF FD 7C         L0CEF:       ld a,yh
0CF1 FD B5                      or yl
0CF3 B4                         or h
0CF4 B5                         or l
0CF5 20 B9                      jr nz,L0CB0
0CF7 CD E1 04      L0CF7:       call L04E1
0CFA 2B                         dec hl
0CFB 37                         scf
0CFC C9                         ret
0CFD E1            L0CFD:       pop hl
0CFE C1                         pop bc
0CFF D1                         pop de
0D00 C9                         ret
0D01 DD E5         L0D01:       push ix
0D03 C5                         push bc
0D04 E5                         push hl
0D05 DD 21 3E 20                ld ix,$203E
0D09 CD 5D 0A                   call L0A5D
0D0C E1                         pop hl
0D0D 30 3D                      jr nc,L0D4C
0D0F DD 7E 2A                   ld a,(ix+$2A)
0D12 C6 30                      add a,$30
0D14 77                         ld (hl),a
0D15 23                         inc hl
0D16 36 3E                      ld (hl),$3E
0D18 23                         inc hl
0D19 EB                         ex de,hl
0D1A 01 0B 00                   ld bc,$000B
0D1D ED B0                      ldir
0D1F EB                         ex de,hl
0D20 06 03                      ld b,$03
0D22 36 20         L0D22:       ld (hl),$20
0D24 23                         inc hl
0D25 10 FB                      djnz L0D22
0D27 36 10                      ld (hl),$10
0D29 DD CB 13 7E                bit 7,(ix+$13)
0D2D 20 01                      jr nz,L0D30
0D2F 34                         inc (hl)
0D30 23            L0D30:       inc hl
0D31 06 06                      ld b,$06
0D33 36 FF         L0D33:       ld (hl),$FF
0D35 23                         inc hl
0D36 10 FB                      djnz L0D33
0D38 EB                         ex de,hl
0D39 DD E5                      push ix
0D3B E1                         pop hl
0D3C 01 07 00                   ld bc,$0007
0D3F 09                         add hl,bc
0D40 0E 04                      ld c,$04
0D42 ED B0                      ldir
0D44 EB                         ex de,hl
0D45 06 25                      ld b,$25
0D47 71            L0D47:       ld (hl),c
0D48 23                         inc hl
0D49 10 FC                      djnz L0D47
0D4B 37                         scf
0D4C C1            L0D4C:       pop bc
0D4D DD E1                      pop ix
0D4F C9                         ret
0D50 01 00 00                   ld bc,$0000
0D53 F5            L0D53:       push af
0D54 C5                         push bc
0D55 E5                         push hl
0D56 21 00 22                   ld hl,$2200
0D59 CD 01 0D                   call L0D01
0D5C E1                         pop hl
0D5D 30 3D                      jr nc,L0D9C
0D5F E5                         push hl
0D60 23                         inc hl
0D61 7E                         ld a,(hl)
0D62 FE 3E                      cp $3E
0D64 E1                         pop hl
0D65 E5                         push hl
0D66 01 10 00                   ld bc,$0010
0D69 11 00 22                   ld de,$2200
0D6C 37                         scf
0D6D 28 05                      jr z,L0D74
0D6F 0E 0E                      ld c,$0E
0D71 13                         inc de
0D72 13                         inc de
0D73 A7                         and a
0D74 1A            L0D74:       ld a,(de)
0D75 13                         inc de
0D76 ED A1                      cpi
0D78 20 08                      jr nz,L0D82
0D7A EA 74 0D                   jp pe,L0D74
0D7D E1            L0D7D:       pop hl
0D7E C1                         pop bc
0D7F E1                         pop hl
0D80 37                         scf
0D81 C9                         ret
0D82 30 12         L0D82:       jr nc,L0D96
0D84 79                         ld a,c
0D85 FE 0D                      cp $0D
0D87 20 0D                      jr nz,L0D96
0D89 3E 20                      ld a,$20
0D8B 2B                         dec hl
0D8C 06 0E                      ld b,$0E
0D8E BE            L0D8E:       cp (hl)
0D8F 20 05                      jr nz,L0D96
0D91 23                         inc hl
0D92 10 FA                      djnz L0D8E
0D94 18 E7                      jr L0D7D
0D96 E1            L0D96:       pop hl
0D97 C1                         pop bc
0D98 F1                         pop af
0D99 03                         inc bc
0D9A 18 B7                      jr L0D53
0D9C C1            L0D9C:       pop bc
0D9D C1                         pop bc
0D9E C9                         ret
0D9F C1            L0D9F:       pop bc
0DA0 C1            L0DA0:       pop bc
0DA1 C1                         pop bc
0DA2 C3 0B 0E                   jp L0E0B
0DA5 DD E5                      push ix
0DA7 7B                         ld a,e
0DA8 1C                         inc e
0DA9 D5                         push de
0DAA CD FE 09                   call L09FE
0DAD D1                         pop de
0DAE E5                         push hl
0DAF D5                         push de
0DB0 AF                         xor a
0DB1 F5            L0DB1:       push af
0DB2 CD FE 09                   call L09FE
0DB5 28 21                      jr z,L0DD8
0DB7 EB                         ex de,hl
0DB8 5E                         ld e,(hl)
0DB9 23                         inc hl
0DBA 56                         ld d,(hl)
0DBB D5                         push de
0DBC FD E1                      pop iy
0DBE 79                         ld a,c
0DBF FD BE 11                   cp (iy+$11)
0DC2 20 14                      jr nz,L0DD8
0DC4 78                         ld a,b
0DC5 FD BE 12                   cp (iy+$12)
0DC8 20 0E                      jr nz,L0DD8
0DCA E1                         pop hl
0DCB D1                         pop de
0DCC D5                         push de
0DCD E5                         push hl
0DCE FD 7E 10                   ld a,(iy+$10)
0DD1 E6 01                      and $01
0DD3 BA                         cp d
0DD4 3E 3B                      ld a,$3B
0DD6 28 C7                      jr z,L0D9F
0DD8 F1            L0DD8:       pop af
0DD9 3C                         inc a
0DDA FE 10                      cp $10
0DDC 38 D3                      jr c,L0DB1
0DDE E1                         pop hl
0DDF E5                         push hl
0DE0 DD 21 DB 29                ld ix,$29DB
0DE4 11 35 00                   ld de,$0035
0DE7 DD 19         L0DE7:       add ix,de
0DE9 2D                         dec l
0DEA 20 FB                      jr nz,L0DE7
0DEC 7C                         ld a,h
0DED CD 5D 0A                   call L0A5D
0DF0 30 AE                      jr nc,L0DA0
0DF2 D1                         pop de
0DF3 FD 21 51 2D                ld iy,$2D51
0DF7 01 0F 00                   ld bc,$000F
0DFA FD 09         L0DFA:       add iy,bc
0DFC 1D                         dec e
0DFD 20 FB                      jr nz,L0DFA
0DFF CD B1 10                   call L10B1
0E02 E1                         pop hl
0E03 FD 7D                      ld a,yl
0E05 77                         ld (hl),a
0E06 23                         inc hl
0E07 FD 7C                      ld a,yh
0E09 77                         ld (hl),a
0E0A 37                         scf
0E0B DD E1         L0E0B:       pop ix
0E0D C9                         ret
0E0E 21 B4 2E                   ld hl,$2EB4
0E11 06 11                      ld b,$11
0E13 CB 7E         L0E13:       bit 7,(hl)
0E15 28 09                      jr z,L0E20
0E17 E5                         push hl
0E18 ED 34 05 00                add hl,$0005
0E1C BE                         cp (hl)
0E1D 28 25                      jr z,L0E44
0E1F E1                         pop hl
0E20 ED 34 06 00   L0E20:       add hl,$0006
0E24 10 ED                      djnz L0E13
0E26 CD FE 09                   call L09FE
0E29 E5                         push hl
0E2A EB                         ex de,hl
0E2B 5E                         ld e,(hl)
0E2C 23                         inc hl
0E2D 56                         ld d,(hl)
0E2E FD 21 40 27                ld iy,$2740
0E32 06 10                      ld b,$10
0E34 FD 7E 0F      L0E34:       ld a,(iy+$0F)
0E37 A7                         and a
0E38 28 0E                      jr z,L0E48
0E3A FD 6E 00                   ld l,(iy)
0E3D FD 66 01                   ld h,(iy+$01)
0E40 ED 52                      sbc hl,de
0E42 20 04                      jr nz,L0E48
0E44 E1            L0E44:       pop hl
0E45 3E 24                      ld a,$24
0E47 C9                         ret
0E48 EB            L0E48:       ex de,hl
0E49 11 2D 00                   ld de,$002D
0E4C FD 19                      add iy,de
0E4E EB                         ex de,hl
0E4F 10 E3                      djnz L0E34
0E51 E1                         pop hl
0E52 AF                         xor a
0E53 77                         ld (hl),a
0E54 23                         inc hl
0E55 77                         ld (hl),a
0E56 37                         scf
0E57 C9                         ret
0E58 CD FE 09                   call L09FE
0E5B EB                         ex de,hl
0E5C 5E                         ld e,(hl)
0E5D 23                         inc hl
0E5E 56                         ld d,(hl)
0E5F D5                         push de
0E60 FD E1                      pop iy
0E62 FD 7E 10                   ld a,(iy+$10)
0E65 CB 8F                      res 1,a
0E67 F5                         push af
0E68 C6 30                      add a,$30
0E6A 02                         ld (bc),a
0E6B 03                         inc bc
0E6C 3E 3E                      ld a,$3E
0E6E 02                         ld (bc),a
0E6F 03                         inc bc
0E70 F1                         pop af
0E71 C5                         push bc
0E72 32 0F 20                   ld ($200F),a
0E75 EF                         rst $28
0E76 11 21 00                   ld de,$0021
0E79 22 E5 CD                   ld ($CDE5),hl
0E7C 01 0D E1                   ld bc,$E10D
0E7F D1                         pop de
0E80 D0                         ret nc
0E81 C5                         push bc
0E82 01 10 00                   ld bc,$0010
0E85 ED B0                      ldir
0E87 EB                         ex de,hl
0E88 36 FF                      ld (hl),$FF
0E8A C1                         pop bc
0E8B 3A 0F 20                   ld a,($200F)
0E8E C9                         ret
0E8F DD E5                      push ix
0E91 FD E5                      push iy
0E93 06 10                      ld b,$10
0E95 C5            L0E95:       push bc
0E96 78                         ld a,b
0E97 3D                         dec a
0E98 CD 3B 13                   call L133B
0E9B FD 7E 0F                   ld a,(iy+$0F)
0E9E A7                         and a
0E9F C4 BF 16                   call nz,L16BF
0EA2 C1                         pop bc
0EA3 10 F0                      djnz L0E95
0EA5 FD E1                      pop iy
0EA7 DD E1                      pop ix
0EA9 C3 D1 08                   jp L08D1
0EAC DD CB 13 76   L0EAC:       bit 6,(ix+$13)
0EB0 37                         scf
0EB1 C8                         ret z
0EB2 E5                         push hl
0EB3 D5                         push de
0EB4 C5                         push bc
0EB5 CD E1 04                   call L04E1
0EB8 31 01 00                   ld sp,$0001
0EBB 00                         nop
0EBC CD 32 08                   call L0832
0EBF 30 15                      jr nc,L0ED6
0EC1 11 E8 01                   ld de,$01E8
0EC4 19                         add hl,de
0EC5 EB                         ex de,hl
0EC6 DD E5                      push ix
0EC8 E1                         pop hl
0EC9 01 2B 00                   ld bc,$002B
0ECC 09                         add hl,bc
0ECD 01 08 00                   ld bc,$0008
0ED0 ED B0                      ldir
0ED2 CD E2 08                   call L08E2
0ED5 37                         scf
0ED6 C1            L0ED6:       pop bc
0ED7 D1                         pop de
0ED8 E1                         pop hl
0ED9 C9                         ret
0EDA DD 21 00 00                ld ix,$0000
0EDE C9                         ret
0EDF DD 21 FC 00                ld ix,$00FC
0EE3 21 DE 17      L0EE3:       ld hl,$17DE
0EE6 C3 F8 03                   jp L03F8
0EE9 4E                         ld c,(hl)
0EEA 4F                         ld c,a
0EEB 20 4E                      jr nz,L0F3B
0EED 41                         ld b,c
0EEE 4D                         ld c,l
0EEF 45                         ld b,l
0EF0 20 20                      jr nz,L0F12
0EF2 20 20                      jr nz,L0F14
0EF4 E5            L0EF4:       push hl
0EF5 AF                         xor a
0EF6 06 0B                      ld b,$0B
0EF8 0F            L0EF8:       rrca
0EF9 86                         add a,(hl)
0EFA 23                         inc hl
0EFB 10 FB                      djnz L0EF8
0EFD E1                         pop hl
0EFE C9                         ret
0EFF 01 1F 00      L0EFF:       ld bc,$001F
0F02 09                         add hl,bc
0F03 06 02                      ld b,$02
0F05 CD 14 0F                   call L0F14
0F08 2B                         dec hl
0F09 2B                         dec hl
0F0A 06 06                      ld b,$06
0F0C CD 14 0F                   call L0F14
0F0F 2B                         dec hl
0F10 2B                         dec hl
0F11 2B                         dec hl
0F12 06 05         L0F12:       ld b,$05
0F14 7E            L0F14:       ld a,(hl)
0F15 2B                         dec hl
0F16 4E                         ld c,(hl)
0F17 2B                         dec hl
0F18 A7                         and a
0F19 28 06                      jr z,L0F21
0F1B A1                         and c
0F1C 3C                         inc a
0F1D 28 14                      jr z,L0F33
0F1F 18 0E                      jr L0F2F
0F21 79            L0F21:       ld a,c
0F22 A7                         and a
0F23 28 0E                      jr z,L0F33
0F25 FE 20                      cp $20
0F27 30 02                      jr nc,L0F2B
0F29 C6 E0                      add a,$E0
0F2B FE 7F         L0F2B:       cp $7F
0F2D 38 02                      jr c,L0F31
0F2F 3E 5F         L0F2F:       ld a,$5F
0F31 1B            L0F31:       dec de
0F32 12                         ld (de),a
0F33 10 DF         L0F33:       djnz L0F14
0F35 C9                         ret
0F36 0D            L0F36:       dec c
0F37 79                         ld a,c
0F38 20 0C                      jr nz,L0F46
0F3A 1A                         ld a,(de)
0F3B 13            L0F3B:       inc de
0F3C 3C                         inc a
0F3D 20 06                      jr nz,L0F45
0F3F 77                         ld (hl),a
0F40 23                         inc hl
0F41 77                         ld (hl),a
0F42 23                         inc hl
0F43 18 06                      jr L0F4B
0F45 3D            L0F45:       dec a
0F46 77            L0F46:       ld (hl),a
0F47 23                         inc hl
0F48 71                         ld (hl),c
0F49 23                         inc hl
0F4A 0C                         inc c
0F4B 10 E9         L0F4B:       djnz L0F36
0F4D C9                         ret
0F4E D5            L0F4E:       push de
0F4F 01 00 0B                   ld bc,$0B00
0F52 2B                         dec hl
0F53 23            L0F53:       inc hl
0F54 7E                         ld a,(hl)
0F55 FE FF                      cp $FF
0F57 28 4D                      jr z,L0FA6
0F59 FE 20                      cp $20
0F5B 28 F6                      jr z,L0F53
0F5D FE 2E                      cp $2E
0F5F 28 F2                      jr z,L0F53
0F61 06 08                      ld b,$08
0F63 CD E2 0F                   call L0FE2
0F66 28 3B                      jr z,L0FA3
0F68 CD 9F 10                   call L109F
0F6B 06 03                      ld b,$03
0F6D 38 0F                      jr c,L0F7E
0F6F CD 40 10                   call L1040
0F72 38 11                      jr c,L0F85
0F74 E5            L0F74:       push hl
0F75 CD 40 10                   call L1040
0F78 38 03                      jr c,L0F7D
0F7A F1                         pop af
0F7B 18 F7                      jr L0F74
0F7D E1            L0F7D:       pop hl
0F7E CD E2 0F      L0F7E:       call L0FE2
0F81 28 02                      jr z,L0F85
0F83 0E 01                      ld c,$01
0F85 CD 9F 10      L0F85:       call L109F
0F88 3E FF         L0F88:       ld a,$FF
0F8A 12                         ld (de),a
0F8B E1                         pop hl
0F8C 06 07                      ld b,$07
0F8E 7E            L0F8E:       ld a,(hl)
0F8F 23                         inc hl
0F90 FE 20                      cp $20
0F92 28 03                      jr z,L0F97
0F94 10 F8                      djnz L0F8E
0F96 04                         inc b
0F97 2B            L0F97:       dec hl
0F98 0D                         dec c
0F99 0E 00                      ld c,$00
0F9B C0                         ret nz
0F9C 36 7E         L0F9C:       ld (hl),$7E
0F9E 23                         inc hl
0F9F 36 31                      ld (hl),$31
0FA1 0C                         inc c
0FA2 C9                         ret
0FA3 04            L0FA3:       inc b
0FA4 04                         inc b
0FA5 04                         inc b
0FA6 CD 9F 10      L0FA6:       call L109F
0FA9 18 DD                      jr L0F88
0FAB 79            L0FAB:       ld a,c
0FAC A7                         and a
0FAD 28 ED                      jr z,L0F9C
0FAF E5                         push hl
0FB0 C5                         push bc
0FB1 34            L0FB1:       inc (hl)
0FB2 7E                         ld a,(hl)
0FB3 FE 3A                      cp $3A
0FB5 38 25                      jr c,L0FDC
0FB7 36 30                      ld (hl),$30
0FB9 2B                         dec hl
0FBA 0D                         dec c
0FBB 20 F4                      jr nz,L0FB1
0FBD C1                         pop bc
0FBE F1                         pop af
0FBF 79                         ld a,c
0FC0 B8                         cp b
0FC1 28 0C                      jr z,L0FCF
0FC3 0C            L0FC3:       inc c
0FC4 23                         inc hl
0FC5 36 31                      ld (hl),$31
0FC7 23            L0FC7:       inc hl
0FC8 36 30                      ld (hl),$30
0FCA 3D                         dec a
0FCB 20 FA                      jr nz,L0FC7
0FCD 37                         scf
0FCE C9                         ret
0FCF 78            L0FCF:       ld a,b
0FD0 FE 06                      cp $06
0FD2 3E 1B                      ld a,$1B
0FD4 C8                         ret z
0FD5 04                         inc b
0FD6 2B                         dec hl
0FD7 36 7E                      ld (hl),$7E
0FD9 79                         ld a,c
0FDA 18 E7                      jr L0FC3
0FDC C1            L0FDC:       pop bc
0FDD E1                         pop hl
0FDE 37                         scf
0FDF C9                         ret
0FE0 0E 01         L0FE0:       ld c,$01
0FE2 7E            L0FE2:       ld a,(hl)
0FE3 23                         inc hl
0FE4 FE FF                      cp $FF
0FE6 C8                         ret z
0FE7 FE 2E                      cp $2E
0FE9 28 4B                      jr z,L1036
0FEB FE 20                      cp $20
0FED 28 F1                      jr z,L0FE0
0FEF 38 28                      jr c,L1019
0FF1 FE 80                      cp $80
0FF3 30 24                      jr nc,L1019
0FF5 FE 2B                      cp $2B
0FF7 28 20                      jr z,L1019
0FF9 FE 2C                      cp $2C
0FFB 28 1C                      jr z,L1019
0FFD FE 3B                      cp $3B
0FFF 28 18                      jr z,L1019
1001 FE 3D                      cp $3D
1003 28 14                      jr z,L1019
1005 FE 5B                      cp $5B
1007 28 10                      jr z,L1019
1009 FE 5D                      cp $5D
100B 28 0C                      jr z,L1019
100D FE 61                      cp $61
100F 38 0C                      jr c,L101D
1011 FE 7B                      cp $7B
1013 30 08                      jr nc,L101D
1015 E6 DF                      and $DF
1017 18 04                      jr L101D
1019 3E 5F         L1019:       ld a,$5F
101B 0E 01                      ld c,$01
101D 12            L101D:       ld (de),a
101E 13                         inc de
101F 10 C1                      djnz L0FE2
1021 7E                         ld a,(hl)
1022 23                         inc hl
1023 FE FF                      cp $FF
1025 C8                         ret z
1026 FE 2E                      cp $2E
1028 20 06                      jr nz,L1030
102A E5                         push hl
102B CD 40 10                   call L1040
102E E1                         pop hl
102F D8                         ret c
1030 2B            L1030:       dec hl
1031 AF                         xor a
1032 3C                         inc a
1033 0E 01                      ld c,$01
1035 C9                         ret
1036 E5            L1036:       push hl
1037 CD 40 10                   call L1040
103A E1                         pop hl
103B D8                         ret c
103C 0E 01                      ld c,$01
103E 18 A2                      jr L0FE2
1040 7E            L1040:       ld a,(hl)
1041 23                         inc hl
1042 FE FF                      cp $FF
1044 28 05                      jr z,L104B
1046 FE 2E                      cp $2E
1048 20 F6                      jr nz,L1040
104A C9                         ret
104B 3D            L104B:       dec a
104C 37                         scf
104D C9                         ret
104E D5            L104E:       push de
104F FD CB 0D 7E                bit 7,(iy+$0D)
1053 28 11                      jr z,L1066
1055 ED 5B 26 2F                ld de,($2F26)
1059 21 2D 30                   ld hl,$302D
105C A7                         and a
105D ED 52                      sbc hl,de
105F 44                         ld b,h
1060 4D                         ld c,l
1061 EB                         ex de,hl
1062 D1                         pop de
1063 ED B0                      ldir
1065 C9                         ret
1066 CD 92 11      L1066:       call L1192
1069 D1                         pop de
106A 06 08         L106A:       ld b,$08
106C CD 85 10                   call L1085
106F 3E 2E                      ld a,$2E
1071 12                         ld (de),a
1072 13                         inc de
1073 06 03                      ld b,$03
1075 CD 85 10                   call L1085
1078 1B                         dec de
1079 1A                         ld a,(de)
107A FE 2E                      cp $2E
107C 28 01                      jr z,L107F
107E 13                         inc de
107F 3E FF         L107F:       ld a,$FF
1081 12                         ld (de),a
1082 13                         inc de
1083 37                         scf
1084 C9                         ret
1085 0E 00         L1085:       ld c,$00
1087 7E            L1087:       ld a,(hl)
1088 CB BF                      res 7,a
108A 23                         inc hl
108B 12                         ld (de),a
108C 13                         inc de
108D 0C                         inc c
108E FE 20                      cp $20
1090 28 02                      jr z,L1094
1092 0E 00                      ld c,$00
1094 10 F1         L1094:       djnz L1087
1096 0C                         inc c
1097 0D                         dec c
1098 C8                         ret z
1099 A7                         and a
109A EB                         ex de,hl
109B ED 42                      sbc hl,bc
109D EB                         ex de,hl
109E C9                         ret
109F 3E 20         L109F:       ld a,$20
10A1 04                         inc b
10A2 05            L10A2:       dec b
10A3 C8                         ret z
10A4 12                         ld (de),a
10A5 13                         inc de
10A6 18 FA                      jr L10A2
10A8 FD 21 50 2E   L10A8:       ld iy,$2E50
10AC DD 2A 50 2E                ld ix,($2E50)
10B0 C9                         ret
10B1 DD 7D         L10B1:       ld a,xl
10B3 FD 77 00                   ld (iy),a
10B6 DD 7C                      ld a,xh
10B8 FD 77 01                   ld (iy+$01),a
10BB DD CB 13 7E                bit 7,(ix+$13)
10BF 20 12                      jr nz,L10D3
10C1 FD CB 02 BE                res 7,(iy+$02)
10C5 C5                         push bc
10C6 D5                         push de
10C7 CD E1 04                   call L04E1
10CA 1D                         dec e
10CB CD 00 05                   call L0500
10CE 03                         inc bc
10CF D1                         pop de
10D0 C1                         pop bc
10D1 18 0B                      jr L10DE
10D3 FD CB 02 FE   L10D3:       set 7,(iy+$02)
10D7 AF                         xor a
10D8 FD 77 03                   ld (iy+$03),a
10DB FD 77 04                   ld (iy+$04),a
10DE C5            L10DE:       push bc
10DF D5                         push de
10E0 EF                         rst $28
10E1 03                         inc bc
10E2 CD 00 05                   call L0500
10E5 08                         ex af,af'
10E6 D1                         pop de
10E7 C1                         pop bc
10E8 AF                         xor a
10E9 FD 77 07                   ld (iy+$07),a
10EC FD 77 0C                   ld (iy+$0C),a
10EF 37                         scf
10F0 C9                         ret
10F1 CD 92 11      L10F1:       call L1192
10F4 D0                         ret nc
10F5 28 2B                      jr z,L1122
10F7 CB 67                      bit 4,a
10F9 28 27                      jr z,L1122
10FB 01 1A 00                   ld bc,$001A
10FE 09                         add hl,bc
10FF 4E                         ld c,(hl)
1100 23                         inc hl
1101 46                         ld b,(hl)
1102 11 00 00                   ld de,$0000
1105 DD CB 13 7E                bit 7,(ix+$13)
1109 20 07                      jr nz,L1112
110B 11 FA FF                   ld de,$FFFA
110E 19                         add hl,de
110F 56                         ld d,(hl)
1110 2B                         dec hl
1111 5E                         ld e,(hl)
1112 7A            L1112:       ld a,d
1113 B3                         or e
1114 B0                         or b
1115 B1                         or c
1116 28 99                      jr z,L10B1
1118 CD 00 05                   call L0500
111B 03                         inc bc
111C FD CB 02 BE                res 7,(iy+$02)
1120 18 BC                      jr L10DE
1122 3E 45         L1122:       ld a,$45
1124 A7                         and a
1125 C9                         ret
1126 FD 34 0C      L1126:       inc (iy+$0C)
1129 FD CB 0C 66                bit 4,(iy+$0C)
112D 37                         scf
112E C8                         ret z
112F FD CB 02 7E                bit 7,(iy+$02)
1133 20 0C                      jr nz,L1141
1135 01 07 00      L1135:       ld bc,$0007
1138 CD 77 05                   call L0577
113B D0                         ret nc
113C FD 36 0C 00                ld (iy+$0C),$00
1140 C9                         ret
1141 EF            L1141:       rst $28
1142 08                         ex af,af'
1143 03                         inc bc
1144 DD 6E 1B                   ld l,(ix+$1B)
1147 DD 66 1C                   ld h,(ix+$1C)
114A 2B                         dec hl
114B A7                         and a
114C ED 42                      sbc hl,bc
114E 3E 17                      ld a,$17
1150 3F                         ccf
1151 D0                         ret nc
1152 FD 71 08                   ld (iy+$08),c
1155 FD 70 09                   ld (iy+$09),b
1158 FD 36 0C 00                ld (iy+$0C),$00
115C C9                         ret
115D FD CB 02 7E   L115D:       bit 7,(iy+$02)
1161 20 17                      jr nz,L117A
1163 EF                         rst $28
1164 08                         ex af,af'
1165 FD 7E 07                   ld a,(iy+$07)
1168 CD EE 06                   call L06EE
116B D0            L116B:       ret nc
116C FD 5E 0C                   ld e,(iy+$0C)
116F 16 00                      ld d,$00
1171 EB                         ex de,hl
1172 29                         add hl,hl
1173 29                         add hl,hl
1174 29                         add hl,hl
1175 29                         add hl,hl
1176 29                         add hl,hl
1177 19                         add hl,de
1178 37                         scf
1179 C9                         ret
117A CD E1 04      L117A:       call L04E1
117D 1D                         dec e
117E 60                         ld h,b
117F 69                         ld l,c
1180 D5                         push de
1181 EF                         rst $28
1182 08                         ex af,af'
1183 D1                         pop de
1184 09                         add hl,bc
1185 EB                         ex de,hl
1186 01 00 00                   ld bc,$0000
1189 ED 4A                      adc hl,bc
118B 4D                         ld c,l
118C 44                         ld b,h
118D CD 32 08                   call L0832
1190 18 D9                      jr L116B
1192 CD 5D 11      L1192:       call L115D
1195 D0                         ret nc
1196 7E                         ld a,(hl)
1197 A7                         and a
1198 37                         scf
1199 C8                         ret z
119A FE E5                      cp $E5
119C 37                         scf
119D C8                         ret z
119E E5                         push hl
119F 11 0B 00                   ld de,$000B
11A2 19                         add hl,de
11A3 47                         ld b,a
11A4 7E                         ld a,(hl)
11A5 23                         inc hl
11A6 23                         inc hl
11A7 4E                         ld c,(hl)
11A8 E1                         pop hl
11A9 37                         scf
11AA C9                         ret
11AB CD DE 10      L11AB:       call L10DE
11AE 16 00                      ld d,$00
11B0 D5                         push de
11B1 CD 92 11      L11B1:       call L1192
11B4 D1                         pop de
11B5 D0                         ret nc
11B6 20 12                      jr nz,L11CA
11B8 15                         dec d
11B9 14                         inc d
11BA 20 07                      jr nz,L11C3
11BC D5                         push de
11BD CD F2 11                   call L11F2
11C0 ED B0                      ldir
11C2 D1                         pop de
11C3 14            L11C3:       inc d
11C4 7A                         ld a,d
11C5 BB                         cp e
11C6 30 22                      jr nc,L11EA
11C8 18 02                      jr L11CC
11CA 16 00         L11CA:       ld d,$00
11CC D5            L11CC:       push de
11CD CD 26 11                   call L1126
11D0 38 DF                      jr c,L11B1
11D2 FD CB 02 7E                bit 7,(iy+$02)
11D6 20 10                      jr nz,L11E8
11D8 EF                         rst $28
11D9 08                         ex af,af'
11DA CD 3E 06                   call L063E
11DD DC 88 06                   call c,L0688
11E0 DC D1 08                   call c,L08D1
11E3 DC 35 11                   call c,L1135
11E6 38 C9                      jr c,L11B1
11E8 D1            L11E8:       pop de
11E9 C9                         ret
11EA CD F2 11      L11EA:       call L11F2
11ED EB                         ex de,hl
11EE ED B0                      ldir
11F0 18 A0                      jr L1192
11F2 FD E5         L11F2:       push iy
11F4 E1                         pop hl
11F5 01 07 00                   ld bc,$0007
11F8 09                         add hl,bc
11F9 11 1A 20                   ld de,$201A
11FC 01 06 00                   ld bc,$0006
11FF C9                         ret
1200 FD 21 50 2E   L1200:       ld iy,$2E50
1204 CD B1 10                   call L10B1
1207 D0                         ret nc
1208 CD 92 11      L1208:       call L1192
120B D0                         ret nc
120C 28 0E                      jr z,L121C
120E 5F                         ld e,a
120F E6 3F                      and $3F
1211 FE 0F                      cp $0F
1213 28 07                      jr z,L121C
1215 7B                         ld a,e
1216 E6 18                      and $18
1218 FE 08                      cp $08
121A 37                         scf
121B C8                         ret z
121C CD 26 11      L121C:       call L1126
121F 38 E7                      jr c,L1208
1221 AF                         xor a
1222 3C                         inc a
1223 37                         scf
1224 C9                         ret
1225 FD 36 0D 00   L1225:       ld (iy+$0D),$00
1229 18 08                      jr L1233
122B FD 36 0D 00   L122B:       ld (iy+$0D),$00
122F CD 26 11      L122F:       call L1126
1232 D0                         ret nc
1233 CD 92 11      L1233:       call L1192
1236 D0                         ret nc
1237 20 06                      jr nz,L123F
1239 A7                         and a
123A 20 EF                      jr nz,L122B
123C 3E 17                      ld a,$17
123E C9                         ret
123F 5F            L123F:       ld e,a
1240 E6 3F                      and $3F
1242 FE 0F                      cp $0F
1244 20 3E                      jr nz,L1284
1246 78                         ld a,b
1247 CB 77                      bit 6,a
1249 20 1B                      jr nz,L1266
124B FD 35 0D                   dec (iy+$0D)
124E FD BE 0D                   cp (iy+$0D)
1251 20 D8                      jr nz,L122B
1253 79                         ld a,c
1254 FD BE 0E                   cp (iy+$0E)
1257 20 D2                      jr nz,L122B
1259 ED 5B 26 2F                ld de,($2F26)
125D CD FF 0E      L125D:       call L0EFF
1260 ED 53 26 2F                ld ($2F26),de
1264 18 C9                      jr L122F
1266 CB B7         L1266:       res 6,a
1268 FE 15                      cp $15
126A 30 BF                      jr nc,L122B
126C FD 77 0D                   ld (iy+$0D),a
126F FD 71 0E                   ld (iy+$0E),c
1272 E5                         push hl
1273 CD F2 11                   call L11F2
1276 11 20 20                   ld de,$2020
1279 ED B0                      ldir
127B E1                         pop hl
127C 11 2C 30                   ld de,$302C
127F 3E FF                      ld a,$FF
1281 12                         ld (de),a
1282 18 D9                      jr L125D
1284 7B            L1284:       ld a,e
1285 E6 18                      and $18
1287 FE 08                      cp $08
1289 28 A0                      jr z,L122B
128B FD 35 0D                   dec (iy+$0D)
128E FD 36 0D 00                ld (iy+$0D),$00
1292 37                         scf
1293 C0                         ret nz
1294 CD F4 0E                   call L0EF4
1297 FD BE 0E                   cp (iy+$0E)
129A 37                         scf
129B C0                         ret nz
129C FD 35 0D                   dec (iy+$0D)
129F C9                         ret
12A0 CD A8 10                   call L10A8
12A3 10 0C                      djnz L12B1
12A5 CD 1A 0A                   call L0A1A
12A8 CD DE 10                   call L10DE
12AB 21 50 2E                   ld hl,$2E50
12AE 3E 0F                      ld a,$0F
12B0 C9                         ret
12B1 10 10         L12B1:       djnz L12C3
12B3 CD 0A 0A                   call L0A0A
12B6 FD E5                      push iy
12B8 D1                         pop de
12B9 21 50 2E                   ld hl,$2E50
12BC 01 0F 00                   ld bc,$000F
12BF ED B0                      ldir
12C1 37                         scf
12C2 C9                         ret
12C3 05            L12C3:       dec b
12C4 CA B1 10                   jp z,L10B1
12C7 10 0D                      djnz L12D6
12C9 21 50 2E                   ld hl,$2E50
12CC 11 5F 2E                   ld de,$2E5F
12CF 01 0F 00                   ld bc,$000F
12D2 ED B0                      ldir
12D4 37                         scf
12D5 C9                         ret
12D6 05            L12D6:       dec b
12D7 CA F1 10                   jp z,L10F1
12DA C3 14 00                   jp L0014
12DD E5                         push hl
12DE CD FC 12                   call L12FC
12E1 DD E3                      ex (sp),ix
12E3 01 00 00                   ld bc,$0000
12E6 11 00 00                   ld de,$0000
12E9 38 02                      jr c,L12ED
12EB EF                         rst $28
12EC 03                         inc bc
12ED DD 71 3A      L12ED:       ld (ix+$3A),c
12F0 DD 70 3B                   ld (ix+$3B),b
12F3 DD 73 34                   ld (ix+$34),e
12F6 DD 72 35                   ld (ix+$35),d
12F9 DD E1                      pop ix
12FB C9                         ret
12FC DD CB 13 7E   L12FC:       bit 7,(ix+$13)
1300 20 1B                      jr nz,L131D
1302 E5                         push hl
1303 D5                         push de
1304 C5                         push bc
1305 CD E1 04                   call L04E1
1308 1D                         dec e
1309 D5                         push de
130A C5                         push bc
130B EF                         rst $28
130C 03                         inc bc
130D E1                         pop hl
130E A7                         and a
130F ED 42                      sbc hl,bc
1311 E1                         pop hl
1312 20 02                      jr nz,L1316
1314 ED 52                      sbc hl,de
1316 C1            L1316:       pop bc
1317 D1                         pop de
1318 E1                         pop hl
1319 37                         scf
131A C8                         ret z
131B 3F                         ccf
131C C9                         ret
131D FD CB 02 7E   L131D:       bit 7,(iy+$02)
1321 37                         scf
1322 C0                         ret nz
1323 3F                         ccf
1324 C9                         ret
1325 ED 34 1A 00                add hl,$001A
1329 7E                         ld a,(hl)
132A 23                         inc hl
132B B9                         cp c
132C C0                         ret nz
132D 7E                         ld a,(hl)
132E B8                         cp b
132F C0                         ret nz
1330 ED 34 FA FF                add hl,$FFFA
1334 7E                         ld a,(hl)
1335 2B                         dec hl
1336 BA                         cp d
1337 C0                         ret nz
1338 7E                         ld a,(hl)
1339 BB                         cp e
133A C9                         ret
133B 47            L133B:       ld b,a
133C D5            L133C:       push de
133D FD 21 13 27                ld iy,$2713
1341 11 2D 00                   ld de,$002D
1344 04                         inc b
1345 FD 19         L1345:       add iy,de
1347 10 FC                      djnz L1345
1349 FD 7E 00                   ld a,(iy)
134C DD 6F                      ld xl,a
134E FD 7E 01                   ld a,(iy+$01)
1351 DD 67                      ld xh,a
1353 D1                         pop de
1354 C9                         ret
1355 06 10         L1355:       ld b,$10
1357 21 40 27                   ld hl,$2740
135A E5            L135A:       push hl
135B C5                         push bc
135C FD 54                      ld d,yh
135E FD 5D                      ld e,yl
1360 06 0F                      ld b,$0F
1362 1A            L1362:       ld a,(de)
1363 BE                         cp (hl)
1364 13                         inc de
1365 23                         inc hl
1366 20 09                      jr nz,L1371
1368 10 F8                      djnz L1362
136A 7E                         ld a,(hl)
136B A7                         and a
136C 28 03                      jr z,L1371
136E C1                         pop bc
136F E1                         pop hl
1370 C9                         ret
1371 C1            L1371:       pop bc
1372 E1                         pop hl
1373 11 2D 00                   ld de,$002D
1376 19                         add hl,de
1377 10 E1                      djnz L135A
1379 CD 5D 11                   call L115D
137C D0                         ret nc
137D ED 34 14 00                add hl,$0014
1381 5E                         ld e,(hl)
1382 23                         inc hl
1383 56                         ld d,(hl)
1384 ED 34 05 00                add hl,$0005
1388 4E                         ld c,(hl)
1389 23                         inc hl
138A 46                         ld b,(hl)
138B AF                         xor a
138C CD C3 06                   call L06C3
138F CD C8 1E                   call L1EC8
1392 44                         ld b,h
1393 4D                         ld c,l
1394 3E 11                      ld a,$11
1396 21 B4 2E                   ld hl,$2EB4
1399 F5            L1399:       push af
139A E5                         push hl
139B D5                         push de
139C C5                         push bc
139D 7E                         ld a,(hl)
139E 23                         inc hl
139F EE 80                      xor $80
13A1 DD BE 10                   cp (ix+$10)
13A4 20 1C                      jr nz,L13C2
13A6 4E                         ld c,(hl)
13A7 23                         inc hl
13A8 46                         ld b,(hl)
13A9 23                         inc hl
13AA 5E                         ld e,(hl)
13AB 23                         inc hl
13AC 56                         ld d,(hl)
13AD E1                         pop hl
13AE E5                         push hl
13AF ED 52                      sbc hl,de
13B1 20 0F                      jr nz,L13C2
13B3 D1                         pop de
13B4 E1                         pop hl
13B5 E5                         push hl
13B6 D5                         push de
13B7 ED 42                      sbc hl,bc
13B9 20 07                      jr nz,L13C2
13BB C1                         pop bc
13BC D1                         pop de
13BD E1                         pop hl
13BE C1                         pop bc
13BF 3E 03                      ld a,$03
13C1 C9                         ret
13C2 C1            L13C2:       pop bc
13C3 D1                         pop de
13C4 E1                         pop hl
13C5 F1                         pop af
13C6 ED 34 06 00                add hl,$0006
13CA 3D                         dec a
13CB 20 CC                      jr nz,L1399
13CD 37                         scf
13CE C9                         ret
13CF EF            L13CF:       rst $28
13D0 17                         rla
13D1 D5                         push de
13D2 C5                         push bc
13D3 EF                         rst $28
13D4 1F                         rra
13D5 E1                         pop hl
13D6 A7                         and a
13D7 ED 42                      sbc hl,bc
13D9 E1                         pop hl
13DA ED 52                      sbc hl,de
13DC C9                         ret
13DD CD CF 13      L13DD:       call L13CF
13E0 D8                         ret c
13E1 CD 6C 16                   call L166C
13E4 2C                         inc l
13E5 20 07                      jr nz,L13EE
13E7 24                         inc h
13E8 20 04                      jr nz,L13EE
13EA 1C                         inc e
13EB 20 01                      jr nz,L13EE
13ED 14                         inc d
13EE 44            L13EE:       ld b,h
13EF 4D                         ld c,l
13F0 CD 00 05                   call L0500
13F3 1F                         rra
13F4 C9                         ret
13F5 CD 3B 13                   call L133B
13F8 18 F4                      jr L13EE
13FA FD 34 17      L13FA:       inc (iy+$17)
13FD 20 0D                      jr nz,L140C
13FF FD 34 18                   inc (iy+$18)
1402 20 08                      jr nz,L140C
1404 FD 34 19                   inc (iy+$19)
1407 20 03                      jr nz,L140C
1409 FD 34 1A                   inc (iy+$1A)
140C FD CB 0F 76   L140C:       bit 6,(iy+$0F)
1410 37                         scf
1411 C8                         ret z
1412 FD 34 15                   inc (iy+$15)
1415 C0                         ret nz
1416 FD 34 16                   inc (iy+$16)
1419 FD CB 16 4E                bit 1,(iy+$16)
141D C8                         ret z
141E FD 36 16 00                ld (iy+$16),$00
1422 01 10 00                   ld bc,$0010
1425 CD 77 05                   call L0577
1428 D8                         ret c
1429 FD CB 0F B6                res 6,(iy+$0F)
142D FE 19                      cp $19
142F 37                         scf
1430 3F                         ccf
1431 C0                         ret nz
1432 37                         scf
1433 C9                         ret
1434 FD 6E 17      L1434:       ld l,(iy+$17)
1437 FD 66 18                   ld h,(iy+$18)
143A 09                         add hl,bc
143B FD 75 17                   ld (iy+$17),l
143E FD 74 18                   ld (iy+$18),h
1441 30 08                      jr nc,L144B
1443 FD 34 19                   inc (iy+$19)
1446 20 03                      jr nz,L144B
1448 FD 34 1A                   inc (iy+$1A)
144B FD CB 0F 76   L144B:       bit 6,(iy+$0F)
144F 37                         scf
1450 C8                         ret z
1451 CB 78                      bit 7,b
1453 20 30                      jr nz,L1485
1455 FD 6E 15                   ld l,(iy+$15)
1458 FD 66 16                   ld h,(iy+$16)
145B 09                         add hl,bc
145C FD 75 15                   ld (iy+$15),l
145F FD 74 16                   ld (iy+$16),h
1462 01 00 02      L1462:       ld bc,$0200
1465 A7                         and a
1466 ED 42                      sbc hl,bc
1468 D8                         ret c
1469 FD 75 15                   ld (iy+$15),l
146C FD 74 16                   ld (iy+$16),h
146F 01 10 00                   ld bc,$0010
1472 CD 77 05                   call L0577
1475 30 08                      jr nc,L147F
1477 FD 6E 15                   ld l,(iy+$15)
147A FD 66 16                   ld h,(iy+$16)
147D 18 E3                      jr L1462
147F FE 19         L147F:       cp $19
1481 37                         scf
1482 28 01                      jr z,L1485
1484 3F                         ccf
1485 FD CB 0F B6   L1485:       res 6,(iy+$0F)
1489 C9                         ret
148A FD CB 0F 76   L148A:       bit 6,(iy+$0F)
148E 20 6B                      jr nz,L14FB
1490 EF                         rst $28
1491 1B                         dec de
1492 CD A1 05                   call L05A1
1495 38 08                      jr c,L149F
1497 CD BF 05                   call L05BF
149A D0                         ret nc
149B CD 00 05                   call L0500
149E 1B                         dec de
149F CD 00 05      L149F:       call L0500
14A2 11 CD 6C                   ld de,$6CCD
14A5 16 DD                      ld d,$DD
14A7 46                         ld b,(hl)
14A8 21 0E 00                   ld hl,$000E
14AB A7            L14AB:       and a
14AC ED 42                      sbc hl,bc
14AE 30 05                      jr nc,L14B5
14B0 7A                         ld a,d
14B1 B3                         or e
14B2 28 2E                      jr z,L14E2
14B4 1B                         dec de
14B5 ED 42         L14B5:       sbc hl,bc
14B7 30 05                      jr nc,L14BE
14B9 7A                         ld a,d
14BA B3                         or e
14BB 28 24                      jr z,L14E1
14BD 1B                         dec de
14BE E5            L14BE:       push hl
14BF D5                         push de
14C0 C5                         push bc
14C1 EF                         rst $28
14C2 11 CD 12                   ld de,$12CD
14C5 09                         add hl,bc
14C6 30 15                      jr nc,L14DD
14C8 CD A1 05                   call L05A1
14CB 38 07                      jr c,L14D4
14CD EF                         rst $28
14CE 11 CD 3E      L14CE:       ld de,$3ECD
14D1 06 30                      ld b,$30
14D3 09                         add hl,bc
14D4 CD 00 05      L14D4:       call L0500
14D7 11 C1 D1                   ld de,$D1C1
14DA E1                         pop hl
14DB 18 CE                      jr L14AB
14DD C1            L14DD:       pop bc
14DE D1                         pop de
14DF E1                         pop hl
14E0 C9                         ret
14E1 09            L14E1:       add hl,bc
14E2 09            L14E2:       add hl,bc
14E3 01 00 02                   ld bc,$0200
14E6 AF                         xor a
14E7 ED 42         L14E7:       sbc hl,bc
14E9 3C                         inc a
14EA 30 FB                      jr nc,L14E7
14EC 09                         add hl,bc
14ED 3D                         dec a
14EE FD 77 10                   ld (iy+$10),a
14F1 FD 75 15                   ld (iy+$15),l
14F4 FD 74 16                   ld (iy+$16),h
14F7 FD CB 0F F6                set 6,(iy+$0F)
14FB EF            L14FB:       rst $28
14FC 11 FD 7E                   ld de,$7EFD
14FF 10 CD                      djnz L14CE
1501 C3 06 FD                   jp LFD06
1504 6E                         ld l,(hl)
1505 15                         dec d
1506 FD 66 16                   ld h,(iy+$16)
1509 C9                         ret
150A CD 8A 14      L150A:       call L148A
150D D0                         ret nc
150E E5            L150E:       push hl
150F CD 32 08                   call L0832
1512 D1                         pop de
1513 D0                         ret nc
1514 19                         add hl,de
1515 37                         scf
1516 C9                         ret
1517 CD 3B 13                   call L133B
151A FD CB 0F 46                bit 0,(iy+$0F)
151E 28 15                      jr z,L1535
1520 CD CF 13                   call L13CF
1523 30 14                      jr nc,L1539
1525 CD 0A 15                   call L150A
1528 30 11                      jr nc,L153B
152A 4E                         ld c,(hl)
152B C5                         push bc
152C CD FA 13                   call L13FA
152F C1                         pop bc
1530 79                         ld a,c
1531 FE 1A                      cp $1A
1533 37                         scf
1534 C9                         ret
1535 3E 1D         L1535:       ld a,$1D
1537 18 02                      jr L153B
1539 3E 19         L1539:       ld a,$19
153B A7            L153B:       and a
153C C9                         ret
153D CD 3B 13                   call L133B
1540 FD CB 0F 4E                bit 1,(iy+$0F)
1544 28 EF                      jr z,L1535
1546 C5                         push bc
1547 CD DD 13                   call L13DD
154A CD 0A 15                   call L150A
154D C1                         pop bc
154E 30 EB                      jr nc,L153B
1550 71                         ld (hl),c
1551 CD E2 08                   call L08E2
1554 CD FA 13                   call L13FA
1557 37                         scf
1558 C9                         ret
1559 CD 3B 13                   call L133B
155C 22 09 20                   ld ($2009),hl
155F ED 53 0B 20                ld ($200B),de
1563 C5                         push bc
1564 CB 79                      bit 7,c
1566 CC 87 00                   call z,L0087
1569 FD CB 0F 46                bit 0,(iy+$0F)
156D CA 07 16                   jp z,L1607
1570 CD CF 13                   call L13CF
1573 D2 03 16                   jp nc,L1603
1576 EF                         rst $28
1577 1F                         rra
1578 D5                         push de
1579 60                         ld h,b
157A 69                         ld l,c
157B EF                         rst $28
157C 17                         rla
157D A7                         and a
157E ED 42                      sbc hl,bc
1580 EB                         ex de,hl
1581 44                         ld b,h
1582 4D                         ld c,l
1583 E1                         pop hl
1584 ED 42                      sbc hl,bc
1586 2A 0B 20                   ld hl,($200B)
1589 20 07                      jr nz,L1592
158B A7                         and a
158C ED 52                      sbc hl,de
158E EB                         ex de,hl
158F 30 01                      jr nc,L1592
1591 19                         add hl,de
1592 22 0D 20      L1592:       ld ($200D),hl
1595 CD 8A 14                   call L148A
1598 30 6F                      jr nc,L1609
159A FD CB 0F 4E                bit 1,(iy+$0F)
159E 20 1B                      jr nz,L15BB
15A0 7C                         ld a,h
15A1 B5                         or l
15A2 20 17                      jr nz,L15BB
15A4 3A 0E 20                   ld a,($200E)
15A7 FE 02                      cp $02
15A9 38 10                      jr c,L15BB
15AB 2A 09 20                   ld hl,($2009)
15AE CD A5 1E                   call L1EA5
15B1 22 09 20                   ld ($2009),hl
15B4 30 53                      jr nc,L1609
15B6 01 00 02                   ld bc,$0200
15B9 18 24                      jr L15DF
15BB CD 0E 15      L15BB:       call L150E
15BE 30 49                      jr nc,L1609
15C0 E5                         push hl
15C1 21 00 02                   ld hl,$0200
15C4 A7                         and a
15C5 ED 52                      sbc hl,de
15C7 D1                         pop de
15C8 ED 4B 0D 20                ld bc,($200D)
15CC ED 42                      sbc hl,bc
15CE 30 03                      jr nc,L15D3
15D0 09                         add hl,bc
15D1 44                         ld b,h
15D2 4D                         ld c,l
15D3 C5            L15D3:       push bc
15D4 2A 09 20                   ld hl,($2009)
15D7 EB                         ex de,hl
15D8 ED B0                      ldir
15DA ED 53 09 20                ld ($2009),de
15DE C1                         pop bc
15DF 2A 0B 20      L15DF:       ld hl,($200B)
15E2 A7                         and a
15E3 ED 42                      sbc hl,bc
15E5 22 0B 20                   ld ($200B),hl
15E8 F5                         push af
15E9 C5                         push bc
15EA CD 34 14                   call L1434
15ED C1                         pop bc
15EE F1                         pop af
15EF 28 0A                      jr z,L15FB
15F1 2A 0D 20                   ld hl,($200D)
15F4 A7                         and a
15F5 ED 42                      sbc hl,bc
15F7 28 0A                      jr z,L1603
15F9 18 97                      jr L1592
15FB C1            L15FB:       pop bc
15FC CB 79                      bit 7,c
15FE CC 82 00                   call z,L0082
1601 37                         scf
1602 C9                         ret
1603 3E 19         L1603:       ld a,$19
1605 18 02                      jr L1609
1607 3E 1D         L1607:       ld a,$1D
1609 C1            L1609:       pop bc
160A CB 79                      bit 7,c
160C CC 82 00                   call z,L0082
160F A7                         and a
1610 ED 5B 0B 20                ld de,($200B)
1614 C9                         ret
1615 CD 3B 13                   call L133B
1618 22 09 20                   ld ($2009),hl
161B ED 53 0B 20                ld ($200B),de
161F C5                         push bc
1620 CB 79                      bit 7,c
1622 CC 87 00                   call z,L0087
1625 FD CB 0F 4E                bit 1,(iy+$0F)
1629 28 DC                      jr z,L1607
162B CD 0A 15      L162B:       call L150A
162E 30 D9                      jr nc,L1609
1630 E5                         push hl
1631 21 00 02                   ld hl,$0200
1634 A7                         and a
1635 ED 52                      sbc hl,de
1637 D1                         pop de
1638 ED 4B 0B 20                ld bc,($200B)
163C ED 42                      sbc hl,bc
163E 30 03                      jr nc,L1643
1640 09                         add hl,bc
1641 44                         ld b,h
1642 4D                         ld c,l
1643 C5            L1643:       push bc
1644 2A 09 20                   ld hl,($2009)
1647 ED B0                      ldir
1649 22 09 20                   ld ($2009),hl
164C CD E2 08                   call L08E2
164F C1                         pop bc
1650 2A 0B 20                   ld hl,($200B)
1653 A7                         and a
1654 ED 42                      sbc hl,bc
1656 22 0B 20                   ld ($200B),hl
1659 F5                         push af
165A 0B                         dec bc
165B CD 34 14                   call L1434
165E CD DD 13                   call L13DD
1661 CD FA 13                   call L13FA
1664 F1                         pop af
1665 28 94                      jr z,L15FB
1667 18 C2                      jr L162B
1669 CD 3B 13                   call L133B
166C EF            L166C:       rst $28
166D 17                         rla
166E 60                         ld h,b
166F 69                         ld l,c
1670 37                         scf
1671 C9                         ret
1672 CD 3B 13                   call L133B
1675 44            L1675:       ld b,h
1676 4D                         ld c,l
1677 CD 00 05                   call L0500
167A 17                         rla
167B FD CB 0F B6                res 6,(iy+$0F)
167F 37                         scf
1680 C9                         ret
1681 CD 3B 13                   call L133B
1684 CD 92 11                   call L1192
1687 D0                         ret nc
1688 ED 34 16 00                add hl,$0016
168C 5E                         ld e,(hl)
168D 23                         inc hl
168E 56                         ld d,(hl)
168F 23                         inc hl
1690 4E                         ld c,(hl)
1691 23                         inc hl
1692 46                         ld b,(hl)
1693 23                         inc hl
1694 D5                         push de
1695 DD E1                      pop ix
1697 C5                         push bc
1698 CD 9E 16                   call L169E
169B C1                         pop bc
169C 37                         scf
169D C9                         ret
169E EF            L169E:       rst $28
169F 1F                         rra
16A0 60                         ld h,b
16A1 69                         ld l,c
16A2 C9                         ret
16A3 CD 3B 13                   call L133B
16A6 EF                         rst $28
16A7 2B                         dec hl
16A8 C5                         push bc
16A9 DD E1                      pop ix
16AB CD B2 19                   call L19B2
16AE FD CB 0F 7E                bit 7,(iy+$0F)
16B2 37                         scf
16B3 C9                         ret
16B4 CD BC 16                   call L16BC
16B7 FD 36 0F 00   L16B7:       ld (iy+$0F),$00
16BB C9                         ret
16BC CD 3B 13      L16BC:       call L133B
16BF 37            L16BF:       scf
16C0 FD CB 0F 4E                bit 1,(iy+$0F)
16C4 C8                         ret z
16C5 FD CB 0F 7E                bit 7,(iy+$0F)
16C9 C4 EE 18                   call nz,L18EE
16CC D0                         ret nc
16CD CD D1 08                   call L08D1
16D0 D0                         ret nc
16D1 CD 5D 11                   call L115D
16D4 D0                         ret nc
16D5 01 0B 00                   ld bc,$000B
16D8 09                         add hl,bc
16D9 CB EE                      set 5,(hl)
16DB 01 09 00                   ld bc,$0009
16DE 09                         add hl,bc
16DF EF                         rst $28
16E0 1B                         dec de
16E1 73                         ld (hl),e
16E2 23                         inc hl
16E3 72                         ld (hl),d
16E4 23                         inc hl
16E5 C5                         push bc
16E6 CD E0 18                   call L18E0
16E9 C1                         pop bc
16EA 71                         ld (hl),c
16EB 23                         inc hl
16EC 70                         ld (hl),b
16ED 23                         inc hl
16EE E5                         push hl
16EF CD 9E 16                   call L169E
16F2 E1                         pop hl
16F3 71                         ld (hl),c
16F4 23                         inc hl
16F5 70                         ld (hl),b
16F6 23                         inc hl
16F7 73                         ld (hl),e
16F8 23                         inc hl
16F9 72                         ld (hl),d
16FA CD 53 08                   call L0853
16FD 37                         scf
16FE C9                         ret
16FF F5                         push af
1700 CD D1 08                   call L08D1
1703 F1                         pop af
1704 CD 3B 13                   call L133B
1707 37                         scf
1708 18 AD                      jr L16B7
170A CD 3B 13                   call L133B
170D FD 46 0F                   ld b,(iy+$0F)
1710 C5                         push bc
1711 CD BF 16                   call L16BF
1714 C1                         pop bc
1715 D0                         ret nc
1716 FD 36 0F 00                ld (iy+$0F),$00
171A C5            L171A:       push bc
171B 06 10                      ld b,$10
171D CD 55 13                   call L1355
1720 C1                         pop bc
1721 FD 70 0F                   ld (iy+$0F),b
1724 38 12                      jr c,L1738
1726 CB 59                      bit 3,c
1728 20 0E                      jr nz,L1738
172A CB 51                      bit 2,c
172C 28 28                      jr z,L1756
172E CB 49                      bit 1,c
1730 20 24                      jr nz,L1756
1732 E6 06                      and $06
1734 FE 02                      cp $02
1736 28 1E                      jr z,L1756
1738 79            L1738:       ld a,c
1739 FE 10                      cp $10
173B 30 1B                      jr nc,L1758
173D E6 02                      and $02
173F 28 0C                      jr z,L174D
1741 C5                         push bc
1742 CD 92 11                   call L1192
1745 C1                         pop bc
1746 D0                         ret nc
1747 CB 47                      bit 0,a
1749 3E 1C                      ld a,$1C
174B 20 0D                      jr nz,L175A
174D 78            L174D:       ld a,b
174E E6 F0                      and $F0
1750 B1                         or c
1751 FD 77 0F                   ld (iy+$0F),a
1754 37                         scf
1755 C9                         ret
1756 3E 24         L1756:       ld a,$24
1758 3E 1E         L1758:       ld a,$1E
175A A7            L175A:       and a
175B C9                         ret
175C DD 22 18 20                ld ($2018),ix
1760 CD 3C 13                   call L133C
1763 D5                         push de
1764 C5                         push bc
1765 FD E5                      push iy
1767 CD A8 10                   call L10A8
176A CB 4A                      bit 1,d
176C 28 14                      jr z,L1782
176E D1                         pop de
176F CD 9B 17                   call L179B
1772 C1            L1772:       pop bc
1773 30 05                      jr nc,L177A
1775 06 00                      ld b,$00
1777 CD 1A 17                   call L171A
177A D1            L177A:       pop de
177B D0                         ret nc
177C CB 42                      bit 0,d
177E CC 46 19                   call z,L1946
1781 C9                         ret
1782 CD 05 18      L1782:       call L1805
1785 D1                         pop de
1786 30 EA                      jr nc,L1772
1788 CD 9B 17                   call L179B
178B C1                         pop bc
178C 30 EC                      jr nc,L177A
178E 06 00                      ld b,$00
1790 CD 1A 17                   call L171A
1793 D1                         pop de
1794 D0                         ret nc
1795 CB 42                      bit 0,d
1797 CC EE 18                   call z,L18EE
179A C9                         ret
179B FD E5         L179B:       push iy
179D E1                         pop hl
179E D5                         push de
179F FD E1                      pop iy
17A1 01 0F 00                   ld bc,$000F
17A4 ED B0                      ldir
17A6 62                         ld h,d
17A7 6B                         ld l,e
17A8 13                         inc de
17A9 36 00                      ld (hl),$00
17AB 01 1D 00                   ld bc,$001D
17AE ED B0                      ldir
17B0 CD 92 11                   call L1192
17B3 D0                         ret nc
17B4 01 1A 00                   ld bc,$001A
17B7 09                         add hl,bc
17B8 FD E5                      push iy
17BA 01 1B 00                   ld bc,$001B
17BD FD 09                      add iy,bc
17BF FD E5                      push iy
17C1 D1                         pop de
17C2 FD E1                      pop iy
17C4 01 02 00                   ld bc,$0002
17C7 ED B0                      ldir
17C9 13                         inc de
17CA 13                         inc de
17CB 01 04 00                   ld bc,$0004
17CE ED B0                      ldir
17D0 DD CB 13 7E                bit 7,(ix+$13)
17D4 11 00 00                   ld de,$0000
17D7 20 07                      jr nz,L17E0
17D9 01 F4 FF                   ld bc,$FFF4
17DC 09                         add hl,bc
17DD 5E                         ld e,(hl)
17DE 23                         inc hl
17DF 56                         ld d,(hl)
17E0 FD 73 1D      L17E0:       ld (iy+$1D),e
17E3 FD 72 1E                   ld (iy+$1E),d
17E6 EF                         rst $28
17E7 1B                         dec de
17E8 CD 00 05                   call L0500
17EB 11 2A 18                   ld de,$182A
17EE 20 FD                      jr nz,L17ED
17F0 75                         ld (hl),l
17F1 2B                         dec hl
17F2 FD 74 2C                   ld (iy+$2C),h
17F5 CD B2 19      L17F5:       call L19B2
17F8 EF                         rst $28
17F9 29                         add hl,hl
17FA 7A                         ld a,d
17FB B3                         or e
17FC 37                         scf
17FD C8                         ret z
17FE 01 08 00                   ld bc,$0008
1801 ED B0                      ldir
1803 37                         scf
1804 C9                         ret
1805 E5            L1805:       push hl
1806 7E                         ld a,(hl)
1807 23                         inc hl
1808 FE 2E                      cp $2E
180A 20 0E                      jr nz,L181A
180C 7E                         ld a,(hl)
180D FE 2E                      cp $2E
180F 20 02                      jr nz,L1813
1811 23                         inc hl
1812 7E                         ld a,(hl)
1813 FE FF         L1813:       cp $FF
1815 3E 14                      ld a,$14
1817 CA 7A 17                   jp z,L177A
181A E1            L181A:       pop hl
181B E5                         push hl
181C 11 2E 20                   ld de,$202E
181F CD 4E 0F                   call L0F4E
1822 E5            L1822:       push hl
1823 C5                         push bc
1824 DD E5                      push ix
1826 CD DE 10                   call L10DE
1829 CD 92 11      L1829:       call L1192
182C 28 14                      jr z,L1842
182E E6 08                      and $08
1830 20 10                      jr nz,L1842
1832 06 0B                      ld b,$0B
1834 11 2E 20                   ld de,$202E
1837 1A            L1837:       ld a,(de)
1838 13                         inc de
1839 AE                         xor (hl)
183A 23                         inc hl
183B 20 05                      jr nz,L1842
183D 10 F8                      djnz L1837
183F 37                         scf
1840 18 05                      jr L1847
1842 CD 26 11      L1842:       call L1126
1845 38 E2                      jr c,L1829
1847 DD E1         L1847:       pop ix
1849 C1                         pop bc
184A E1                         pop hl
184B 30 07                      jr nc,L1854
184D CD AB 0F                   call L0FAB
1850 38 D0                      jr c,L1822
1852 E1                         pop hl
1853 C9                         ret
1854 21 2E 20      L1854:       ld hl,$202E
1857 CD F4 0E                   call L0EF4
185A 57                         ld d,a
185B E1                         pop hl
185C 1E 02                      ld e,$02
185E 01 0D 00      L185E:       ld bc,$000D
1861 3E FF                      ld a,$FF
1863 ED B1                      cpir
1865 28 05                      jr z,L186C
1867 1C                         inc e
1868 BE                         cp (hl)
1869 20 F3                      jr nz,L185E
186B 1D                         dec e
186C 7B            L186C:       ld a,e
186D FE 16                      cp $16
186F 3E 14                      ld a,$14
1871 D0                         ret nc
1872 09                         add hl,bc
1873 E5                         push hl
1874 D5                         push de
1875 CD AB 11                   call L11AB
1878 C1                         pop bc
1879 E1                         pop hl
187A D0                         ret nc
187B 0D                         dec c
187C CB F1                      set 6,c
187E 11 0D 00      L187E:       ld de,$000D
1881 A7                         and a
1882 ED 52                      sbc hl,de
1884 C5                         push bc
1885 E5                         push hl
1886 CD 5D 11                   call L115D
1889 D1                         pop de
188A C1                         pop bc
188B D0                         ret nc
188C D5                         push de
188D 71                         ld (hl),c
188E 23                         inc hl
188F CB B1                      res 6,c
1891 C5                         push bc
1892 01 01 05                   ld bc,$0501
1895 CD 36 0F                   call L0F36
1898 36 0F                      ld (hl),$0F
189A 23                         inc hl
189B 36 00                      ld (hl),$00
189D 23                         inc hl
189E F1                         pop af
189F F5                         push af
18A0 77                         ld (hl),a
18A1 23                         inc hl
18A2 06 06                      ld b,$06
18A4 CD 36 0F                   call L0F36
18A7 AF                         xor a
18A8 77                         ld (hl),a
18A9 23                         inc hl
18AA 77                         ld (hl),a
18AB 23                         inc hl
18AC 06 02                      ld b,$02
18AE CD 36 0F                   call L0F36
18B1 CD E2 08                   call L08E2
18B4 CD 26 11                   call L1126
18B7 C1                         pop bc
18B8 E1                         pop hl
18B9 D0                         ret nc
18BA 0D                         dec c
18BB 20 C1                      jr nz,L187E
18BD CD 5D 11                   call L115D
18C0 D0                         ret nc
18C1 EB                         ex de,hl
18C2 21 2E 20                   ld hl,$202E
18C5 01 0B 00                   ld bc,$000B
18C8 ED B0                      ldir
18CA 62                         ld h,d
18CB 6B                         ld l,e
18CC 36 20                      ld (hl),$20
18CE 23                         inc hl
18CF 13                         inc de
18D0 70                         ld (hl),b
18D1 0E 13                      ld c,$13
18D3 13                         inc de
18D4 ED B0                      ldir
18D6 ED 34 F7 FF                add hl,$FFF7
18DA CD E0 18                   call L18E0
18DD C3 CE 08                   jp L08CE
18E0 E5            L18E0:       push hl
18E1 CD F2 00                   call L00F2
18E4 E1                         pop hl
18E5 73                         ld (hl),e
18E6 23                         inc hl
18E7 72                         ld (hl),d
18E8 23                         inc hl
18E9 71                         ld (hl),c
18EA 23                         inc hl
18EB 70                         ld (hl),b
18EC 23                         inc hl
18ED C9                         ret
18EE 16 00         L18EE:       ld d,$00
18F0 5A                         ld e,d
18F1 62                         ld h,d
18F2 2E 7F                      ld l,$7F
18F4 CD 75 16                   call L1675
18F7 CD DD 13                   call L13DD
18FA CD C6 19                   call L19C6
18FD D0                         ret nc
18FE FD CB 0F FE                set 7,(iy+$0F)
1902 E5                         push hl
1903 EB                         ex de,hl
1904 21 D9 19                   ld hl,$19D9
1907 01 0B 00                   ld bc,$000B
190A ED B0                      ldir
190C D5                         push de
190D CD B2 19                   call L19B2
1910 EF                         rst $28
1911 2B                         dec hl
1912 EB                         ex de,hl
1913 60                         ld h,b
1914 69                         ld l,c
1915 7C                         ld a,h
1916 B5                         or l
1917 28 05                      jr z,L191E
1919 01 08 00                   ld bc,$0008
191C ED B0                      ldir
191E D1            L191E:       pop de
191F FD E5                      push iy
1921 E1                         pop hl
1922 01 1F 00                   ld bc,$001F
1925 09                         add hl,bc
1926 01 0C 00                   ld bc,$000C
1929 ED B0                      ldir
192B 62                         ld h,d
192C 6B                         ld l,e
192D 13                         inc de
192E 36 00                      ld (hl),$00
1930 01 67 00                   ld bc,$0067
1933 ED B0                      ldir
1935 E1                         pop hl
1936 CD D1 19                   call L19D1
1939 77                         ld (hl),a
193A CD 53 08                   call L0853
193D 16 00                      ld d,$00
193F 5A                         ld e,d
1940 62                         ld h,d
1941 2E 80                      ld l,$80
1943 C3 75 16                   jp L1675
1946 FD CB 0F BE   L1946:       res 7,(iy+$0F)
194A CD 9E 16                   call L169E
194D 7D                         ld a,l
194E E6 80                      and $80
1950 B4                         or h
1951 B3                         or e
1952 B2                         or d
1953 28 27                      jr z,L197C
1955 CD C6 19                   call L19C6
1958 30 22                      jr nc,L197C
195A CD 9E 19                   call L199E
195D 20 1D                      jr nz,L197C
195F FD CB 0F FE                set 7,(iy+$0F)
1963 FD E5                      push iy
1965 E1                         pop hl
1966 01 1F 00                   ld bc,$001F
1969 09                         add hl,bc
196A 01 0C 00                   ld bc,$000C
196D EB                         ex de,hl
196E ED B0                      ldir
1970 CD F5 17                   call L17F5
1973 16 00                      ld d,$00
1975 5A                         ld e,d
1976 62                         ld h,d
1977 2E 80                      ld l,$80
1979 C3 75 16                   jp L1675
197C CD 9E 16      L197C:       call L169E
197F EB                         ex de,hl
1980 7C                         ld a,h
1981 B5                         or l
1982 28 03                      jr z,L1987
1984 11 FF FF                   ld de,$FFFF
1987 CD B2 19      L1987:       call L19B2
198A AF                         xor a
198B 06 03                      ld b,$03
198D 70                         ld (hl),b
198E 23                         inc hl
198F 73                         ld (hl),e
1990 23                         inc hl
1991 72                         ld (hl),d
1992 23                         inc hl
1993 77                         ld (hl),a
1994 23                         inc hl
1995 36 40                      ld (hl),$40
1997 23            L1997:       inc hl
1998 77                         ld (hl),a
1999 10 FC                      djnz L1997
199B C3 F5 17                   jp L17F5
199E E5            L199E:       push hl
199F CD D1 19                   call L19D1
19A2 BE                         cp (hl)
19A3 D1                         pop de
19A4 C0                         ret nz
19A5 21 D9 19                   ld hl,$19D9
19A8 06 0B                      ld b,$0B
19AA 1A            L19AA:       ld a,(de)
19AB BE                         cp (hl)
19AC C0                         ret nz
19AD 13                         inc de
19AE 23                         inc hl
19AF 10 F9                      djnz L19AA
19B1 C9                         ret
19B2 FD E5         L19B2:       push iy
19B4 E1                         pop hl
19B5 01 23 00                   ld bc,$0023
19B8 09                         add hl,bc
19B9 C9                         ret
19BA CD 92 11                   call L1192
19BD D0                         ret nc
19BE 7E                         ld a,(hl)
19BF FE 2E                      cp $2E
19C1 3E 1E                      ld a,$1E
19C3 C8                         ret z
19C4 37                         scf
19C5 C9                         ret
19C6 26 00         L19C6:       ld h,$00
19C8 6C                         ld l,h
19C9 54                         ld d,h
19CA 5C                         ld e,h
19CB CD 75 16                   call L1675
19CE C3 0A 15                   jp L150A
19D1 AF            L19D1:       xor a
19D2 06 7F                      ld b,$7F
19D4 86            L19D4:       add a,(hl)
19D5 23                         inc hl
19D6 10 FC                      djnz L19D4
19D8 C9                         ret
19D9 50                         ld d,b
19DA 4C                         ld c,h
19DB 55                         ld d,l
19DC 53                         ld d,e
19DD 33                         inc sp
19DE 44                         ld b,h
19DF 4F                         ld c,a
19E0 53                         ld d,e
19E1 1A                         ld a,(de)
19E2 01 00 E5                   ld bc,$E500
19E5 D5                         push de
19E6 C5                         push bc
19E7 DD 21 39 01                ld ix,$0139
19EB CD F0 01                   call L01F0
19EE C1                         pop bc
19EF DD E1                      pop ix
19F1 E1                         pop hl
19F2 D0                         ret nc
19F3 CD 36 1A                   call L1A36
19F6 28 22                      jr z,L1A1A
19F8 CB 48         L19F8:       bit 1,b
19FA 28 0D                      jr z,L1A09
19FC 3E 7F                      ld a,$7F
19FE DB FE                      in a,($FE)
1A00 1F                         rra
1A01 38 06                      jr c,L1A09
1A03 3E FE                      ld a,$FE
1A05 DB FE                      in a,($FE)
1A07 1F                         rra
1A08 D0                         ret nc
1A09 C5            L1A09:       push bc
1A0A E5                         push hl
1A0B DD E5                      push ix
1A0D AF                         xor a
1A0E DD 21 3C 01                ld ix,$013C
1A12 CD F0 01                   call L01F0
1A15 D1                         pop de
1A16 E1                         pop hl
1A17 C1                         pop bc
1A18 18 CA                      jr L19E4
1A1A CB 68         L1A1A:       bit 5,b
1A1C 37                         scf
1A1D C8                         ret z
1A1E C5                         push bc
1A1F D5                         push de
1A20 E5                         push hl
1A21 DD E5                      push ix
1A23 C1                         pop bc
1A24 EB                         ex de,hl
1A25 03                         inc bc
1A26 60                         ld h,b
1A27 69                         ld l,c
1A28 ED 34 1D 00                add hl,$001D
1A2C CD 83 1A                   call L1A83
1A2F E1                         pop hl
1A30 D1                         pop de
1A31 C1                         pop bc
1A32 37                         scf
1A33 C8                         ret z
1A34 18 C2                      jr L19F8
1A36 DD 7E 00      L1A36:       ld a,(ix)
1A39 CB 67                      bit 4,a
1A3B 28 14                      jr z,L1A51
1A3D CB 71                      bit 6,c
1A3F C0                         ret nz
1A40 CB 69                      bit 5,c
1A42 28 10                      jr z,L1A54
1A44 DD 7E 01                   ld a,(ix+$01)
1A47 FE 2E                      cp $2E
1A49 DD 7E 00                   ld a,(ix)
1A4C 20 06                      jr nz,L1A54
1A4E AF                         xor a
1A4F 3C                         inc a
1A50 C9                         ret
1A51 CB 79         L1A51:       bit 7,c
1A53 C0                         ret nz
1A54 CB 61         L1A54:       bit 4,c
1A56 C8                         ret z
1A57 E6 06                      and $06
1A59 C9                         ret
1A5A E5                         push hl
1A5B ED 34 1C 00                add hl,$001C
1A5F 4E                         ld c,(hl)
1A60 23                         inc hl
1A61 46                         ld b,(hl)
1A62 23                         inc hl
1A63 ED B0                      ldir
1A65 1B                         dec de
1A66 3E FF                      ld a,$FF
1A68 12                         ld (de),a
1A69 E1                         pop hl
1A6A ED 34 0C 00                add hl,$000C
1A6E 5E                         ld e,(hl)
1A6F 23                         inc hl
1A70 56                         ld d,(hl)
1A71 23                         inc hl
1A72 4E                         ld c,(hl)
1A73 23                         inc hl
1A74 46                         ld b,(hl)
1A75 23                         inc hl
1A76 7E                         ld a,(hl)
1A77 23                         inc hl
1A78 DD 6F                      ld xl,a
1A7A 7E                         ld a,(hl)
1A7B 23                         inc hl
1A7C DD 67                      ld xh,a
1A7E 7E                         ld a,(hl)
1A7F 23                         inc hl
1A80 66                         ld h,(hl)
1A81 6F                         ld l,a
1A82 C9                         ret
1A83 C5            L1A83:       push bc
1A84 D5                         push de
1A85 28 53                      jr z,L1ADA
1A87 1A            L1A87:       ld a,(de)
1A88 13                         inc de
1A89 FE FF                      cp $FF
1A8B 28 17                      jr z,L1AA4
1A8D FE 2A                      cp $2A
1A8F 28 1A                      jr z,L1AAB
1A91 FE 3F                      cp $3F
1A93 4E                         ld c,(hl)
1A94 23                         inc hl
1A95 20 05                      jr nz,L1A9C
1A97 0C                         inc c
1A98 20 ED                      jr nz,L1A87
1A9A 18 3E                      jr L1ADA
1A9C B9            L1A9C:       cp c
1A9D C4 2C 1B                   call nz,L1B2C
1AA0 28 E5                      jr z,L1A87
1AA2 18 36                      jr L1ADA
1AA4 7E            L1AA4:       ld a,(hl)
1AA5 3C                         inc a
1AA6 20 32                      jr nz,L1ADA
1AA8 D1            L1AA8:       pop de
1AA9 E1                         pop hl
1AAA C9                         ret
1AAB 7E            L1AAB:       ld a,(hl)
1AAC 23                         inc hl
1AAD FE FF                      cp $FF
1AAF 28 12                      jr z,L1AC3
1AB1 FE 2E                      cp $2E
1AB3 20 F6                      jr nz,L1AAB
1AB5 E5            L1AB5:       push hl
1AB6 7E            L1AB6:       ld a,(hl)
1AB7 23                         inc hl
1AB8 FE FF                      cp $FF
1ABA 28 17                      jr z,L1AD3
1ABC FE 2E                      cp $2E
1ABE 20 F6                      jr nz,L1AB6
1AC0 F1                         pop af
1AC1 18 F2                      jr L1AB5
1AC3 1A            L1AC3:       ld a,(de)
1AC4 FE FF                      cp $FF
1AC6 28 E0                      jr z,L1AA8
1AC8 FE 2E                      cp $2E
1ACA 20 0E                      jr nz,L1ADA
1ACC 13                         inc de
1ACD 1A                         ld a,(de)
1ACE 3C                         inc a
1ACF 28 D7                      jr z,L1AA8
1AD1 18 07                      jr L1ADA
1AD3 E1            L1AD3:       pop hl
1AD4 1A                         ld a,(de)
1AD5 13                         inc de
1AD6 FE 2E                      cp $2E
1AD8 28 AD                      jr z,L1A87
1ADA D1            L1ADA:       pop de
1ADB E1                         pop hl
1ADC 06 08                      ld b,$08
1ADE 7E                         ld a,(hl)
1ADF FE 2E                      cp $2E
1AE1 20 13                      jr nz,L1AF6
1AE3 CD 05 1B                   call L1B05
1AE6 C0                         ret nz
1AE7 1A            L1AE7:       ld a,(de)
1AE8 FE 2E                      cp $2E
1AEA 20 01                      jr nz,L1AED
1AEC 13                         inc de
1AED 06 03         L1AED:       ld b,$03
1AEF CD 05 1B                   call L1B05
1AF2 C0                         ret nz
1AF3 1A                         ld a,(de)
1AF4 3C                         inc a
1AF5 C9                         ret
1AF6 CD 05 1B      L1AF6:       call L1B05
1AF9 28 EC                      jr z,L1AE7
1AFB FE 2E                      cp $2E
1AFD C0                         ret nz
1AFE 2B                         dec hl
1AFF CD 22 1B                   call L1B22
1B02 C0                         ret nz
1B03 18 E8                      jr L1AED
1B05 1A            L1B05:       ld a,(de)
1B06 13                         inc de
1B07 FE 2A                      cp $2A
1B09 28 12                      jr z,L1B1D
1B0B FE FF                      cp $FF
1B0D 28 12                      jr z,L1B21
1B0F 4E                         ld c,(hl)
1B10 23                         inc hl
1B11 FE 3F                      cp $3F
1B13 28 05                      jr z,L1B1A
1B15 B9                         cp c
1B16 C4 2C 1B                   call nz,L1B2C
1B19 C0                         ret nz
1B1A 10 E9         L1B1A:       djnz L1B05
1B1C C9                         ret
1B1D 23            L1B1D:       inc hl
1B1E 10 FD                      djnz L1B1D
1B20 C9                         ret
1B21 1B            L1B21:       dec de
1B22 7E            L1B22:       ld a,(hl)
1B23 23                         inc hl
1B24 FE 20                      cp $20
1B26 3E 00                      ld a,$00
1B28 C0                         ret nz
1B29 10 F7                      djnz L1B22
1B2B C9                         ret
1B2C F5            L1B2C:       push af
1B2D 79                         ld a,c
1B2E FE 20                      cp $20
1B30 38 04                      jr c,L1B36
1B32 FE 7F                      cp $7F
1B34 38 04                      jr c,L1B3A
1B36 F1            L1B36:       pop af
1B37 FE 5F                      cp $5F
1B39 C9                         ret
1B3A F1            L1B3A:       pop af
1B3B F6 20                      or $20
1B3D FE 61                      cp $61
1B3F D8                         ret c
1B40 FE 7B                      cp $7B
1B42 30 04                      jr nc,L1B48
1B44 CB E9                      set 5,c
1B46 B9                         cp c
1B47 C9                         ret
1B48 FE 00         L1B48:       cp $00
1B4A C9                         ret
1B4B DD 2E 41      L1B4B:       ld xl,$41
1B4E 7E                         ld a,(hl)
1B4F 23                         inc hl
1B50 CD 84 1B                   call L1B84
1B53 D8                         ret c
1B54 DD 2E C1                   ld xl,$C1
1B57 2B                         dec hl
1B58 7E            L1B58:       ld a,(hl)
1B59 23                         inc hl
1B5A CD 84 1B                   call L1B84
1B5D D8                         ret c
1B5E FE 20                      cp $20
1B60 3F                         ccf
1B61 D0                         ret nc
1B62 FE 7F                      cp $7F
1B64 D0                         ret nc
1B65 FE 22                      cp $22
1B67 C8                         ret z
1B68 FE 3A                      cp $3A
1B6A C8                         ret z
1B6B FE 3C                      cp $3C
1B6D C8                         ret z
1B6E FE 3E                      cp $3E
1B70 C8                         ret z
1B71 FE 60                      cp $60
1B73 C8                         ret z
1B74 FE 7C                      cp $7C
1B76 C8                         ret z
1B77 FE 3F                      cp $3F
1B79 28 04                      jr z,L1B7F
1B7B FE 2A                      cp $2A
1B7D 20 D9                      jr nz,L1B58
1B7F DD 2E 81      L1B7F:       ld xl,$81
1B82 18 D4                      jr L1B58
1B84 FE 2F         L1B84:       cp $2F
1B86 37                         scf
1B87 C8                         ret z
1B88 FE 5C                      cp $5C
1B8A 37                         scf
1B8B C8                         ret z
1B8C FE FF                      cp $FF
1B8E 3F                         ccf
1B8F C9                         ret
1B90 AF            L1B90:       xor a
1B91 57                         ld d,a
1B92 5F                         ld e,a
1B93 67                         ld h,a
1B94 6F                         ld l,a
1B95 3C                         inc a
1B96 DD 21 3C 01                ld ix,$013C
1B9A CD F0 01                   call L01F0
1B9D C9                         ret
1B9E 06 03         L1B9E:       ld b,$03
1BA0 DD 21 27 01                ld ix,$0127
1BA4 CD F0 01                   call L01F0
1BA7 C9                         ret
1BA8 06 00                      ld b,$00
1BAA C5            L1BAA:       push bc
1BAB E5                         push hl
1BAC 06 01                      ld b,$01
1BAE DD 21 27 01                ld ix,$0127
1BB2 CD F0 01                   call L01F0
1BB5 D1                         pop de
1BB6 C1                         pop bc
1BB7 D0                         ret nc
1BB8 F5                         push af
1BB9 E5                         push hl
1BBA EB                         ex de,hl
1BBB 7E                         ld a,(hl)
1BBC FE 2F                      cp $2F
1BBE 28 04                      jr z,L1BC4
1BC0 FE 5C                      cp $5C
1BC2 20 1A                      jr nz,L1BDE
1BC4 23            L1BC4:       inc hl
1BC5 C5                         push bc
1BC6 E5                         push hl
1BC7 CD 9E 1B                   call L1B9E
1BCA E1                         pop hl
1BCB C1                         pop bc
1BCC 78                         ld a,b
1BCD A7                         and a
1BCE 28 0E                      jr z,L1BDE
1BD0 0B            L1BD0:       dec bc
1BD1 0A                         ld a,(bc)
1BD2 FE 3A                      cp $3A
1BD4 20 FA                      jr nz,L1BD0
1BD6 03                         inc bc
1BD7 3E 2F                      ld a,$2F
1BD9 02                         ld (bc),a
1BDA 03                         inc bc
1BDB 3E FF                      ld a,$FF
1BDD 02                         ld (bc),a
1BDE C5            L1BDE:       push bc
1BDF E5                         push hl
1BE0 CD 4B 1B                   call L1B4B
1BE3 D1                         pop de
1BE4 C1                         pop bc
1BE5 3C                         inc a
1BE6 30 12                      jr nc,L1BFA
1BE8 20 15                      jr nz,L1BFF
1BEA 37                         scf
1BEB ED 52                      sbc hl,de
1BED 24                         inc h
1BEE 25                         dec h
1BEF 20 09                      jr nz,L1BFA
1BF1 EB                         ex de,hl
1BF2 D1            L1BF2:       pop de
1BF3 F1                         pop af
1BF4 DD 67                      ld xh,a
1BF6 DD E5                      push ix
1BF8 F1                         pop af
1BF9 C9                         ret
1BFA 3E 14         L1BFA:       ld a,$14
1BFC E1            L1BFC:       pop hl
1BFD C1                         pop bc
1BFE C9                         ret
1BFF E5            L1BFF:       push hl
1C00 37                         scf
1C01 ED 52                      sbc hl,de
1C03 7C                         ld a,h
1C04 E1                         pop hl
1C05 28 F3                      jr z,L1BFA
1C07 A7                         and a
1C08 20 F0                      jr nz,L1BFA
1C0A 2B                         dec hl
1C0B E5                         push hl
1C0C 7E                         ld a,(hl)
1C0D F5                         push af
1C0E 36 FF                      ld (hl),$FF
1C10 EB                         ex de,hl
1C11 CD 25 1C                   call L1C25
1C14 D1                         pop de
1C15 E1                         pop hl
1C16 72                         ld (hl),d
1C17 23                         inc hl
1C18 30 E2                      jr nc,L1BFC
1C1A 7E                         ld a,(hl)
1C1B 3C                         inc a
1C1C 20 C0                      jr nz,L1BDE
1C1E DD 2E 41                   ld xl,$41
1C21 18 CF                      jr L1BF2
1C23 06 00                      ld b,$00
1C25 7E            L1C25:       ld a,(hl)
1C26 FE 2E                      cp $2E
1C28 20 06                      jr nz,L1C30
1C2A 23                         inc hl
1C2B 7E                         ld a,(hl)
1C2C 2B                         dec hl
1C2D 3C                         inc a
1C2E 37                         scf
1C2F C8                         ret z
1C30 C5            L1C30:       push bc
1C31 E5                         push hl
1C32 CD 7B 1C                   call L1C7B
1C35 E1                         pop hl
1C36 C1                         pop bc
1C37 3E 45                      ld a,$45
1C39 D0                         ret nc
1C3A 3F                         ccf
1C3B C8                         ret z
1C3C 78                         ld a,b
1C3D A7                         and a
1C3E 28 2F                      jr z,L1C6F
1C40 7E                         ld a,(hl)
1C41 FE 2E                      cp $2E
1C43 20 18                      jr nz,L1C5D
1C45 23                         inc hl
1C46 BE                         cp (hl)
1C47 20 14                      jr nz,L1C5D
1C49 23                         inc hl
1C4A 7E                         ld a,(hl)
1C4B 3C                         inc a
1C4C 20 0F                      jr nz,L1C5D
1C4E 0B                         dec bc
1C4F 0B            L1C4F:       dec bc
1C50 0A                         ld a,(bc)
1C51 CD 84 1B                   call L1B84
1C54 38 15                      jr c,L1C6B
1C56 FE 3A                      cp $3A
1C58 20 F5                      jr nz,L1C4F
1C5A 03                         inc bc
1C5B 18 0B                      jr L1C68
1C5D 50            L1C5D:       ld d,b
1C5E 59                         ld e,c
1C5F 21 C1 21                   ld hl,$21C1
1C62 CD 6A 10                   call L106A
1C65 42                         ld b,d
1C66 4B                         ld c,e
1C67 0B                         dec bc
1C68 3E 2F         L1C68:       ld a,$2F
1C6A 02                         ld (bc),a
1C6B 03            L1C6B:       inc bc
1C6C 3E FF                      ld a,$FF
1C6E 02                         ld (bc),a
1C6F C5            L1C6F:       push bc
1C70 06 05                      ld b,$05
1C72 DD 21 27 01                ld ix,$0127
1C76 CD F0 01                   call L01F0
1C79 C1                         pop bc
1C7A C9                         ret
1C7B E5            L1C7B:       push hl
1C7C CD 90 1B                   call L1B90
1C7F E1                         pop hl
1C80 11 C0 21                   ld de,$21C0
1C83 01 00 20                   ld bc,$2000
1C86 CD E4 19                   call L19E4
1C89 D0                         ret nc
1C8A 3A C0 21                   ld a,($21C0)
1C8D CB 67                      bit 4,a
1C8F 37                         scf
1C90 C9                         ret
1C91 CD A8 10      L1C91:       call L10A8
1C94 D5                         push de
1C95 C5                         push bc
1C96 CD 25 12                   call L1225
1C99 C1                         pop bc
1C9A 4B                         ld c,e
1C9B D1                         pop de
1C9C D0                         ret nc
1C9D C5                         push bc
1C9E 79                         ld a,c
1C9F 12                         ld (de),a
1CA0 13                         inc de
1CA1 06 0B                      ld b,$0B
1CA3 7E            L1CA3:       ld a,(hl)
1CA4 23                         inc hl
1CA5 FE 7F                      cp $7F
1CA7 30 04                      jr nc,L1CAD
1CA9 FE 20                      cp $20
1CAB 30 02                      jr nc,L1CAF
1CAD 3E 5F         L1CAD:       ld a,$5F
1CAF 12            L1CAF:       ld (de),a
1CB0 13                         inc de
1CB1 10 F0                      djnz L1CA3
1CB3 ED 34 0B 00                add hl,$000B
1CB7 01 04 00                   ld bc,$0004
1CBA ED B0                      ldir
1CBC 23                         inc hl
1CBD 23                         inc hl
1CBE 0E 04                      ld c,$04
1CC0 ED B0                      ldir
1CC2 C1                         pop bc
1CC3 D5                         push de
1CC4 CB 70                      bit 6,b
1CC6 28 41                      jr z,L1D09
1CC8 2B                         dec hl
1CC9 7E                         ld a,(hl)
1CCA 2B                         dec hl
1CCB B6                         or (hl)
1CCC 2B                         dec hl
1CCD B6                         or (hl)
1CCE 2B                         dec hl
1CCF 20 04                      jr nz,L1CD5
1CD1 CB 7E                      bit 7,(hl)
1CD3 28 27                      jr z,L1CFC
1CD5 ED 34 F8 FF   L1CD5:       add hl,$FFF8
1CD9 5E                         ld e,(hl)
1CDA 23                         inc hl
1CDB 56                         ld d,(hl)
1CDC ED 34 05 00                add hl,$0005
1CE0 4E                         ld c,(hl)
1CE1 23                         inc hl
1CE2 46                         ld b,(hl)
1CE3 AF                         xor a
1CE4 CD EE 06                   call L06EE
1CE7 30 13                      jr nc,L1CFC
1CE9 CD 9E 19                   call L199E
1CEC 20 0E                      jr nz,L1CFC
1CEE EB                         ex de,hl
1CEF ED 34 04 00                add hl,$0004
1CF3 D1                         pop de
1CF4 D5                         push de
1CF5 01 08 00                   ld bc,$0008
1CF8 ED B0                      ldir
1CFA 18 0D                      jr L1D09
1CFC D1            L1CFC:       pop de
1CFD D5                         push de
1CFE 3E FF                      ld a,$FF
1D00 12                         ld (de),a
1D01 13                         inc de
1D02 06 07                      ld b,$07
1D04 AF                         xor a
1D05 12            L1D05:       ld (de),a
1D06 13                         inc de
1D07 10 FC                      djnz L1D05
1D09 D1            L1D09:       pop de
1D0A ED 35 0A 00                add de,$000A
1D0E D5                         push de
1D0F CD 4E 10                   call L104E
1D12 E1                         pop hl
1D13 D5                         push de
1D14 EB                         ex de,hl
1D15 A7                         and a
1D16 ED 52                      sbc hl,de
1D18 EB                         ex de,hl
1D19 2B                         dec hl
1D1A 72                         ld (hl),d
1D1B 2B                         dec hl
1D1C 73                         ld (hl),e
1D1D D1                         pop de
1D1E 37                         scf
1D1F C9                         ret
1D20 CD A8 10      L1D20:       call L10A8
1D23 30 65                      jr nc,L1D8A
1D25 11 00 00                   ld de,$0000
1D28 FD 6E 08                   ld l,(iy+$08)
1D2B FD 66 09                   ld h,(iy+$09)
1D2E 06 04                      ld b,$04
1D30 FD CB 02 7E                bit 7,(iy+$02)
1D34 20 3E                      jr nz,L1D74
1D36 D5                         push de
1D37 D5                         push de
1D38 EF                         rst $28
1D39 03                         inc bc
1D3A D5            L1D3A:       push de
1D3B C5                         push bc
1D3C EF                         rst $28
1D3D 08                         ex af,af'
1D3E 60                         ld h,b
1D3F 69                         ld l,c
1D40 C1                         pop bc
1D41 A7                         and a
1D42 ED 42                      sbc hl,bc
1D44 EB                         ex de,hl
1D45 D1                         pop de
1D46 20 04                      jr nz,L1D4C
1D48 ED 52                      sbc hl,de
1D4A 28 16                      jr z,L1D62
1D4C CD 12 09      L1D4C:       call L0912
1D4F E1                         pop hl
1D50 30 36                      jr nc,L1D88
1D52 CD E2 1F                   call L1FE2
1D55 87                         add a,a
1D56 38 04                      jr c,L1D5C
1D58 84                         add a,h
1D59 67                         ld h,a
1D5A 30 03                      jr nc,L1D5F
1D5C E3            L1D5C:       ex (sp),hl
1D5D 23                         inc hl
1D5E E3                         ex (sp),hl
1D5F E5            L1D5F:       push hl
1D60 18 D8                      jr L1D3A
1D62 E1            L1D62:       pop hl
1D63 D1                         pop de
1D64 FD 7E 07                   ld a,(iy+$07)
1D67 87                         add a,a
1D68 84                         add a,h
1D69 67                         ld h,a
1D6A 30 01                      jr nc,L1D6D
1D6C 13                         inc de
1D6D 6C            L1D6D:       ld l,h
1D6E 63                         ld h,e
1D6F 5A                         ld e,d
1D70 16 00                      ld d,$00
1D72 06 03                      ld b,$03
1D74 29            L1D74:       add hl,hl
1D75 EB                         ex de,hl
1D76 ED 6A                      adc hl,hl
1D78 EB                         ex de,hl
1D79 10 F9                      djnz L1D74
1D7B FD 4E 0C                   ld c,(iy+$0C)
1D7E 06 00                      ld b,$00
1D80 09                         add hl,bc
1D81 EB                         ex de,hl
1D82 48                         ld c,b
1D83 ED 4A                      adc hl,bc
1D85 EB                         ex de,hl
1D86 37                         scf
1D87 C9                         ret
1D88 E1            L1D88:       pop hl
1D89 C9                         ret
1D8A CA 26 11      L1D8A:       jp z,L1126
1D8D D5                         push de
1D8E E5                         push hl
1D8F CD DE 10                   call L10DE
1D92 E1            L1D92:       pop hl
1D93 D1                         pop de
1D94 7A                         ld a,d
1D95 B3                         or e
1D96 B4                         or h
1D97 B5                         or l
1D98 37                         scf
1D99 C8                         ret z
1D9A 2B                         dec hl
1D9B 7C                         ld a,h
1D9C A5                         and l
1D9D 3C                         inc a
1D9E 20 01                      jr nz,L1DA1
1DA0 1B                         dec de
1DA1 D5            L1DA1:       push de
1DA2 E5                         push hl
1DA3 CD 26 11                   call L1126
1DA6 18 EA                      jr L1D92
1DA8 FD 67         L1DA8:       ld yh,a
1DAA CD 04 02                   call L0204
1DAD CD 0D 04                   call L040D
1DB0 B3                         or e
1DB1 1D                         dec e
1DB2 C9                         ret
1DB3 04                         inc b
1DB4 05                         dec b
1DB5 28 11                      jr z,L1DC8
1DB7 05                         dec b
1DB8 C2 01 3D                   jp nz,L3D01
1DBB E5                         push hl
1DBC CD E0 1D                   call L1DE0
1DBF D1                         pop de
1DC0 7E            L1DC0:       ld a,(hl)
1DC1 ED A0                      ldi
1DC3 3C                         inc a
1DC4 20 FA                      jr nz,L1DC0
1DC6 37                         scf
1DC7 C9                         ret
1DC8 F5            L1DC8:       push af
1DC9 CD E0 1D                   call L1DE0
1DCC D1                         pop de
1DCD D0                         ret nc
1DCE 7A                         ld a,d
1DCF F5                         push af
1DD0 CD 6A 1E                   call L1E6A
1DD3 F1                         pop af
1DD4 E6 0F                      and $0F
1DD6 06 02                      ld b,$02
1DD8 DD 21 27 01                ld ix,$0127
1DDC CD F0 01                   call L01F0
1DDF C9                         ret
1DE0 E5            L1DE0:       push hl
1DE1 F5                         push af
1DE2 CD F5 1D                   call L1DF5
1DE5 F1                         pop af
1DE6 E3                         ex (sp),hl
1DE7 42                         ld b,d
1DE8 4B                         ld c,e
1DE9 CD AA 1B                   call L1BAA
1DEC D1                         pop de
1DED D0                         ret nc
1DEE D5                         push de
1DEF FC 25 1C                   call m,L1C25
1DF2 D1                         pop de
1DF3 EB                         ex de,hl
1DF4 C9                         ret
1DF5 13            L1DF5:       inc de
1DF6 13                         inc de
1DF7 E6 0F                      and $0F
1DF9 F5                         push af
1DFA C6 20                      add a,$20
1DFC 67                         ld h,a
1DFD 2E 00                      ld l,$00
1DFF 01 FE 00                   ld bc,$00FE
1E02 3E 09                      ld a,$09
1E04 D5                         push de
1E05 CD 69 07                   call L0769
1E08 E1                         pop hl
1E09 D1                         pop de
1E0A 7E                         ld a,(hl)
1E0B 2F                         cpl
1E0C 23                         inc hl
1E0D BE                         cp (hl)
1E0E 20 11                      jr nz,L1E21
1E10 E6 0F                      and $0F
1E12 BA                         cp d
1E13 20 0C                      jr nz,L1E21
1E15 56                         ld d,(hl)
1E16 23                         inc hl
1E17 7E                         ld a,(hl)
1E18 2B                         dec hl
1E19 FE 2F                      cp $2F
1E1B 28 0D                      jr z,L1E2A
1E1D FE 5C                      cp $5C
1E1F 28 09                      jr z,L1E2A
1E21 72            L1E21:       ld (hl),d
1E22 23                         inc hl
1E23 36 2F                      ld (hl),$2F
1E25 23                         inc hl
1E26 36 FF                      ld (hl),$FF
1E28 2B                         dec hl
1E29 2B                         dec hl
1E2A 36 3A         L1E2A:       ld (hl),$3A
1E2C 7A                         ld a,d
1E2D E6 0F                      and $0F
1E2F C6 41                      add a,$41
1E31 2B                         dec hl
1E32 77                         ld (hl),a
1E33 06 FD                      ld b,$FD
1E35 7A                         ld a,d
1E36 CD 1F 04                   call L041F
1E39 00                         nop
1E3A 04                         inc b
1E3B 02                         ld (bc),a
1E3C CB 77                      bit 6,a
1E3E 28 15                      jr z,L1E55
1E40 2B                         dec hl
1E41 04                         inc b
1E42 7A                         ld a,d
1E43 ED 23                      swapnib
1E45 E6 0F                      and $0F
1E47 FE 0A                      cp $0A
1E49 38 07                      jr c,L1E52
1E4B C6 26                      add a,$26
1E4D 77                         ld (hl),a
1E4E 2B                         dec hl
1E4F 04                         inc b
1E50 3E 01                      ld a,$01
1E52 C6 30         L1E52:       add a,$30
1E54 77                         ld (hl),a
1E55 4A            L1E55:       ld c,d
1E56 54                         ld d,h
1E57 5D                         ld e,l
1E58 13            L1E58:       inc de
1E59 1A                         ld a,(de)
1E5A 3C                         inc a
1E5B C8                         ret z
1E5C FE 21                      cp $21
1E5E 38 06                      jr c,L1E66
1E60 FE 80                      cp $80
1E62 30 02                      jr nc,L1E66
1E64 10 F2                      djnz L1E58
1E66 3E FF         L1E66:       ld a,$FF
1E68 12                         ld (de),a
1E69 C9                         ret
1E6A 57            L1E6A:       ld d,a
1E6B 23            L1E6B:       inc hl
1E6C 7E                         ld a,(hl)
1E6D FE 3A                      cp $3A
1E6F 20 FA                      jr nz,L1E6B
1E71 72                         ld (hl),d
1E72 2B                         dec hl
1E73 7E                         ld a,(hl)
1E74 F5                         push af
1E75 7A                         ld a,d
1E76 2F                         cpl
1E77 77                         ld (hl),a
1E78 7A                         ld a,d
1E79 E6 0F                      and $0F
1E7B C6 20                      add a,$20
1E7D 57                         ld d,a
1E7E 1E 00                      ld e,$00
1E80 01 FE 00                   ld bc,$00FE
1E83 3E 09                      ld a,$09
1E85 E5                         push hl
1E86 CD 03 07                   call L0703
1E89 E1                         pop hl
1E8A F1                         pop af
1E8B 77                         ld (hl),a
1E8C 23                         inc hl
1E8D 36 3A                      ld (hl),$3A
1E8F C9                         ret
1E90 AF            L1E90:       xor a
1E91 D3 E3                      out ($E3),a
1E93 C3 F9 1F                   jp L1FF9
1E96 00                         nop
1E97 00                         nop
1E98 00                         nop
1E99 00                         nop
1E9A 00                         nop
1E9B 00                         nop
1E9C 00                         nop
1E9D 00                         nop
1E9E 00                         nop
1E9F 00                         nop
1EA0 00                         nop
1EA1 00                         nop
1EA2 00                         nop
1EA3 00                         nop
1EA4 00                         nop
1EA5 AF            L1EA5:       xor a
1EA6 C5            L1EA6:       push bc
1EA7 D5                         push de
1EA8 E5                         push hl
1EA9 CD C8 1E                   call L1EC8
1EAC DD E3                      ex (sp),ix
1EAE 30 0F                      jr nc,L1EBF
1EB0 F5                         push af
1EB1 CB 7F                      bit 7,a
1EB3 28 06                      jr z,L1EBB
1EB5 F1                         pop af
1EB6 CD 85 1F                   call L1F85
1EB9 18 04                      jr L1EBF
1EBB F1            L1EBB:       pop af
1EBC CD 50 1F                   call L1F50
1EBF DD E1         L1EBF:       pop ix
1EC1 D1                         pop de
1EC2 C1                         pop bc
1EC3 C9                         ret
1EC4 3E 80         L1EC4:       ld a,$80
1EC6 18 DE                      jr L1EA6
1EC8 DD 6E 07      L1EC8:       ld l,(ix+$07)
1ECB DD 66 08                   ld h,(ix+$08)
1ECE A7                         and a
1ECF ED 52                      sbc hl,de
1ED1 DD 6E 09                   ld l,(ix+$09)
1ED4 DD 66 0A                   ld h,(ix+$0A)
1ED7 ED 42                      sbc hl,bc
1ED9 30 04                      jr nc,L1EDF
1EDB 3E 02                      ld a,$02
1EDD A7                         and a
1EDE C9                         ret
1EDF DD 6E 01      L1EDF:       ld l,(ix+$01)
1EE2 DD 66 02                   ld h,(ix+$02)
1EE5 19                         add hl,de
1EE6 EB                         ex de,hl
1EE7 DD 6E 03                   ld l,(ix+$03)
1EEA DD 66 04                   ld h,(ix+$04)
1EED ED 4A                      adc hl,bc
1EEF DD CB 10 4E                bit 1,(ix+$10)
1EF3 20 0A                      jr nz,L1EFF
1EF5 65                         ld h,l
1EF6 6A                         ld l,d
1EF7 53                         ld d,e
1EF8 1E 00                      ld e,$00
1EFA EB                         ex de,hl
1EFB 29                         add hl,hl
1EFC EB                         ex de,hl
1EFD ED 6A                      adc hl,hl
1EFF DD CB 10 46   L1EFF:       bit 0,(ix+$10)
1F03 37                         scf
1F04 C9                         ret
1F05 26 00         L1F05:       ld h,$00
1F07 2E 00                      ld l,$00
1F09 55                         ld d,l
1F0A 5D                         ld e,l
1F0B 06 FF         L1F0B:       ld b,$FF
1F0D 4F                         ld c,a
1F0E 3E FE                      ld a,$FE
1F10 28 02                      jr z,L1F14
1F12 3E FD                      ld a,$FD
1F14 D3 E7         L1F14:       out ($E7),a
1F16 DB EB                      in a,($EB)
1F18 79                         ld a,c
1F19 0E EB                      ld c,$EB
1F1B ED 79                      out (c),a
1F1D 7C                         ld a,h
1F1E ED 79                      out (c),a
1F20 7D                         ld a,l
1F21 ED 79                      out (c),a
1F23 7A                         ld a,d
1F24 ED 79                      out (c),a
1F26 7B                         ld a,e
1F27 ED 79                      out (c),a
1F29 78                         ld a,b
1F2A ED 79                      out (c),a
1F2C CD 33 1F                   call L1F33
1F2F A7                         and a
1F30 C0                         ret nz
1F31 37                         scf
1F32 C9                         ret
1F33 01 32 00      L1F33:       ld bc,$0032
1F36 DB EB         L1F36:       in a,($EB)
1F38 FE FF                      cp $FF
1F3A C0                         ret nz
1F3B 10 F9                      djnz L1F36
1F3D 0D                         dec c
1F3E 20 F6                      jr nz,L1F36
1F40 C9                         ret
1F41 1E 0A         L1F41:       ld e,$0A
1F43 CD 33 1F      L1F43:       call L1F33
1F46 FE FE                      cp $FE
1F48 28 05                      jr z,L1F4F
1F4A 38 03                      jr c,L1F4F
1F4C 1D                         dec e
1F4D 20 F4                      jr nz,L1F43
1F4F C9            L1F4F:       ret
1F50 3E 51         L1F50:       ld a,$51
1F52 CD 0B 1F                   call L1F0B
1F55 3E 00         L1F55:       ld a,$00
1F57 30 19                      jr nc,L1F72
1F59 CD 41 1F                   call L1F41
1F5C 28 03                      jr z,L1F61
1F5E A7                         and a
1F5F 18 F4                      jr L1F55
1F61 DD E5         L1F61:       push ix
1F63 E1                         pop hl
1F64 01 EB 00                   ld bc,$00EB
1F67 ED B2                      inir
1F69 ED B2                      inir
1F6B DB EB                      in a,($EB)
1F6D 00                         nop
1F6E 00                         nop
1F6F DB EB                      in a,($EB)
1F71 37                         scf
1F72 F5            L1F72:       push af
1F73 DB EB                      in a,($EB)
1F75 3E FF                      ld a,$FF
1F77 D3 E7                      out ($E7),a
1F79 00                         nop
1F7A DB EB                      in a,($EB)
1F7C F1                         pop af
1F7D C9                         ret
1F7E 3E 4C                      ld a,$4C
1F80 CD 05 1F                   call L1F05
1F83 18 ED                      jr L1F72
1F85 F5            L1F85:       push af
1F86 3E 58                      ld a,$58
1F88 CD 0B 1F                   call L1F0B
1F8B 30 3F                      jr nc,L1FCC
1F8D 3E FE                      ld a,$FE
1F8F D3 EB                      out ($EB),a
1F91 01 EB 00                   ld bc,$00EB
1F94 DD E5                      push ix
1F96 E1                         pop hl
1F97 ED B3                      otir
1F99 ED B3                      otir
1F9B 3E FF                      ld a,$FF
1F9D D3 EB                      out ($EB),a
1F9F 00                         nop
1FA0 00                         nop
1FA1 D3 EB                      out ($EB),a
1FA3 CD 33 1F                   call L1F33
1FA6 E6 1F                      and $1F
1FA8 FE 05                      cp $05
1FAA 20 20                      jr nz,L1FCC
1FAC CD 33 1F      L1FAC:       call L1F33
1FAF A7                         and a
1FB0 28 FA                      jr z,L1FAC
1FB2 F1                         pop af
1FB3 3E 4D                      ld a,$4D
1FB5 E5                         push hl
1FB6 CD 05 1F                   call L1F05
1FB9 E1                         pop hl
1FBA 30 11                      jr nc,L1FCD
1FBC DB EB                      in a,($EB)
1FBE A7                         and a
1FBF 37                         scf
1FC0 28 0E                      jr z,L1FD0
1FC2 E6 23                      and $23
1FC4 3E 01                      ld a,$01
1FC6 20 08                      jr nz,L1FD0
1FC8 3E 03                      ld a,$03
1FCA 18 04                      jr L1FD0
1FCC F1            L1FCC:       pop af
1FCD 3E 00         L1FCD:       ld a,$00
1FCF A7                         and a
1FD0 18 A0         L1FD0:       jr L1F72
1FD2 DD 34 2B      L1FD2:       inc (ix+$2B)
1FD5 C0                         ret nz
1FD6 DD 34 2C                   inc (ix+$2C)
1FD9 C0                         ret nz
1FDA DD 34 2D                   inc (ix+$2D)
1FDD C0                         ret nz
1FDE DD 34 2E                   inc (ix+$2E)
1FE1 C9                         ret
1FE2 DD 7E 21      L1FE2:       ld a,(ix+$21)
1FE5 C9                         ret
1FE6 00                         nop
1FE7 00                         nop
1FE8 00                         nop
1FE9 00                         nop
1FEA 00                         nop
1FEB 00                         nop
1FEC 00                         nop
1FED 00                         nop
1FEE 00                         nop
1FEF 00                         nop
1FF0 00                         nop
1FF1 00                         nop
1FF2 00                         nop
1FF3 F5            L1FF3:       push af
1FF4 3E 80                      ld a,$80
1FF6 D3 E3                      out ($E3),a
1FF8 F1                         pop af
1FF9 C9            L1FF9:       ret
1FFA C9                         ret
1FFB E7                         rst $20
1FFC E1            L1FFC:       pop hl
1FFD F1                         pop af
1FFE FB                         ei
1FFF C9                         ret
