ZX Spectrum Next ROM Disassembly (ROM 3 - Fourth 16KB)
================================================================================
File: enNextZX.rom
Source ROM Block: ROM 3 (file bytes 0xC000-0xFFFF)
Disassembly Address Range: $0000 - $3FFF (0 - 16383)
Total Instructions: 10592
================================================================================

0000 F3                         di
0001 AF                         xor a
0002 01 3B 24                   ld bc,$243B
0005 C3 E8 3B                   jp L3BE8
0008 2A 5D 5C                   ld hl,($5C5D)
000B 22 5F 5C                   ld ($5C5F),hl
000E 18 43                      jr L0053
0010 C3 F2 15                   jp L15F2
0013 DD E9         L0013:       jp (ix)
0015 FF                         rst $38
0016 FF                         rst $38
0017 FF                         rst $38
0018 C3 55 15                   jp L1555
001B 7E                         ld a,(hl)
001C CD 7D 00      L001C:       call L007D
001F D0                         ret nc
0020 C3 5B 15                   jp L155B
0023 18 F7                      jr L001C
0025 FF                         rst $38
0026 FF                         rst $38
0027 FF                         rst $38
0028 C3 5B 33                   jp L335B
002B FF                         rst $38
002C FF                         rst $38
002D FF                         rst $38
002E FF                         rst $38
002F FF                         rst $38
0030 C5            L0030:       push bc
0031 2A 61 5C                   ld hl,($5C61)
0034 E5                         push hl
0035 C3 9E 16                   jp L169E
0038 F5                         push af
0039 E5                         push hl
003A 2A 78 5C                   ld hl,($5C78)
003D 23                         inc hl
003E 22 78 5C                   ld ($5C78),hl
0041 7C                         ld a,h
0042 B5                         or l
0043 20 03                      jr nz,L0048
0045 FD 34 40                   inc (iy+$40)
0048 C5            L0048:       push bc
0049 D5                         push de
004A CD 6E 38                   call L386E
004D D1                         pop de
004E C1                         pop bc
004F E1                         pop hl
0050 F1                         pop af
0051 FB                         ei
0052 C9                         ret
0053 E1            L0053:       pop hl
0054 6E                         ld l,(hl)
0055 FD 75 00                   ld (iy),l
0058 ED 7B 3D 5C                ld sp,($5C3D)
005C C3 C5 16                   jp L16C5
005F FF                         rst $38
0060 FF                         rst $38
0061 FF                         rst $38
0062 FF                         rst $38
0063 FF                         rst $38
0064 FF                         rst $38
0065 FF                         rst $38
0066 F5                         push af
0067 09            L0067:       add hl,bc
0068 44                         ld b,h
0069 4D                         ld c,l
006A EB                         ex de,hl
006B D1                         pop de
006C ED B0                      ldir
006E C9                         ret
006F 00                         nop
0070 00                         nop
0071 00                         nop
0072 00                         nop
0073 00                         nop
0074 2A 5D 5C      L0074:       ld hl,($5C5D)
0077 23                         inc hl
0078 22 5D 5C                   ld ($5C5D),hl
007B 7E                         ld a,(hl)
007C C9                         ret
007D FE 21         L007D:       cp $21
007F D0                         ret nc
0080 FE 0D                      cp $0D
0082 C8                         ret z
0083 FE 10                      cp $10
0085 D8                         ret c
0086 FE 18                      cp $18
0088 3F                         ccf
0089 D8                         ret c
008A 23                         inc hl
008B FE 16                      cp $16
008D 38 01                      jr c,L0090
008F 23                         inc hl
0090 37            L0090:       scf
0091 22 5D 5C                   ld ($5C5D),hl
0094 C9                         ret
0095 BF                         cp a
0096 52                         ld d,d
0097 4E                         ld c,(hl)
0098 C4 49 4E                   call nz,L4E49
009B 4B                         ld c,e
009C 45                         ld b,l
009D 59                         ld e,c
009E A4                         and h
009F 50                         ld d,b
00A0 C9                         ret
00A1 46                         ld b,(hl)
00A2 CE 50         L00A2:       adc a,$50
00A4 4F                         ld c,a
00A5 49                         ld c,c
00A6 4E                         ld c,(hl)
00A7 D4 53 43                   call nc,L4353
00AA 52                         ld d,d
00AB 45                         ld b,l
00AC 45                         ld b,l
00AD 4E                         ld c,(hl)
00AE A4                         and h
00AF 41                         ld b,c
00B0 54                         ld d,h
00B1 54                         ld d,h
00B2 D2 41 D4                   jp nc,LD441
00B5 54                         ld d,h
00B6 41                         ld b,c
00B7 C2 56 41                   jp nz,L4156
00BA 4C                         ld c,h
00BB A4                         and h
00BC 43                         ld b,e
00BD 4F                         ld c,a
00BE 44                         ld b,h
00BF C5                         push bc
00C0 56                         ld d,(hl)
00C1 41                         ld b,c
00C2 CC 4C 45                   call z,L454C
00C5 CE 53                      adc a,$53
00C7 49                         ld c,c
00C8 CE 43                      adc a,$43
00CA 4F                         ld c,a
00CB D3 54                      out ($54),a
00CD 41                         ld b,c
00CE CE 41                      adc a,$41
00D0 53                         ld d,e
00D1 CE 41                      adc a,$41
00D3 43                         ld b,e
00D4 D3 41                      out ($41),a
00D6 54                         ld d,h
00D7 CE 4C                      adc a,$4C
00D9 CE 45                      adc a,$45
00DB 58                         ld e,b
00DC D0                         ret nc
00DD 49                         ld c,c
00DE 4E                         ld c,(hl)
00DF D4 53 51                   call nc,L5153
00E2 D2 53 47                   jp nc,L4753
00E5 CE 41                      adc a,$41
00E7 42                         ld b,d
00E8 D3 50                      out ($50),a
00EA 45                         ld b,l
00EB 45                         ld b,l
00EC CB 49                      bit 1,c
00EE CE 55                      adc a,$55
00F0 53                         ld d,e
00F1 D2 53 54                   jp nc,L5453
00F4 52                         ld d,d
00F5 A4                         and h
00F6 43                         ld b,e
00F7 48                         ld c,b
00F8 52                         ld d,d
00F9 A4                         and h
00FA 4E                         ld c,(hl)
00FB 4F                         ld c,a
00FC D4 42 49                   call nc,L4942
00FF CE 4F                      adc a,$4F
0101 D2 41 4E                   jp nc,L4E41
0104 C4 3C BD                   call nz,LBD3C
0107 3E BD                      ld a,$BD
0109 3C                         inc a
010A BE                         cp (hl)
010B 4C                         ld c,h
010C 49                         ld c,c
010D 4E                         ld c,(hl)
010E C5                         push bc
010F 54                         ld d,h
0110 48                         ld c,b
0111 45                         ld b,l
0112 CE 54                      adc a,$54
0114 CF                         rst $08
0115 53                         ld d,e
0116 54                         ld d,h
0117 45                         ld b,l
0118 D0                         ret nc
0119 44                         ld b,h
011A 45                         ld b,l
011B 46                         ld b,(hl)
011C 20 46                      jr nz,L0164
011E CE 43                      adc a,$43
0120 41                         ld b,c
0121 D4 46 4F                   call nc,L4F46
0124 52                         ld d,d
0125 4D                         ld c,l
0126 41                         ld b,c
0127 D4 4D 4F                   call nc,L4F4D
012A 56                         ld d,(hl)
012B C5                         push bc
012C 45                         ld b,l
012D 52                         ld d,d
012E 41                         ld b,c
012F 53                         ld d,e
0130 C5                         push bc
0131 4F                         ld c,a
0132 50                         ld d,b
0133 45                         ld b,l
0134 4E                         ld c,(hl)
0135 20 A3                      jr nz,L00DA
0137 43                         ld b,e
0138 4C                         ld c,h
0139 4F                         ld c,a
013A 53                         ld d,e
013B 45                         ld b,l
013C 20 A3                      jr nz,L00E1
013E 4D                         ld c,l
013F 45                         ld b,l
0140 52                         ld d,d
0141 47                         ld b,a
0142 C5                         push bc
0143 56                         ld d,(hl)
0144 45                         ld b,l
0145 52                         ld d,d
0146 49                         ld c,c
0147 46                         ld b,(hl)
0148 D9                         exx
0149 42                         ld b,d
014A 45                         ld b,l
014B 45                         ld b,l
014C D0                         ret nc
014D 43                         ld b,e
014E 49                         ld c,c
014F 52                         ld d,d
0150 43                         ld b,e
0151 4C                         ld c,h
0152 C5                         push bc
0153 49                         ld c,c
0154 4E                         ld c,(hl)
0155 CB 50                      bit 2,b
0157 41                         ld b,c
0158 50                         ld d,b
0159 45                         ld b,l
015A D2 46 4C                   jp nc,L4C46
015D 41                         ld b,c
015E 53                         ld d,e
015F C8                         ret z
0160 42                         ld b,d
0161 52                         ld d,d
0162 49                         ld c,c
0163 47                         ld b,a
0164 48            L0164:       ld c,b
0165 D4 49 4E                   call nc,L4E49
0168 56                         ld d,(hl)
0169 45                         ld b,l
016A 52                         ld d,d
016B 53                         ld d,e
016C C5                         push bc
016D 4F                         ld c,a
016E 56                         ld d,(hl)
016F 45                         ld b,l
0170 D2 4F 55                   jp nc,L554F
0173 D4 4C 50                   call nc,L504C
0176 52                         ld d,d
0177 49                         ld c,c
0178 4E                         ld c,(hl)
0179 D4 4C 4C                   call nc,L4C4C
017C 49                         ld c,c
017D 53                         ld d,e
017E D4 53 54                   call nc,L5453
0181 4F                         ld c,a
0182 D0                         ret nc
0183 52                         ld d,d
0184 45                         ld b,l
0185 41                         ld b,c
0186 C4 44 41                   call nz,L4144
0189 54                         ld d,h
018A C1                         pop bc
018B 52                         ld d,d
018C 45                         ld b,l
018D 53                         ld d,e
018E 54                         ld d,h
018F 4F                         ld c,a
0190 52                         ld d,d
0191 C5                         push bc
0192 4E                         ld c,(hl)
0193 45                         ld b,l
0194 D7                         rst $10
0195 42                         ld b,d
0196 4F                         ld c,a
0197 52                         ld d,d
0198 44                         ld b,h
0199 45                         ld b,l
019A D2 43 4F                   jp nc,L4F43
019D 4E                         ld c,(hl)
019E 54                         ld d,h
019F 49                         ld c,c
01A0 4E                         ld c,(hl)
01A1 55                         ld d,l
01A2 C5                         push bc
01A3 44                         ld b,h
01A4 49                         ld c,c
01A5 CD 52 45                   call L4552
01A8 CD 46 4F                   call L4F46
01AB D2 47 4F                   jp nc,L4F47
01AE 20 54                      jr nz,L0204
01B0 CF                         rst $08
01B1 47                         ld b,a
01B2 4F                         ld c,a
01B3 20 53                      jr nz,L0208
01B5 55                         ld d,l
01B6 C2 49 4E                   jp nz,L4E49
01B9 50                         ld d,b
01BA 55                         ld d,l
01BB D4 4C 4F                   call nc,L4F4C
01BE 41                         ld b,c
01BF C4 4C 49                   call nz,L494C
01C2 53                         ld d,e
01C3 D4 4C 45                   call nc,L454C
01C6 D4 50 41                   call nc,L4150
01C9 55                         ld d,l
01CA 53                         ld d,e
01CB C5                         push bc
01CC 4E                         ld c,(hl)
01CD 45                         ld b,l
01CE 58                         ld e,b
01CF D4 50 4F                   call nc,L4F50
01D2 4B                         ld c,e
01D3 C5                         push bc
01D4 50                         ld d,b
01D5 52                         ld d,d
01D6 49                         ld c,c
01D7 4E                         ld c,(hl)
01D8 D4 50 4C                   call nc,L4C50
01DB 4F                         ld c,a
01DC D4 52 55                   call nc,L5552
01DF CE 53                      adc a,$53
01E1 41                         ld b,c
01E2 56                         ld d,(hl)
01E3 C5                         push bc
01E4 52                         ld d,d
01E5 41                         ld b,c
01E6 4E                         ld c,(hl)
01E7 44                         ld b,h
01E8 4F                         ld c,a
01E9 4D                         ld c,l
01EA 49                         ld c,c
01EB 5A                         ld e,d
01EC C5                         push bc
01ED 49                         ld c,c
01EE C6 43                      add a,$43
01F0 4C                         ld c,h
01F1 D3 44                      out ($44),a
01F3 52                         ld d,d
01F4 41                         ld b,c
01F5 D7                         rst $10
01F6 43                         ld b,e
01F7 4C                         ld c,h
01F8 45                         ld b,l
01F9 41                         ld b,c
01FA D2 52 45                   jp nc,L4552
01FD 54                         ld d,h
01FE 55                         ld d,l
01FF 52                         ld d,d
0200 CE 43                      adc a,$43
0202 4F                         ld c,a
0203 50                         ld d,b
0204 D9            L0204:       exx
0205 42                         ld b,d
0206 48                         ld c,b
0207 59                         ld e,c
0208 36 35         L0208:       ld (hl),$35
020A 54                         ld d,h
020B 47                         ld b,a
020C 56                         ld d,(hl)
020D 4E                         ld c,(hl)
020E 4A                         ld c,d
020F 55                         ld d,l
0210 37                         scf
0211 34                         inc (hl)
0212 52                         ld d,d
0213 46                         ld b,(hl)
0214 43                         ld b,e
0215 4D                         ld c,l
0216 4B                         ld c,e
0217 49                         ld c,c
0218 38 33                      jr c,L024D
021A 45                         ld b,l
021B 44                         ld b,h
021C 58                         ld e,b
021D 0E 4C                      ld c,$4C
021F 4F                         ld c,a
0220 39                         add hl,sp
0221 32 57 53                   ld ($5357),a
0224 5A                         ld e,d
0225 20 0D                      jr nz,L0234
0227 50                         ld d,b
0228 30 31                      jr nc,L025B
022A 51                         ld d,c
022B 41                         ld b,c
022C E3                         ex (sp),hl
022D C4 E0 E4                   call nz,LE4E0
0230 B4                         or h
0231 BC                         cp h
0232 BD                         cp l
0233 BB                         cp e
0234 AF            L0234:       xor a
0235 B0                         or b
0236 B1            L0236:       or c
0237 C0                         ret nz
0238 A7                         and a
0239 A6                         and (hl)
023A BE                         cp (hl)
023B AD                         xor l
023C B2                         or d
023D BA                         cp d
023E E5                         push hl
023F A5                         and l
0240 C2 E1 B3                   jp nz,LB3E1
0243 B9                         cp c
0244 C1                         pop bc
0245 B8                         cp b
0246 7E                         ld a,(hl)
0247 DC DA 5C                   call c,L5CDA
024A B7                         or a
024B 7B                         ld a,e
024C 7D                         ld a,l
024D D8            L024D:       ret c
024E BF                         cp a
024F AE                         xor (hl)
0250 AA                         xor d
0251 AB                         xor e
0252 DD DE DF                   sbc a,$DF
0255 7F                         ld a,a
0256 B5                         or l
0257 D6 7C                      sub $7C
0259 D5                         push de
025A 5D                         ld e,l
025B DB B6         L025B:       in a,($B6)
025D D9                         exx
025E 5B                         ld e,e
025F D7                         rst $10
0260 0C                         inc c
0261 07                         rlca
0262 06 04                      ld b,$04
0264 05                         dec b
0265 08                         ex af,af'
0266 0A                         ld a,(bc)
0267 0B                         dec bc
0268 09                         add hl,bc
0269 0F                         rrca
026A E2 2A 3F                   jp po,L3F2A
026D CD C8 CC                   call LCCC8
0270 CB 5E                      bit 3,(hl)
0272 AC                         xor h
0273 2D                         dec l
0274 2B                         dec hl
0275 3D                         dec a
0276 2E 2C                      ld l,$2C
0278 3B                         dec sp
0279 22 C7 3C                   ld ($3CC7),hl
027C C3 3E C5                   jp LC53E
027F 2F                         cpl
0280 C9                         ret
0281 60                         ld h,b
0282 C6 3A                      add a,$3A
0284 D0                         ret nc
0285 CE A8                      adc a,$A8
0287 CA D3 D4                   jp z,LD4D3
028A D1                         pop de
028B D2 A9 CF                   jp nc,LCFA9
028E 2E 2F         L028E:       ld l,$2F
0290 11 FF FF                   ld de,$FFFF
0293 01 FE FE                   ld bc,$FEFE
0296 ED 78         L0296:       in a,(c)
0298 2F                         cpl
0299 E6 1F                      and $1F
029B 28 0E                      jr z,L02AB
029D 67                         ld h,a
029E 7D                         ld a,l
029F 14            L029F:       inc d
02A0 C0                         ret nz
02A1 D6 08         L02A1:       sub $08
02A3 CB 3C                      srl h
02A5 30 FA                      jr nc,L02A1
02A7 53                         ld d,e
02A8 5F                         ld e,a
02A9 20 F4                      jr nz,L029F
02AB 2D            L02AB:       dec l
02AC CB 00                      rlc b
02AE 38 E6                      jr c,L0296
02B0 7A                         ld a,d
02B1 3C                         inc a
02B2 C8                         ret z
02B3 FE 28                      cp $28
02B5 C8                         ret z
02B6 FE 19                      cp $19
02B8 C8                         ret z
02B9 7B                         ld a,e
02BA 5A                         ld e,d
02BB 57                         ld d,a
02BC FE 18                      cp $18
02BE C9                         ret
02BF CD 8E 02      L02BF:       call L028E
02C2 C0                         ret nz
02C3 21 00 5C                   ld hl,$5C00
02C6 CB 7E         L02C6:       bit 7,(hl)
02C8 20 07                      jr nz,L02D1
02CA 23                         inc hl
02CB 35                         dec (hl)
02CC 2B                         dec hl
02CD 20 02                      jr nz,L02D1
02CF 36 FF                      ld (hl),$FF
02D1 7D            L02D1:       ld a,l
02D2 21 04 5C                   ld hl,$5C04
02D5 BD                         cp l
02D6 20 EE                      jr nz,L02C6
02D8 CD 1E 03                   call L031E
02DB D0                         ret nc
02DC 21 00 5C                   ld hl,$5C00
02DF BE                         cp (hl)
02E0 28 2E                      jr z,L0310
02E2 EB                         ex de,hl
02E3 21 04 5C                   ld hl,$5C04
02E6 BE                         cp (hl)
02E7 28 27                      jr z,L0310
02E9 CB 7E                      bit 7,(hl)
02EB 20 04                      jr nz,L02F1
02ED EB                         ex de,hl
02EE CB 7E                      bit 7,(hl)
02F0 C8                         ret z
02F1 5F            L02F1:       ld e,a
02F2 77                         ld (hl),a
02F3 23                         inc hl
02F4 36 05                      ld (hl),$05
02F6 23                         inc hl
02F7 3A 09 5C                   ld a,($5C09)
02FA 77                         ld (hl),a
02FB 23                         inc hl
02FC FD 4E 07                   ld c,(iy+$07)
02FF FD 56 01                   ld d,(iy+$01)
0302 E5                         push hl
0303 CD 33 03                   call L0333
0306 E1                         pop hl
0307 77                         ld (hl),a
0308 32 08 5C      L0308:       ld ($5C08),a
030B FD CB 01 EE                set 5,(iy+$01)
030F C9                         ret
0310 23            L0310:       inc hl
0311 36 05                      ld (hl),$05
0313 23                         inc hl
0314 35                         dec (hl)
0315 C0                         ret nz
0316 3A 0A 5C                   ld a,($5C0A)
0319 77                         ld (hl),a
031A 23                         inc hl
031B 7E                         ld a,(hl)
031C 18 EA                      jr L0308
031E 42            L031E:       ld b,d
031F 16 00                      ld d,$00
0321 7B                         ld a,e
0322 FE 27                      cp $27
0324 D0                         ret nc
0325 FE 18                      cp $18
0327 20 03                      jr nz,L032C
0329 CB 78                      bit 7,b
032B C0                         ret nz
032C 21 05 02      L032C:       ld hl,$0205
032F 19                         add hl,de
0330 7E                         ld a,(hl)
0331 37                         scf
0332 C9                         ret
0333 7B            L0333:       ld a,e
0334 FE 3A                      cp $3A
0336 38 2F                      jr c,L0367
0338 0D                         dec c
0339 FA 4F 03                   jp m,L034F
033C 28 03                      jr z,L0341
033E C6 4F                      add a,$4F
0340 C9                         ret
0341 21 EB 01      L0341:       ld hl,$01EB
0344 04                         inc b
0345 28 03                      jr z,L034A
0347 21 05 02                   ld hl,$0205
034A 16 00         L034A:       ld d,$00
034C 19                         add hl,de
034D 7E                         ld a,(hl)
034E C9                         ret
034F 21 29 02      L034F:       ld hl,$0229
0352 CB 40                      bit 0,b
0354 28 F4                      jr z,L034A
0356 CB 5A                      bit 3,d
0358 28 0A                      jr z,L0364
035A FD CB 30 5E                bit 3,(iy+$30)
035E C0                         ret nz
035F 04                         inc b
0360 C0                         ret nz
0361 C6 20                      add a,$20
0363 C9                         ret
0364 C6 A5         L0364:       add a,$A5
0366 C9                         ret
0367 FE 30         L0367:       cp $30
0369 D8                         ret c
036A 0D                         dec c
036B FA 9D 03                   jp m,L039D
036E 20 19                      jr nz,L0389
0370 21 54 02                   ld hl,$0254
0373 CB 68                      bit 5,b
0375 28 D3                      jr z,L034A
0377 FE 38                      cp $38
0379 30 07                      jr nc,L0382
037B D6 20                      sub $20
037D 04                         inc b
037E C8                         ret z
037F C6 08                      add a,$08
0381 C9                         ret
0382 D6 36         L0382:       sub $36
0384 04                         inc b
0385 C8                         ret z
0386 C6 FE                      add a,$FE
0388 C9                         ret
0389 21 30 02      L0389:       ld hl,$0230
038C FE 39                      cp $39
038E 28 BA                      jr z,L034A
0390 FE 30                      cp $30
0392 28 B6                      jr z,L034A
0394 E6 07                      and $07
0396 C6 80                      add a,$80
0398 04                         inc b
0399 C8                         ret z
039A EE 0F                      xor $0F
039C C9                         ret
039D 04            L039D:       inc b
039E C8                         ret z
039F CB 68                      bit 5,b
03A1 21 30 02                   ld hl,$0230
03A4 20 A4                      jr nz,L034A
03A6 D6 10                      sub $10
03A8 FE 22                      cp $22
03AA 28 06                      jr z,L03B2
03AC FE 20                      cp $20
03AE C0                         ret nz
03AF 3E 5F                      ld a,$5F
03B1 C9                         ret
03B2 3E 40         L03B2:       ld a,$40
03B4 C9                         ret
03B5 F3            L03B5:       di
03B6 7D                         ld a,l
03B7 CB 3D                      srl l
03B9 CB 3D                      srl l
03BB 2F                         cpl
03BC E6 03                      and $03
03BE 4F                         ld c,a
03BF 06 00                      ld b,$00
03C1 DD 21 D1 03   L03C1:       ld ix,$03D1
03C5 DD 09                      add ix,bc
03C7 3A 48 5C                   ld a,($5C48)
03CA E6 38                      and $38
03CC 0F                         rrca
03CD 0F                         rrca
03CE 0F                         rrca
03CF F6 08                      or $08
03D1 00                         nop
03D2 00                         nop
03D3 00                         nop
03D4 04                         inc b
03D5 0C                         inc c
03D6 0D            L03D6:       dec c
03D7 20 FD                      jr nz,L03D6
03D9 0E 3F                      ld c,$3F
03DB 05                         dec b
03DC C2 D6 03                   jp nz,L03D6
03DF EE 10                      xor $10
03E1 D3 FE                      out ($FE),a
03E3 44                         ld b,h
03E4 4F                         ld c,a
03E5 CB 67                      bit 4,a
03E7 20 09                      jr nz,L03F2
03E9 7A                         ld a,d
03EA B3                         or e
03EB 28 09                      jr z,L03F6
03ED 79                         ld a,c
03EE 4D                         ld c,l
03EF 1B                         dec de
03F0 DD E9                      jp (ix)
03F2 4D            L03F2:       ld c,l
03F3 0C                         inc c
03F4 DD E9                      jp (ix)
03F6 FB            L03F6:       ei
03F7 C9                         ret
03F8 EF                         rst $28
03F9 31 27 C0                   ld sp,$C027
03FC 03                         inc bc
03FD 34                         inc (hl)
03FE EC 6C 98                   call pe,L986C
0401 1F                         rra
0402 F5                         push af
0403 04                         inc b
0404 A1                         and c
0405 0F                         rrca
0406 38 21                      jr c,L0429
0408 92                         sub d
0409 5C                         ld e,h
040A 7E                         ld a,(hl)
040B A7                         and a
040C 20 5E                      jr nz,L046C
040E 23                         inc hl
040F 4E                         ld c,(hl)
0410 23                         inc hl
0411 46                         ld b,(hl)
0412 78                         ld a,b
0413 17                         rla
0414 9F                         sbc a,a
0415 B9                         cp c
0416 20 54                      jr nz,L046C
0418 23                         inc hl
0419 BE                         cp (hl)
041A 20 50                      jr nz,L046C
041C 78                         ld a,b
041D C6 3C                      add a,$3C
041F F2 25 04                   jp p,L0425
0422 E2 6C 04                   jp po,L046C
0425 06 FA         L0425:       ld b,$FA
0427 04            L0427:       inc b
0428 D6 0C                      sub $0C
042A 30 FB                      jr nc,L0427
042C C6 0C                      add a,$0C
042E C5                         push bc
042F 21 6E 04                   ld hl,$046E
0432 CD 06 34                   call L3406
0435 CD B4 33                   call L33B4
0438 EF                         rst $28
0439 04                         inc b
043A 38 F1                      jr c,L042D
043C 86                         add a,(hl)
043D 77                         ld (hl),a
043E EF                         rst $28
043F C0                         ret nz
0440 02                         ld (bc),a
0441 31 38 CD                   ld sp,$CD38
0444 94                         sub h
0445 1E FE                      ld e,$FE
0447 0B                         dec bc
0448 30 22                      jr nc,L046C
044A EF                         rst $28
044B E0                         ret po
044C 04                         inc b
044D E0                         ret po
044E 34                         inc (hl)
044F 80                         add a,b
0450 43                         ld b,e
0451 55                         ld d,l
0452 9F                         sbc a,a
0453 80                         add a,b
0454 01 05 34                   ld bc,$3405
0457 35                         dec (hl)
0458 71                         ld (hl),c
0459 03                         inc bc
045A 38 CD                      jr c,L0429
045C 99                         sbc a,c
045D 1E C5                      ld e,$C5
045F CD 99 1E                   call L1E99
0462 E1                         pop hl
0463 50                         ld d,b
0464 59                         ld e,c
0465 7A                         ld a,d
0466 B3                         or e
0467 C8                         ret z
0468 1B                         dec de
0469 C3 B5 03                   jp L03B5
046C CF            L046C:       rst $08
046D 0A                         ld a,(bc)
046E 89                         adc a,c
046F 02                         ld (bc),a
0470 D0                         ret nc
0471 12                         ld (de),a
0472 86                         add a,(hl)
0473 89                         adc a,c
0474 0A                         ld a,(bc)
0475 97                         sub a
0476 60                         ld h,b
0477 75                         ld (hl),l
0478 89                         adc a,c
0479 12                         ld (de),a
047A D5                         push de
047B 17                         rla
047C 1F                         rra
047D 89                         adc a,c
047E 1B                         dec de
047F 90                         sub b
0480 41                         ld b,c
0481 02                         ld (bc),a
0482 89                         adc a,c
0483 24                         inc h
0484 D0                         ret nc
0485 53                         ld d,e
0486 CA 89 2E                   jp z,L2E89
0489 9D                         sbc a,l
048A 36 B1                      ld (hl),$B1
048C 89                         adc a,c
048D 38 FF                      jr c,L048E
048F 49                         ld c,c
0490 3E 89                      ld a,$89
0492 43                         ld b,e
0493 FF                         rst $38
0494 6A                         ld l,d
0495 73                         ld (hl),e
0496 89                         adc a,c
0497 4F                         ld c,a
0498 A7                         and a
0499 00                         nop
049A 54                         ld d,h
049B 89                         adc a,c
049C 5C                         ld e,h
049D 00                         nop
049E 00                         nop
049F 00                         nop
04A0 89                         adc a,c
04A1 69                         ld l,c
04A2 14                         inc d
04A3 F6 24                      or $24
04A5 89                         adc a,c
04A6 76                         halt
04A7 F1                         pop af
04A8 10 05                      djnz L04AF
04AA 01 75 3E      L04AA:       ld bc,$3E75
04AD CD C5 32                   call L32C5
04B0 C2 54 05                   jp nz,L0554
04B3 CF                         rst $08
04B4 0C                         inc c
04B5 00                         nop
04B6 00                         nop
04B7 00                         nop
04B8 00                         nop
04B9 00                         nop
04BA 00                         nop
04BB 00                         nop
04BC 00                         nop
04BD 00                         nop
04BE 00                         nop
04BF 00                         nop
04C0 00                         nop
04C1 00                         nop
04C2 21 3F 05                   ld hl,$053F
04C5 E5                         push hl
04C6 21 80 1F                   ld hl,$1F80
04C9 CB 7F                      bit 7,a
04CB 28 03                      jr z,L04D0
04CD 21 98 0C                   ld hl,$0C98
04D0 08            L04D0:       ex af,af'
04D1 13                         inc de
04D2 DD 2B                      dec ix
04D4 F3                         di
04D5 3E 02                      ld a,$02
04D7 47                         ld b,a
04D8 10 FE         L04D8:       djnz L04D8
04DA D3 FE                      out ($FE),a
04DC EE 0F                      xor $0F
04DE 06 A4                      ld b,$A4
04E0 2D                         dec l
04E1 20 F5                      jr nz,L04D8
04E3 05                         dec b
04E4 25            L04E4:       dec h
04E5 F2 D8 04      L04E5:       jp p,L04D8
04E8 06 2F                      ld b,$2F
04EA 10 FE         L04EA:       djnz L04EA
04EC D3 FE                      out ($FE),a
04EE 3E 0D                      ld a,$0D
04F0 06 37                      ld b,$37
04F2 10 FE         L04F2:       djnz L04F2
04F4 D3 FE                      out ($FE),a
04F6 01 0E 3B                   ld bc,$3B0E
04F9 08                         ex af,af'
04FA 6F                         ld l,a
04FB C3 07 05                   jp L0507
04FE 7A            L04FE:       ld a,d
04FF B3                         or e
0500 28 0C                      jr z,L050E
0502 DD 6E 00                   ld l,(ix)
0505 7C            L0505:       ld a,h
0506 AD                         xor l
0507 67            L0507:       ld h,a
0508 3E 01                      ld a,$01
050A 37                         scf
050B C3 25 05                   jp L0525
050E 6C            L050E:       ld l,h
050F 18 F4                      jr L0505
0511 79            L0511:       ld a,c
0512 CB 78                      bit 7,b
0514 10 FE         L0514:       djnz L0514
0516 30 04                      jr nc,L051C
0518 06 42                      ld b,$42
051A 10 FE         L051A:       djnz L051A
051C D3 FE         L051C:       out ($FE),a
051E 06 3E                      ld b,$3E
0520 20 EF                      jr nz,L0511
0522 05                         dec b
0523 AF                         xor a
0524 3C                         inc a
0525 CB 15         L0525:       rl l
0527 C2 14 05                   jp nz,L0514
052A 1B                         dec de
052B DD 23                      inc ix
052D 06 31                      ld b,$31
052F 3E 7F                      ld a,$7F
0531 DB FE                      in a,($FE)
0533 1F                         rra
0534 D0                         ret nc
0535 7A                         ld a,d
0536 3C                         inc a
0537 C2 FE 04                   jp nz,L04FE
053A 06 3B                      ld b,$3B
053C 10 FE         L053C:       djnz L053C
053E C9                         ret
053F F5                         push af
0540 3A 48 5C                   ld a,($5C48)
0543 E6 38                      and $38
0545 0F                         rrca
0546 0F                         rrca
0547 0F                         rrca
0548 D3 FE                      out ($FE),a
054A 3E 7F                      ld a,$7F
054C DB FE                      in a,($FE)
054E 1F                         rra
054F FB                         ei
0550 D2 AA 04                   jp nc,L04AA
0553 00                         nop
0554 F1            L0554:       pop af
0555 C9                         ret
0556 14                         inc d
0557 08                         ex af,af'
0558 15                         dec d
0559 F3                         di
055A 3E 0F                      ld a,$0F
055C D3 FE                      out ($FE),a
055E 21 3F 05                   ld hl,$053F
0561 E5                         push hl
0562 DB FE                      in a,($FE)
0564 1F                         rra
0565 E6 20                      and $20
0567 F6 02                      or $02
0569 4F                         ld c,a
056A BF                         cp a
056B C0            L056B:       ret nz
056C CD E7 05      L056C:       call L05E7
056F 30 FA                      jr nc,L056B
0571 21 15 04                   ld hl,$0415
0574 10 FE         L0574:       djnz L0574
0576 2B                         dec hl
0577 7C                         ld a,h
0578 B5                         or l
0579 20 F9                      jr nz,L0574
057B CD E3 05                   call L05E3
057E 30 EB                      jr nc,L056B
0580 06 9C         L0580:       ld b,$9C
0582 CD E3 05                   call L05E3
0585 30 E4                      jr nc,L056B
0587 3E C6                      ld a,$C6
0589 B8                         cp b
058A 30 E0                      jr nc,L056C
058C 24                         inc h
058D 20 F1                      jr nz,L0580
058F 06 C9         L058F:       ld b,$C9
0591 CD E7 05                   call L05E7
0594 30 D5                      jr nc,L056B
0596 78                         ld a,b
0597 FE D4                      cp $D4
0599 30 F4                      jr nc,L058F
059B CD E7 05                   call L05E7
059E D0                         ret nc
059F 79                         ld a,c
05A0 EE 03                      xor $03
05A2 4F                         ld c,a
05A3 26 00                      ld h,$00
05A5 06 B0                      ld b,$B0
05A7 18 1F                      jr L05C8
05A9 08            L05A9:       ex af,af'
05AA 20 07                      jr nz,L05B3
05AC 30 0F                      jr nc,L05BD
05AE DD 75 00                   ld (ix),l
05B1 18 0F                      jr L05C2
05B3 CB 11         L05B3:       rl c
05B5 AD                         xor l
05B6 C0                         ret nz
05B7 79                         ld a,c
05B8 1F                         rra
05B9 4F                         ld c,a
05BA 13                         inc de
05BB 18 07                      jr L05C4
05BD DD 7E 00      L05BD:       ld a,(ix)
05C0 AD                         xor l
05C1 C0                         ret nz
05C2 DD 23         L05C2:       inc ix
05C4 1B            L05C4:       dec de
05C5 08                         ex af,af'
05C6 06 B2                      ld b,$B2
05C8 2E 01         L05C8:       ld l,$01
05CA CD E3 05      L05CA:       call L05E3
05CD D0                         ret nc
05CE 3E CB                      ld a,$CB
05D0 B8                         cp b
05D1 CB 15                      rl l
05D3 06 B0                      ld b,$B0
05D5 D2 CA 05                   jp nc,L05CA
05D8 7C                         ld a,h
05D9 AD                         xor l
05DA 67                         ld h,a
05DB 7A                         ld a,d
05DC B3                         or e
05DD 20 CA                      jr nz,L05A9
05DF 7C                         ld a,h
05E0 FE 01                      cp $01
05E2 C9                         ret
05E3 CD E7 05      L05E3:       call L05E7
05E6 D0                         ret nc
05E7 3E 16         L05E7:       ld a,$16
05E9 3D            L05E9:       dec a
05EA 20 FD                      jr nz,L05E9
05EC A7                         and a
05ED 04            L05ED:       inc b
05EE C8                         ret z
05EF 3E 7F                      ld a,$7F
05F1 DB FE                      in a,($FE)
05F3 1F                         rra
05F4 D0                         ret nc
05F5 A9                         xor c
05F6 E6 20                      and $20
05F8 28 F3                      jr z,L05ED
05FA 79                         ld a,c
05FB 2F                         cpl
05FC 4F                         ld c,a
05FD E6 07                      and $07
05FF F6 08                      or $08
0601 D3 FE                      out ($FE),a
0603 37                         scf
0604 C9                         ret
0605 01 00 24      L0605:       ld bc,$2400
0608 3E 87                      ld a,$87
060A C3 EC 26                   jp L26EC
060D 01 4F 28      L060D:       ld bc,$284F
0610 3E 87                      ld a,$87
0612 C3 EC 26                   jp L26EC
0615 00                         nop
0616 00                         nop
0617 00                         nop
0618 00                         nop
0619 00                         nop
061A 8A                         adc a,d
061B 1C                         inc e
061C 8A                         adc a,d
061D 1C                         inc e
061E 8A                         adc a,d
061F 1C                         inc e
0620 8A                         adc a,d
0621 1C                         inc e
0622 8A                         adc a,d
0623 1C                         inc e
0624 8A                         adc a,d
0625 1C                         inc e
0626 8A                         adc a,d
0627 1C                         inc e
0628 8A                         adc a,d
0629 1C                         inc e
062A 8A                         adc a,d
062B 1C                         inc e
062C 8A                         adc a,d
062D 1C                         inc e
062E 8A                         adc a,d
062F 1C                         inc e
0630 8A                         adc a,d
0631 1C                         inc e
0632 8A                         adc a,d
0633 1C                         inc e
0634 8A                         adc a,d
0635 1C                         inc e
0636 8A                         adc a,d
0637 1C                         inc e
0638 8A                         adc a,d
0639 1C                         inc e
063A 8A                         adc a,d
063B 1C                         inc e
063C 8A                         adc a,d
063D 1C                         inc e
063E 8A                         adc a,d
063F 1C                         inc e
0640 8A                         adc a,d
0641 1C                         inc e
0642 00                         nop
0643 08                         ex af,af'
0644 B3                         or e
0645 25                         dec h
0646 8A                         adc a,d
0647 1C                         inc e
0648 8D                         adc a,l
0649 26 8A                      ld h,$8A
064B 1C                         inc e
064C 8A                         adc a,d
064D 1C                         inc e
064E 8A                         adc a,d
064F 1C                         inc e
0650 E8                         ret pe
0651 25                         dec h
0652 8A                         adc a,d
0653 1C                         inc e
0654 8A                         adc a,d
0655 1C                         inc e
0656 AF                         xor a
0657 25                         dec h
0658 8A                         adc a,d
0659 1C                         inc e
065A 31 2A 8D                   ld sp,$8D2A
065D 26 8A                      ld h,$8A
065F 1C                         inc e
0660 8D                         adc a,l
0661 26 8D                      ld h,$8D
0663 26 8D                      ld h,$8D
0665 26 8D                      ld h,$8D
0667 26 8D                      ld h,$8D
0669 26 8D                      ld h,$8D
066B 26 8D                      ld h,$8D
066D 26 8D                      ld h,$8D
066F 26 8D                      ld h,$8D
0671 26 8D                      ld h,$8D
0673 26 8A                      ld h,$8A
0675 1C                         inc e
0676 8A                         adc a,d
0677 1C                         inc e
0678 8A                         adc a,d
0679 1C                         inc e
067A 8A                         adc a,d
067B 1C                         inc e
067C 8A                         adc a,d
067D 1C                         inc e
067E 8A                         adc a,d
067F 1C                         inc e
0680 8D                         adc a,l
0681 26 C9                      ld h,$C9
0683 26 C9                      ld h,$C9
0685 26 C9                      ld h,$C9
0687 26 C9                      ld h,$C9
0689 26 C9                      ld h,$C9
068B 26 C9                      ld h,$C9
068D 26 C9                      ld h,$C9
068F 26 C9                      ld h,$C9
0691 26 C9                      ld h,$C9
0693 26 C9                      ld h,$C9
0695 26 C9                      ld h,$C9
0697 26 C9                      ld h,$C9
0699 26 C9                      ld h,$C9
069B 26 C9                      ld h,$C9
069D 26 C9                      ld h,$C9
069F 26 C9                      ld h,$C9
06A1 26 C9                      ld h,$C9
06A3 26 C9                      ld h,$C9
06A5 26 C9                      ld h,$C9
06A7 26 C9                      ld h,$C9
06A9 26 C9                      ld h,$C9
06AB 26 C9         L06AB:       ld h,$C9
06AD 26 C9                      ld h,$C9
06AF 26 C9                      ld h,$C9
06B1 26 C9                      ld h,$C9
06B3 26 C9                      ld h,$C9
06B5 26 8A                      ld h,$8A
06B7 1C                         inc e
06B8 8A                         adc a,d
06B9 1C                         inc e
06BA 8A                         adc a,d
06BB 1C                         inc e
06BC 8A                         adc a,d
06BD 1C                         inc e
06BE 8A                         adc a,d
06BF 1C                         inc e
06C0 8A                         adc a,d
06C1 1C                         inc e
06C2 C9                         ret
06C3 26 C9                      ld h,$C9
06C5 26 C9                      ld h,$C9
06C7 26 C9                      ld h,$C9
06C9 26 C9                      ld h,$C9
06CB 26 C9                      ld h,$C9
06CD 26 C9                      ld h,$C9
06CF 26 C9                      ld h,$C9
06D1 26 C9                      ld h,$C9
06D3 26 C9                      ld h,$C9
06D5 26 C9                      ld h,$C9
06D7 26 C9                      ld h,$C9
06D9 26 C9                      ld h,$C9
06DB 26 C9                      ld h,$C9
06DD 26 C9                      ld h,$C9
06DF 26 C9                      ld h,$C9
06E1 26 C9                      ld h,$C9
06E3 26 C9                      ld h,$C9
06E5 26 C9                      ld h,$C9
06E7 26 C9                      ld h,$C9
06E9 26 C9                      ld h,$C9
06EB 26 C9                      ld h,$C9
06ED 26 C9                      ld h,$C9
06EF 26 C9                      ld h,$C9
06F1 26 C9                      ld h,$C9
06F3 26 C9                      ld h,$C9
06F5 26 B8                      ld h,$B8
06F7 3A A5 25                   ld a,($25A5)
06FA 8A                         adc a,d
06FB 1C                         inc e
06FC 8A                         adc a,d
06FD 1C                         inc e
06FE 8A                         adc a,d
06FF 1C                         inc e
0700 8A                         adc a,d
0701 1C                         inc e
0702 5D                         ld e,l
0703 1D                         dec e
0704 8A                         adc a,d
0705 1C                         inc e
0706 8A                         adc a,d
0707 1C                         inc e
0708 8A                         adc a,d
0709 1C                         inc e
070A 8A                         adc a,d
070B 1C                         inc e
070C 8A                         adc a,d
070D 1C                         inc e
070E 02                         ld (bc),a
070F 3A 05 08                   ld a,($0805)
0712 8A                         adc a,d
0713 1C                         inc e
0714 05                         dec b
0715 08                         ex af,af'
0716 8A                         adc a,d
0717 1C                         inc e
0718 8A                         adc a,d
0719 1C                         inc e
071A 8A                         adc a,d
071B 1C                         inc e
071C 8A                         adc a,d
071D 1C                         inc e
071E 5A                         ld e,d
071F 10 8A                      djnz L06AB
0721 1C                         inc e
0722 8A                         adc a,d
0723 1C                         inc e
0724 8A                         adc a,d
0725 1C                         inc e
0726 8A                         adc a,d
0727 1C                         inc e
0728 8A                         adc a,d
0729 1C                         inc e
072A 8A                         adc a,d
072B 1C                         inc e
072C 8A                         adc a,d
072D 1C                         inc e
072E 8A                         adc a,d
072F 1C                         inc e
0730 8A                         adc a,d
0731 1C                         inc e
0732 8A                         adc a,d
0733 1C                         inc e
0734 53                         ld d,e
0735 39                         add hl,sp
0736 8A                         adc a,d
0737 1C                         inc e
0738 8A                         adc a,d
0739 1C                         inc e
073A 8A                         adc a,d
073B 1C                         inc e
073C 7E                         ld a,(hl)
073D 39                         add hl,sp
073E 8A                         adc a,d
073F 1C                         inc e
0740 8A                         adc a,d
0741 1C                         inc e
0742 8A                         adc a,d
0743 1C                         inc e
0744 8A                         adc a,d
0745 1C                         inc e
0746 8A                         adc a,d
0747 1C                         inc e
0748 8A                         adc a,d
0749 1C                         inc e
074A F8                         ret m
074B 25                         dec h
074C 51                         ld d,c
074D 26 44                      ld h,$44
074F 26 98                      ld h,$98
0751 08                         ex af,af'
0752 87                         add a,a
0753 08                         ex af,af'
0754 74                         ld (hl),h
0755 08                         ex af,af'
0756 7E                         ld a,(hl)
0757 08                         ex af,af'
0758 8A                         adc a,d
0759 1C                         inc e
075A 8A                         adc a,d
075B 1C                         inc e
075C 37                         scf
075D 2A 16 08                   ld hl,($0816)
0760 16 08                      ld d,$08
0762 16 08                      ld d,$08
0764 2A 08 2A                   ld hl,($2A08)
0767 08                         ex af,af'
0768 2A 08 2A                   ld hl,($2A08)
076B 08                         ex af,af'
076C 2A 08 2A                   ld hl,($2A08)
076F 08                         ex af,af'
0770 2A 08 2A                   ld hl,($2A08)
0773 08                         ex af,af'
0774 2A 08 2A                   ld hl,($2A08)
0777 08                         ex af,af'
0778 2A 08 2A                   ld hl,($2A08)
077B 08                         ex af,af'
077C 2A 08 24                   ld hl,($2408)
077F 08                         ex af,af'
0780 B3                         or e
0781 17                         rla
0782 1A                         ld a,(de)
0783 08                         ex af,af'
0784 20 08                      jr nz,L078E
0786 34                         inc (hl)
0787 08                         ex af,af'
0788 8D                         adc a,l
0789 26 8A                      ld h,$8A
078B 1C                         inc e
078C 8A                         adc a,d
078D 1C                         inc e
078E 8A            L078E:       adc a,d
078F 1C                         inc e
0790 8A                         adc a,d
0791 1C                         inc e
0792 8A                         adc a,d
0793 1C                         inc e
0794 8A                         adc a,d
0795 1C                         inc e
0796 8A                         adc a,d
0797 1C                         inc e
0798 8A                         adc a,d
0799 1C                         inc e
079A 8A                         adc a,d
079B 1C                         inc e
079C 8A                         adc a,d
079D 1C                         inc e
079E 8A                         adc a,d
079F 1C                         inc e
07A0 8A                         adc a,d
07A1 1C                         inc e
07A2 8A                         adc a,d
07A3 1C                         inc e
07A4 8A                         adc a,d
07A5 1C                         inc e
07A6 8A                         adc a,d
07A7 1C                         inc e
07A8 8A                         adc a,d
07A9 1C                         inc e
07AA 8A                         adc a,d
07AB 1C                         inc e
07AC 8A                         adc a,d
07AD 1C                         inc e
07AE 8A                         adc a,d
07AF 1C                         inc e
07B0 8A                         adc a,d
07B1 1C                         inc e
07B2 8A                         adc a,d
07B3 1C                         inc e
07B4 8A                         adc a,d
07B5 1C                         inc e
07B6 8A                         adc a,d
07B7 1C                         inc e
07B8 8A                         adc a,d
07B9 1C                         inc e
07BA 8A                         adc a,d
07BB 1C                         inc e
07BC 8A                         adc a,d
07BD 1C                         inc e
07BE 8A                         adc a,d
07BF 1C                         inc e
07C0 8A                         adc a,d
07C1 1C                         inc e
07C2 8A                         adc a,d
07C3 1C                         inc e
07C4 8A                         adc a,d
07C5 1C                         inc e
07C6 8A                         adc a,d
07C7 1C                         inc e
07C8 39                         add hl,sp
07C9 08                         ex af,af'
07CA 8A                         adc a,d
07CB 1C                         inc e
07CC 8A                         adc a,d
07CD 1C                         inc e
07CE 8A                         adc a,d
07CF 1C                         inc e
07D0 8A                         adc a,d
07D1 1C                         inc e
07D2 A5                         and l
07D3 08                         ex af,af'
07D4 8A                         adc a,d
07D5 1C                         inc e
07D6 8A                         adc a,d
07D7 1C                         inc e
07D8 8A                         adc a,d
07D9 1C                         inc e
07DA 8A                         adc a,d
07DB 1C                         inc e
07DC 12                         ld (de),a
07DD 08                         ex af,af'
07DE 8A                         adc a,d
07DF 1C                         inc e
07E0 8A                         adc a,d
07E1 1C                         inc e
07E2 8A                         adc a,d
07E3 1C                         inc e
07E4 8A                         adc a,d
07E5 1C                         inc e
07E6 09                         add hl,bc
07E7 08                         ex af,af'
07E8 8A                         adc a,d
07E9 1C                         inc e
07EA 8A                         adc a,d
07EB 1C                         inc e
07EC 8A                         adc a,d
07ED 1C                         inc e
07EE 8A                         adc a,d
07EF 1C                         inc e
07F0 8A                         adc a,d
07F1 1C                         inc e
07F2 8A                         adc a,d
07F3 1C                         inc e
07F4 8A                         adc a,d
07F5 1C                         inc e
07F6 8A                         adc a,d
07F7 1C                         inc e
07F8 8A                         adc a,d
07F9 1C                         inc e
07FA 8A                         adc a,d
07FB 1C                         inc e
07FC 8A                         adc a,d
07FD 1C                         inc e
07FE 8A                         adc a,d
07FF 1C                         inc e
0800 01 F2 04                   ld bc,$04F2
0803 18 2A                      jr L082F
0805 C6 69                      add a,$69
0807 18 23                      jr L082C
0809 0E F5                      ld c,$F5
080B E7                         rst $20
080C FE 23                      cp $23
080E 28 1D                      jr z,L082D
0810 CF                         rst $08
0811 0B                         dec bc
0812 0E F8                      ld c,$F8
0814 18 17                      jr L082D
0816 C6 ED                      add a,$ED
0818 18 12                      jr L082C
081A CD D4 27                   call L27D4
081D DA 70 09                   jp c,L0970
0820 C6 AD                      add a,$AD
0822 18 08                      jr L082C
0824 CD D4 27                   call L27D4
0827 DA C1 20                   jp c,L20C1
082A C6 2D                      add a,$2D
082C 4F            L082C:       ld c,a
082D 06 10         L082D:       ld b,$10
082F C5            L082F:       push bc
0830 E7                         rst $20
0831 C3 04 25                   jp L2504
0834 01 F0 04                   ld bc,$04F0
0837 18 F6                      jr L082F
0839 CD 30 25                   call L2530
083C 28 33                      jr z,L0871
083E 2A 57 5C                   ld hl,($5C57)
0841 3A 78 5B                   ld a,($5B78)
0844 F5                         push af
0845 E5                         push hl
0846 2A 5F 5C                   ld hl,($5C5F)
0849 E5                         push hl
084A 21 EF 34                   ld hl,$34EF
084D CD CD 32                   call L32CD
0850 F5                         push af
0851 DC F1 2B                   call c,L2BF1
0854 F1                         pop af
0855 01 00 00                   ld bc,$0000
0858 30 08                      jr nc,L0862
085A 03                         inc bc
085B FD CB 01 76                bit 6,(iy+$01)
085F 20 01                      jr nz,L0862
0861 03                         inc bc
0862 CD 2F 2D      L0862:       call L2D2F
0865 E1                         pop hl
0866 22 5F 5C                   ld ($5C5F),hl
0869 E1                         pop hl
086A F1                         pop af
086B 32 78 5B                   ld ($5B78),a
086E 22 57 5C                   ld ($5C57),hl
0871 C3 4D 26      L0871:       jp L264D
0874 CD 22 25                   call L2522
0877 C4 35 25                   call nz,L2535
087A E7                         rst $20
087B C3 DB 25                   jp L25DB
087E CD 22 25                   call L2522
0881 C4 80 25                   call nz,L2580
0884 E7                         rst $20
0885 18 0E                      jr L0895
0887 E7                         rst $20
0888 FE 23                      cp $23
088A 0E F4                      ld c,$F4
088C 28 9F                      jr z,L082D
088E CD 23 25                   call L2523
0891 C4 CB 22                   call nz,L22CB
0894 E7                         rst $20
0895 C3 C3 26      L0895:       jp L26C3
0898 3A 77 5B      L0898:       ld a,($5B77)
089B 57                         ld d,a
089C 21 2E 23      L089C:       ld hl,$232E
089F CD CD 32                   call L32CD
08A2 C3 12 27                   jp L2712
08A5 E7                         rst $20
08A6 FE 23                      cp $23
08A8 0E F6                      ld c,$F6
08AA 28 81                      jr z,L082D
08AC FE 28                      cp $28
08AE C2 F2 11      L08AE:       jp nz,L11F2
08B1 E7                         rst $20
08B2 CD B3 28                   call L28B3
08B5 DA 2E 1C                   jp c,L1C2E
08B8 20 F4                      jr nz,L08AE
08BA E5                         push hl
08BB C5                         push bc
08BC E7                         rst $20
08BD FE 29                      cp $29
08BF 20 ED                      jr nz,L08AE
08C1 E7                         rst $20
08C2 FE 2C                      cp $2C
08C4 3E 3A                      ld a,$3A
08C6 CC 5E 15                   call z,L155E
08C9 CD E2 1C                   call L1CE2
08CC DF                         rst $18
08CD FE 29                      cp $29
08CF 20 DD                      jr nz,L08AE
08D1 E7                         rst $20
08D2 C1                         pop bc
08D3 E1                         pop hl
08D4 CD 30 25                   call L2530
08D7 28 BC                      jr z,L0895
08D9 E5                         push hl
08DA C5                         push bc
08DB CD 94 1E                   call L1E94
08DE E1                         pop hl
08DF CB 7C                      bit 7,h
08E1 E1                         pop hl
08E2 23                         inc hl
08E3 0E 01                      ld c,$01
08E5 28 04                      jr z,L08EB
08E7 23                         inc hl
08E8 23                         inc hl
08E9 4E                         ld c,(hl)
08EA 23                         inc hl
08EB A7            L08EB:       and a
08EC 28 0B                      jr z,L08F9
08EE 3D                         dec a
08EF B9                         cp c
08F0 D2 25 2A                   jp nc,L2A25
08F3 87                         add a,a
08F4 ED 31                      add hl,a
08F6 4E                         ld c,(hl)
08F7 23                         inc hl
08F8 46                         ld b,(hl)
08F9 C3 7E 21      L08F9:       jp L217E
08FC 08            L08FC:       ex af,af'
08FD CB 6C                      bit 5,h
08FF 20 10                      jr nz,L0911
0901 3D                         dec a
0902 ED 92 51                   nextreg $51,a
0905 3C                         inc a
0906 08                         ex af,af'
0907 CB EC                      set 5,h
0909 7E                         ld a,(hl)
090A CB AC                      res 5,h
090C ED 91 51 FF   L090C:       nextreg $51,$FF
0910 C9                         ret
0911 ED 92 51      L0911:       nextreg $51,a
0914 08                         ex af,af'
0915 7E                         ld a,(hl)
0916 18 F4                      jr L090C
0918 21 92 5C      L0918:       ld hl,$5C92
091B E5                         push hl
091C 36 2A                      ld (hl),$2A
091E 23                         inc hl
091F 73                         ld (hl),e
0920 23                         inc hl
0921 72                         ld (hl),d
0922 23                         inc hl
0923 36 C9                      ld (hl),$C9
0925 C9                         ret
0926 EF                         rst $28
0927 C0                         ret nz
0928 02                         ld (bc),a
0929 31 1E E0                   ld sp,$E01E
092C 04                         inc b
092D 38 CD                      jr c,L08FC
092F A2                         and d
0930 2D                         dec l
0931 DA 9F 1E                   jp c,L1E9F
0934 08                         ex af,af'
0935 D9                         exx
0936 CD F1 2B                   call L2BF1
0939 EB                         ex de,hl
093A 50                         ld d,b
093B 59                         ld e,c
093C 08                         ex af,af'
093D 28 02                      jr z,L0941
093F 09                         add hl,bc
0940 2B                         dec hl
0941 D9            L0941:       exx
0942 08                         ex af,af'
0943 F7                         rst $30
0944 CD B2 2A                   call L2AB2
0947 78            L0947:       ld a,b
0948 B1                         or c
0949 CA BF 35                   jp z,L35BF
094C D9                         exx
094D 7A                         ld a,d
094E B3                         or e
094F 20 0E                      jr nz,L095F
0951 08                         ex af,af'
0952 50                         ld d,b
0953 59                         ld e,c
0954 28 03                      jr z,L0959
0956 09                         add hl,bc
0957 18 07                      jr L0960
0959 08            L0959:       ex af,af'
095A ED 42                      sbc hl,bc
095C 08                         ex af,af'
095D 18 01                      jr L0960
095F 08            L095F:       ex af,af'
0960 7E            L0960:       ld a,(hl)
0961 23                         inc hl
0962 1B                         dec de
0963 28 02                      jr z,L0967
0965 2B                         dec hl
0966 2B                         dec hl
0967 D9            L0967:       exx
0968 12                         ld (de),a
0969 13                         inc de
096A 0B                         dec bc
096B 08                         ex af,af'
096C 18 D9                      jr L0947
096E FF                         rst $38
096F C9                         ret
0970 DD 21 1F 36   L0970:       ld ix,$361F
0974 CA 9D 17                   jp z,L179D
0977 CB 76                      bit 6,(hl)
0979 CA 8A 1C                   jp z,L1C8A
097C CD 82 1C                   call L1C82
097F FE 2C                      cp $2C
0981 3E 3A                      ld a,$3A
0983 CC 5E 15                   call z,L155E
0986 CD E2 1C                   call L1CE2
0989 DF                         rst $18
098A FE 29                      cp $29
098C C2 8A 1C                   jp nz,L1C8A
098F E7                         rst $20
0990 CD 30 25                   call L2530
0993 CA DB 25                   jp z,L25DB
0996 CD 94 1E                   call L1E94
0999 F5                         push af
099A CD 94 1E                   call L1E94
099D FE 25                      cp $25
099F D2 F9 24                   jp nc,L24F9
09A2 FE 02                      cp $02
09A4 DA F9 24                   jp c,L24F9
09A7 CD 28 2D                   call L2D28
09AA EF                         rst $28
09AB C1                         pop bc
09AC 02                         ld (bc),a
09AD C3 2A C4                   jp LC42A
09B0 27                         daa
09B1 31 E4 01                   ld sp,$01E4
09B4 03                         inc bc
09B5 01 38 C3                   ld bc,$C338
09B8 CD 1D FF                   call LFF1D
09BB FF                         rst $38
09BC FF                         rst $38
09BD FF                         rst $38
09BE FF                         rst $38
09BF FF                         rst $38
09C0 AE                         xor (hl)
09C1 0D                         dec c
09C2 50                         ld d,b
09C3 72                         ld (hl),d
09C4 6F                         ld l,a
09C5 67                         ld h,a
09C6 72                         ld (hl),d
09C7 61                         ld h,c
09C8 6D                         ld l,l
09C9 3A A0 0D                   ld a,($0DA0)
09CC 4E                         ld c,(hl)
09CD 75                         ld (hl),l
09CE 6D                         ld l,l
09CF 62                         ld h,d
09D0 65                         ld h,l
09D1 72                         ld (hl),d
09D2 20 61                      jr nz,L0A35
09D4 72                         ld (hl),d
09D5 72                         ld (hl),d
09D6 61                         ld h,c
09D7 79                         ld a,c
09D8 3A A0 0D                   ld a,($0DA0)
09DB 43                         ld b,e
09DC 68                         ld l,b
09DD 61                         ld h,c
09DE 72                         ld (hl),d
09DF 61                         ld h,c
09E0 63                         ld h,e
09E1 74                         ld (hl),h
09E2 65                         ld h,l
09E3 72                         ld (hl),d
09E4 20 61                      jr nz,L0A47
09E6 72                         ld (hl),d
09E7 72                         ld (hl),d
09E8 61                         ld h,c
09E9 79                         ld a,c
09EA 3A A0 0D                   ld a,($0DA0)
09ED 42                         ld b,d
09EE 79                         ld a,c
09EF 74                         ld (hl),h
09F0 65                         ld h,l
09F1 73                         ld (hl),e
09F2 3A A0 CD                   ld a,($CDA0)
09F5 03                         inc bc
09F6 0B                         dec bc
09F7 FE 20                      cp $20
09F9 D2 D9 0A                   jp nc,L0AD9
09FC FE 06                      cp $06
09FE 38 69                      jr c,L0A69
0A00 FE 18                      cp $18
0A02 30 65                      jr nc,L0A69
0A04 21 0B 0A                   ld hl,$0A0B
0A07 5F                         ld e,a
0A08 16 00                      ld d,$00
0A0A 19                         add hl,de
0A0B 5E                         ld e,(hl)
0A0C 19                         add hl,de
0A0D E5                         push hl
0A0E C3 03 0B                   jp L0B03
0A11 4E                         ld c,(hl)
0A12 57                         ld d,a
0A13 10 29                      djnz L0A3E
0A15 54                         ld d,h
0A16 53                         ld d,e
0A17 52                         ld d,d
0A18 37                         scf
0A19 50                         ld d,b
0A1A 4F                         ld c,a
0A1B 5F                         ld e,a
0A1C 5E                         ld e,(hl)
0A1D 5D                         ld e,l
0A1E 5C                         ld e,h
0A1F 5B                         ld e,e
0A20 5A                         ld e,d
0A21 54                         ld d,h
0A22 53                         ld d,e
0A23 0C                         inc c
0A24 3E 22                      ld a,$22
0A26 B9                         cp c
0A27 20 11                      jr nz,L0A3A
0A29 FD CB 01 4E                bit 1,(iy+$01)
0A2D 20 09                      jr nz,L0A38
0A2F 04                         inc b
0A30 0E 02                      ld c,$02
0A32 3E 19                      ld a,$19
0A34 B8                         cp b
0A35 20 03         L0A35:       jr nz,L0A3A
0A37 05                         dec b
0A38 0E 21         L0A38:       ld c,$21
0A3A C3 D9 0D      L0A3A:       jp L0DD9
0A3D 3A 91 5C                   ld a,($5C91)
0A40 F5                         push af
0A41 FD 36 57 01                ld (iy+$57),$01
0A45 3E 20                      ld a,$20
0A47 CD D9 0A      L0A47:       call L0AD9
0A4A F1                         pop af
0A4B 32 91 5C                   ld ($5C91),a
0A4E C9                         ret
0A4F FD CB 01 4E                bit 1,(iy+$01)
0A53 C2 CD 0E                   jp nz,L0ECD
0A56 0E 21                      ld c,$21
0A58 CD 55 0C                   call L0C55
0A5B 05                         dec b
0A5C C3 D9 0D                   jp L0DD9
0A5F CD 03 0B                   call L0B03
0A62 79                         ld a,c
0A63 3D                         dec a
0A64 3D                         dec a
0A65 E6 10                      and $10
0A67 18 5A                      jr L0AC3
0A69 3E 3F         L0A69:       ld a,$3F
0A6B 18 6C                      jr L0AD9
0A6D 11 87 0A                   ld de,$0A87
0A70 32 0F 5C                   ld ($5C0F),a
0A73 18 0B                      jr L0A80
0A75 11 6D 0A                   ld de,$0A6D
0A78 18 03                      jr L0A7D
0A7A 11 87 0A                   ld de,$0A87
0A7D 32 0E 5C      L0A7D:       ld ($5C0E),a
0A80 2A 51 5C      L0A80:       ld hl,($5C51)
0A83 73                         ld (hl),e
0A84 23                         inc hl
0A85 72                         ld (hl),d
0A86 C9                         ret
0A87 11 F4 09                   ld de,$09F4
0A8A CD 80 0A                   call L0A80
0A8D 2A 0E 5C                   ld hl,($5C0E)
0A90 57                         ld d,a
0A91 7D                         ld a,l
0A92 FE 16                      cp $16
0A94 DA 11 22                   jp c,L2211
0A97 20 29                      jr nz,L0AC2
0A99 44                         ld b,h
0A9A 4A                         ld c,d
0A9B 3E 1F                      ld a,$1F
0A9D 91                         sub c
0A9E 38 0C                      jr c,L0AAC
0AA0 C6 02                      add a,$02
0AA2 4F                         ld c,a
0AA3 FD CB 01 4E                bit 1,(iy+$01)
0AA7 20 16                      jr nz,L0ABF
0AA9 3E 16                      ld a,$16
0AAB 90                         sub b
0AAC DA 9F 1E      L0AAC:       jp c,L1E9F
0AAF 3C                         inc a
0AB0 47                         ld b,a
0AB1 04                         inc b
0AB2 FD CB 02 46                bit 0,(iy+$02)
0AB6 C2 55 0C                   jp nz,L0C55
0AB9 FD BE 31                   cp (iy+$31)
0ABC DA 86 0C                   jp c,L0C86
0ABF C3 D9 0D      L0ABF:       jp L0DD9
0AC2 7C            L0AC2:       ld a,h
0AC3 CD 03 0B      L0AC3:       call L0B03
0AC6 81                         add a,c
0AC7 3D                         dec a
0AC8 E6 1F                      and $1F
0ACA C8                         ret z
0ACB 57                         ld d,a
0ACC FD CB 01 C6                set 0,(iy+$01)
0AD0 3E 20         L0AD0:       ld a,$20
0AD2 CD 3B 0C                   call L0C3B
0AD5 15                         dec d
0AD6 20 F8                      jr nz,L0AD0
0AD8 C9                         ret
0AD9 CD 24 0B      L0AD9:       call L0B24
0ADC FD CB 01 4E   L0ADC:       bit 1,(iy+$01)
0AE0 20 1A                      jr nz,L0AFC
0AE2 FD CB 02 46                bit 0,(iy+$02)
0AE6 20 08                      jr nz,L0AF0
0AE8 ED 43 88 5C                ld ($5C88),bc
0AEC 22 84 5C                   ld ($5C84),hl
0AEF C9                         ret
0AF0 ED 43 8A 5C   L0AF0:       ld ($5C8A),bc
0AF4 ED 43 82 5C                ld ($5C82),bc
0AF8 22 86 5C                   ld ($5C86),hl
0AFB C9                         ret
0AFC FD 71 45      L0AFC:       ld (iy+$45),c
0AFF 22 80 5C                   ld ($5C80),hl
0B02 C9                         ret
0B03 FD CB 01 4E   L0B03:       bit 1,(iy+$01)
0B07 20 14                      jr nz,L0B1D
0B09 ED 4B 88 5C                ld bc,($5C88)
0B0D 2A 84 5C                   ld hl,($5C84)
0B10 FD CB 02 46                bit 0,(iy+$02)
0B14 C8                         ret z
0B15 ED 4B 8A 5C                ld bc,($5C8A)
0B19 2A 86 5C                   ld hl,($5C86)
0B1C C9                         ret
0B1D FD 4E 45      L0B1D:       ld c,(iy+$45)
0B20 2A 80 5C                   ld hl,($5C80)
0B23 C9                         ret
0B24 FE 80         L0B24:       cp $80
0B26 38 3D                      jr c,L0B65
0B28 FE 90                      cp $90
0B2A 30 26                      jr nc,L0B52
0B2C 47                         ld b,a
0B2D CD 38 0B                   call L0B38
0B30 CD 03 0B                   call L0B03
0B33 11 92 5C                   ld de,$5C92
0B36 18 47                      jr L0B7F
0B38 21 92 5C      L0B38:       ld hl,$5C92
0B3B CD 3E 0B                   call L0B3E
0B3E CB 18         L0B3E:       rr b
0B40 9F                         sbc a,a
0B41 E6 0F                      and $0F
0B43 4F                         ld c,a
0B44 CB 18                      rr b
0B46 9F                         sbc a,a
0B47 E6 F0                      and $F0
0B49 B1                         or c
0B4A 0E 04                      ld c,$04
0B4C 77            L0B4C:       ld (hl),a
0B4D 23                         inc hl
0B4E 0D                         dec c
0B4F 20 FB                      jr nz,L0B4C
0B51 C9                         ret
0B52 C3 7E 38      L0B52:       jp L387E
0B55 00                         nop
0B56 C6 15         L0B56:       add a,$15
0B58 C5                         push bc
0B59 ED 4B 7B 5C                ld bc,($5C7B)
0B5D 18 0B                      jr L0B6A
0B5F CD 10 0C      L0B5F:       call L0C10
0B62 C3 03 0B                   jp L0B03
0B65 C5            L0B65:       push bc
0B66 ED 4B 36 5C                ld bc,($5C36)
0B6A EB            L0B6A:       ex de,hl
0B6B 21 3B 5C                   ld hl,$5C3B
0B6E CB 86                      res 0,(hl)
0B70 FE 20                      cp $20
0B72 20 02                      jr nz,L0B76
0B74 CB C6                      set 0,(hl)
0B76 26 00         L0B76:       ld h,$00
0B78 6F                         ld l,a
0B79 29                         add hl,hl
0B7A 29                         add hl,hl
0B7B 29                         add hl,hl
0B7C 09                         add hl,bc
0B7D C1                         pop bc
0B7E EB                         ex de,hl
0B7F 79            L0B7F:       ld a,c
0B80 3D                         dec a
0B81 3E 21                      ld a,$21
0B83 20 0E                      jr nz,L0B93
0B85 05                         dec b
0B86 4F                         ld c,a
0B87 FD CB 01 4E                bit 1,(iy+$01)
0B8B 28 06                      jr z,L0B93
0B8D D5                         push de
0B8E CD CD 0E                   call L0ECD
0B91 D1                         pop de
0B92 79                         ld a,c
0B93 B9            L0B93:       cp c
0B94 D5                         push de
0B95 CC 55 0C                   call z,L0C55
0B98 D1                         pop de
0B99 C5                         push bc
0B9A E5                         push hl
0B9B 3A 91 5C                   ld a,($5C91)
0B9E 06 FF                      ld b,$FF
0BA0 1F                         rra
0BA1 38 01                      jr c,L0BA4
0BA3 04                         inc b
0BA4 1F            L0BA4:       rra
0BA5 1F                         rra
0BA6 9F                         sbc a,a
0BA7 4F                         ld c,a
0BA8 3E 08                      ld a,$08
0BAA A7                         and a
0BAB FD CB 01 4E                bit 1,(iy+$01)
0BAF 28 05                      jr z,L0BB6
0BB1 FD CB 30 CE                set 1,(iy+$30)
0BB5 37                         scf
0BB6 EB            L0BB6:       ex de,hl
0BB7 08            L0BB7:       ex af,af'
0BB8 1A                         ld a,(de)
0BB9 A0                         and b
0BBA AE                         xor (hl)
0BBB A9                         xor c
0BBC 12                         ld (de),a
0BBD 08                         ex af,af'
0BBE 38 13                      jr c,L0BD3
0BC0 14                         inc d
0BC1 23            L0BC1:       inc hl
0BC2 3D                         dec a
0BC3 20 F2                      jr nz,L0BB7
0BC5 EB                         ex de,hl
0BC6 25                         dec h
0BC7 FD CB 01 4E                bit 1,(iy+$01)
0BCB CC DB 0B                   call z,L0BDB
0BCE E1                         pop hl
0BCF C1                         pop bc
0BD0 0D                         dec c
0BD1 23                         inc hl
0BD2 C9                         ret
0BD3 08            L0BD3:       ex af,af'
0BD4 3E 20                      ld a,$20
0BD6 83                         add a,e
0BD7 5F                         ld e,a
0BD8 08                         ex af,af'
0BD9 18 E6                      jr L0BC1
0BDB 7C            L0BDB:       ld a,h
0BDC 0F                         rrca
0BDD 0F                         rrca
0BDE 0F                         rrca
0BDF E6 03                      and $03
0BE1 F6 58                      or $58
0BE3 67                         ld h,a
0BE4 ED 5B 8F 5C                ld de,($5C8F)
0BE8 7E                         ld a,(hl)
0BE9 AB                         xor e
0BEA A2                         and d
0BEB AB                         xor e
0BEC FD CB 57 76                bit 6,(iy+$57)
0BF0 28 08                      jr z,L0BFA
0BF2 E6 C7                      and $C7
0BF4 CB 57                      bit 2,a
0BF6 20 02                      jr nz,L0BFA
0BF8 EE 38                      xor $38
0BFA FD CB 57 66   L0BFA:       bit 4,(iy+$57)
0BFE 28 08                      jr z,L0C08
0C00 E6 F8                      and $F8
0C02 CB 6F                      bit 5,a
0C04 20 02                      jr nz,L0C08
0C06 EE 07                      xor $07
0C08 77            L0C08:       ld (hl),a
0C09 C9                         ret
0C0A E5            L0C0A:       push hl
0C0B 26 00                      ld h,$00
0C0D E3                         ex (sp),hl
0C0E 18 04                      jr L0C14
0C10 11 95 00      L0C10:       ld de,$0095
0C13 F5                         push af
0C14 CD 41 0C      L0C14:       call L0C41
0C17 38 09                      jr c,L0C22
0C19 3E 20                      ld a,$20
0C1B FD CB 01 46                bit 0,(iy+$01)
0C1F CC 3B 0C                   call z,L0C3B
0C22 1A            L0C22:       ld a,(de)
0C23 E6 7F                      and $7F
0C25 CD 3B 0C                   call L0C3B
0C28 1A                         ld a,(de)
0C29 13                         inc de
0C2A 87                         add a,a
0C2B 30 F5                      jr nc,L0C22
0C2D D1                         pop de
0C2E FE 48                      cp $48
0C30 28 03                      jr z,L0C35
0C32 FE 82                      cp $82
0C34 D8                         ret c
0C35 7A            L0C35:       ld a,d
0C36 FE 03                      cp $03
0C38 D8                         ret c
0C39 3E 20                      ld a,$20
0C3B D5            L0C3B:       push de
0C3C D9                         exx
0C3D D7                         rst $10
0C3E D9                         exx
0C3F D1                         pop de
0C40 C9                         ret
0C41 F5            L0C41:       push af
0C42 EB                         ex de,hl
0C43 3C                         inc a
0C44 CB 7E         L0C44:       bit 7,(hl)
0C46 23                         inc hl
0C47 28 FB                      jr z,L0C44
0C49 3D                         dec a
0C4A 20 F8                      jr nz,L0C44
0C4C EB                         ex de,hl
0C4D F1                         pop af
0C4E FE 20                      cp $20
0C50 D8                         ret c
0C51 1A                         ld a,(de)
0C52 D6 41                      sub $41
0C54 C9                         ret
0C55 FD CB 01 4E   L0C55:       bit 1,(iy+$01)
0C59 C0                         ret nz
0C5A 11 D9 0D                   ld de,$0DD9
0C5D D5                         push de
0C5E 78                         ld a,b
0C5F FD CB 02 46                bit 0,(iy+$02)
0C63 C2 02 0D                   jp nz,L0D02
0C66 FD BE 31                   cp (iy+$31)
0C69 38 1B                      jr c,L0C86
0C6B C0                         ret nz
0C6C 18 1A                      jr L0C88
0C6E C5            L0C6E:       push bc
0C6F D5                         push de
0C70 CD D4 15                   call L15D4
0C73 F5                         push af
0C74 D9                         exx
0C75 CD 6E 0D                   call L0D6E
0C78 D9                         exx
0C79 F1                         pop af
0C7A D1                         pop de
0C7B 01 75 3E                   ld bc,$3E75
0C7E CD C5 32                   call L32C5
0C81 C1                         pop bc
0C82 C8                         ret z
0C83 AF                         xor a
0C84 C9                         ret
0C85 00                         nop
0C86 CF            L0C86:       rst $08
0C87 04                         inc b
0C88 FD 35 52      L0C88:       dec (iy+$52)
0C8B 20 45                      jr nz,L0CD2
0C8D 3E 18                      ld a,$18
0C8F 90                         sub b
0C90 32 8C 5C                   ld ($5C8C),a
0C93 2A 8F 5C                   ld hl,($5C8F)
0C96 E5                         push hl
0C97 3A 91 5C                   ld a,($5C91)
0C9A F5                         push af
0C9B 3E FD                      ld a,$FD
0C9D CD 01 16                   call L1601
0CA0 AF                         xor a
0CA1 11 F8 0C                   ld de,$0CF8
0CA4 CD 0A 0C                   call L0C0A
0CA7 00                         nop
0CA8 00                         nop
0CA9 00                         nop
0CAA 00                         nop
0CAB 21 3B 5C                   ld hl,$5C3B
0CAE CB DE                      set 3,(hl)
0CB0 CB AE                      res 5,(hl)
0CB2 D9                         exx
0CB3 CD 6E 0C                   call L0C6E
0CB6 D9                         exx
0CB7 FE 20                      cp $20
0CB9 28 45                      jr z,L0D00
0CBB FE E2                      cp $E2
0CBD 28 41                      jr z,L0D00
0CBF F6 20                      or $20
0CC1 FE 6E                      cp $6E
0CC3 28 3B                      jr z,L0D00
0CC5 3E FE                      ld a,$FE
0CC7 CD 01 16                   call L1601
0CCA F1                         pop af
0CCB 32 91 5C                   ld ($5C91),a
0CCE E1                         pop hl
0CCF 22 8F 5C                   ld ($5C8F),hl
0CD2 CD FE 0D      L0CD2:       call L0DFE
0CD5 FD 46 31                   ld b,(iy+$31)
0CD8 04                         inc b
0CD9 0E 21                      ld c,$21
0CDB C5                         push bc
0CDC CD 9B 0E                   call L0E9B
0CDF 7C                         ld a,h
0CE0 0F                         rrca
0CE1 0F                         rrca
0CE2 0F                         rrca
0CE3 E6 03                      and $03
0CE5 F6 58                      or $58
0CE7 67                         ld h,a
0CE8 11 E0 5A                   ld de,$5AE0
0CEB 1A                         ld a,(de)
0CEC 4E                         ld c,(hl)
0CED 06 20                      ld b,$20
0CEF EB                         ex de,hl
0CF0 12            L0CF0:       ld (de),a
0CF1 71                         ld (hl),c
0CF2 13                         inc de
0CF3 23                         inc hl
0CF4 10 FA                      djnz L0CF0
0CF6 C1                         pop bc
0CF7 C9                         ret
0CF8 80                         add a,b
0CF9 73                         ld (hl),e
0CFA 63                         ld h,e
0CFB 72                         ld (hl),d
0CFC 6F                         ld l,a
0CFD 6C                         ld l,h
0CFE 6C                         ld l,h
0CFF BF                         cp a
0D00 CF            L0D00:       rst $08
0D01 0C                         inc c
0D02 FE 02         L0D02:       cp $02
0D04 38 80                      jr c,L0C86
0D06 FD 86 31                   add a,(iy+$31)
0D09 D6 19                      sub $19
0D0B D0                         ret nc
0D0C ED 44                      neg
0D0E C5                         push bc
0D0F 47                         ld b,a
0D10 2A 8F 5C                   ld hl,($5C8F)
0D13 E5                         push hl
0D14 2A 91 5C                   ld hl,($5C91)
0D17 E5                         push hl
0D18 CD 4D 0D                   call L0D4D
0D1B 78                         ld a,b
0D1C F5            L0D1C:       push af
0D1D 21 6B 5C                   ld hl,$5C6B
0D20 46                         ld b,(hl)
0D21 78                         ld a,b
0D22 3C                         inc a
0D23 77                         ld (hl),a
0D24 21 89 5C                   ld hl,$5C89
0D27 BE                         cp (hl)
0D28 38 03                      jr c,L0D2D
0D2A 34                         inc (hl)
0D2B 06 18                      ld b,$18
0D2D CD 00 0E      L0D2D:       call L0E00
0D30 F1                         pop af
0D31 3D                         dec a
0D32 20 E8                      jr nz,L0D1C
0D34 E1                         pop hl
0D35 FD 75 57                   ld (iy+$57),l
0D38 E1                         pop hl
0D39 22 8F 5C                   ld ($5C8F),hl
0D3C ED 4B 88 5C                ld bc,($5C88)
0D40 FD CB 02 86                res 0,(iy+$02)
0D44 CD D9 0D                   call L0DD9
0D47 FD CB 02 C6                set 0,(iy+$02)
0D4B C1                         pop bc
0D4C C9                         ret
0D4D AF            L0D4D:       xor a
0D4E 2A 8D 5C                   ld hl,($5C8D)
0D51 FD CB 02 46                bit 0,(iy+$02)
0D55 28 04                      jr z,L0D5B
0D57 67                         ld h,a
0D58 FD 6E 0E                   ld l,(iy+$0E)
0D5B 22 8F 5C      L0D5B:       ld ($5C8F),hl
0D5E 21 91 5C                   ld hl,$5C91
0D61 20 02                      jr nz,L0D65
0D63 7E                         ld a,(hl)
0D64 0F                         rrca
0D65 AE            L0D65:       xor (hl)
0D66 E6 55                      and $55
0D68 AE                         xor (hl)
0D69 77                         ld (hl),a
0D6A C9                         ret
0D6B CD AF 0D                   call L0DAF
0D6E 21 3C 5C      L0D6E:       ld hl,$5C3C
0D71 CB AE                      res 5,(hl)
0D73 CB C6                      set 0,(hl)
0D75 CD 4D 0D                   call L0D4D
0D78 FD 46 31                   ld b,(iy+$31)
0D7B CD 44 0E                   call L0E44
0D7E 21 C0 5A                   ld hl,$5AC0
0D81 3A 8D 5C                   ld a,($5C8D)
0D84 05                         dec b
0D85 18 07                      jr L0D8E
0D87 0E 20         L0D87:       ld c,$20
0D89 2B            L0D89:       dec hl
0D8A 77                         ld (hl),a
0D8B 0D                         dec c
0D8C 20 FB                      jr nz,L0D89
0D8E 10 F7         L0D8E:       djnz L0D87
0D90 FD 36 31 02                ld (iy+$31),$02
0D94 3E FD         L0D94:       ld a,$FD
0D96 CD 01 16                   call L1601
0D99 2A 51 5C                   ld hl,($5C51)
0D9C 11 F4 09                   ld de,$09F4
0D9F A7                         and a
0DA0 73            L0DA0:       ld (hl),e
0DA1 23                         inc hl
0DA2 72                         ld (hl),d
0DA3 23                         inc hl
0DA4 11 A8 10                   ld de,$10A8
0DA7 3F                         ccf
0DA8 38 F6                      jr c,L0DA0
0DAA 01 21 17                   ld bc,$1721
0DAD 18 2A                      jr L0DD9
0DAF 21 00 00      L0DAF:       ld hl,$0000
0DB2 22 7D 5C                   ld ($5C7D),hl
0DB5 FD CB 30 86                res 0,(iy+$30)
0DB9 CD 94 0D                   call L0D94
0DBC 3E FE                      ld a,$FE
0DBE CD 01 16                   call L1601
0DC1 CD 4D 0D                   call L0D4D
0DC4 06 18                      ld b,$18
0DC6 CD 44 0E                   call L0E44
0DC9 2A 51 5C                   ld hl,($5C51)
0DCC 11 F4 09                   ld de,$09F4
0DCF 73                         ld (hl),e
0DD0 23                         inc hl
0DD1 72                         ld (hl),d
0DD2 FD 36 52 01                ld (iy+$52),$01
0DD6 01 21 18                   ld bc,$1821
0DD9 21 00 5B      L0DD9:       ld hl,$5B00
0DDC FD CB 01 4E                bit 1,(iy+$01)
0DE0 20 12                      jr nz,L0DF4
0DE2 78                         ld a,b
0DE3 FD CB 02 46                bit 0,(iy+$02)
0DE7 28 05                      jr z,L0DEE
0DE9 FD 86 31                   add a,(iy+$31)
0DEC D6 18                      sub $18
0DEE C5            L0DEE:       push bc
0DEF 47                         ld b,a
0DF0 CD 9B 0E                   call L0E9B
0DF3 C1                         pop bc
0DF4 3E 21         L0DF4:       ld a,$21
0DF6 91                         sub c
0DF7 5F                         ld e,a
0DF8 16 00                      ld d,$00
0DFA 19                         add hl,de
0DFB C3 DC 0A                   jp L0ADC
0DFE 06 17         L0DFE:       ld b,$17
0E00 CD 9B 0E      L0E00:       call L0E9B
0E03 0E 08                      ld c,$08
0E05 C5            L0E05:       push bc
0E06 E5                         push hl
0E07 78                         ld a,b
0E08 E6 07                      and $07
0E0A 78                         ld a,b
0E0B 20 0C                      jr nz,L0E19
0E0D EB            L0E0D:       ex de,hl
0E0E 21 E0 F8                   ld hl,$F8E0
0E11 19                         add hl,de
0E12 EB                         ex de,hl
0E13 01 20 00                   ld bc,$0020
0E16 3D                         dec a
0E17 ED B0                      ldir
0E19 EB            L0E19:       ex de,hl
0E1A 21 E0 FF                   ld hl,$FFE0
0E1D 19                         add hl,de
0E1E EB                         ex de,hl
0E1F 47                         ld b,a
0E20 E6 07                      and $07
0E22 0F                         rrca
0E23 0F                         rrca
0E24 0F                         rrca
0E25 4F                         ld c,a
0E26 78                         ld a,b
0E27 06 00                      ld b,$00
0E29 ED B0                      ldir
0E2B 06 07                      ld b,$07
0E2D 09                         add hl,bc
0E2E E6 F8                      and $F8
0E30 20 DB                      jr nz,L0E0D
0E32 E1                         pop hl
0E33 24                         inc h
0E34 C1                         pop bc
0E35 0D                         dec c
0E36 20 CD                      jr nz,L0E05
0E38 CD 88 0E                   call L0E88
0E3B 21 E0 FF                   ld hl,$FFE0
0E3E 19                         add hl,de
0E3F EB                         ex de,hl
0E40 ED B0                      ldir
0E42 06 01                      ld b,$01
0E44 C5            L0E44:       push bc
0E45 CD 9B 0E                   call L0E9B
0E48 0E 08                      ld c,$08
0E4A C5            L0E4A:       push bc
0E4B E5                         push hl
0E4C 78                         ld a,b
0E4D E6 07         L0E4D:       and $07
0E4F 0F                         rrca
0E50 0F                         rrca
0E51 0F                         rrca
0E52 4F                         ld c,a
0E53 78                         ld a,b
0E54 06 00                      ld b,$00
0E56 0D                         dec c
0E57 54                         ld d,h
0E58 5D                         ld e,l
0E59 36 00                      ld (hl),$00
0E5B 13                         inc de
0E5C ED B0                      ldir
0E5E 11 01 07                   ld de,$0701
0E61 19                         add hl,de
0E62 3D                         dec a
0E63 E6 F8                      and $F8
0E65 47                         ld b,a
0E66 20 E5                      jr nz,L0E4D
0E68 E1                         pop hl
0E69 24                         inc h
0E6A C1                         pop bc
0E6B 0D                         dec c
0E6C 20 DC                      jr nz,L0E4A
0E6E CD 88 0E                   call L0E88
0E71 62                         ld h,d
0E72 6B                         ld l,e
0E73 13                         inc de
0E74 3A 8D 5C                   ld a,($5C8D)
0E77 FD CB 02 46                bit 0,(iy+$02)
0E7B 28 03                      jr z,L0E80
0E7D 3A 48 5C                   ld a,($5C48)
0E80 77            L0E80:       ld (hl),a
0E81 0B                         dec bc
0E82 ED B0                      ldir
0E84 C1                         pop bc
0E85 0E 21                      ld c,$21
0E87 C9                         ret
0E88 7C            L0E88:       ld a,h
0E89 0F                         rrca
0E8A 0F                         rrca
0E8B 0F                         rrca
0E8C 3D                         dec a
0E8D F6 50                      or $50
0E8F 67                         ld h,a
0E90 EB                         ex de,hl
0E91 61                         ld h,c
0E92 68                         ld l,b
0E93 29                         add hl,hl
0E94 29                         add hl,hl
0E95 29                         add hl,hl
0E96 29                         add hl,hl
0E97 29                         add hl,hl
0E98 44                         ld b,h
0E99 4D                         ld c,l
0E9A C9                         ret
0E9B 3E 18         L0E9B:       ld a,$18
0E9D 90                         sub b
0E9E 57                         ld d,a
0E9F 0F                         rrca
0EA0 0F                         rrca
0EA1 0F                         rrca
0EA2 E6 E0                      and $E0
0EA4 6F                         ld l,a
0EA5 7A                         ld a,d
0EA6 E6 18                      and $18
0EA8 F6 40                      or $40
0EAA 67                         ld h,a
0EAB C9                         ret
0EAC 01 50 F6                   ld bc,$F650
0EAF CF                         rst $08
0EB0 92                         sub d
0EB1 C9                         ret
0EB2 E5            L0EB2:       push hl
0EB3 C5                         push bc
0EB4 CD F4 0E                   call L0EF4
0EB7 C1                         pop bc
0EB8 E1                         pop hl
0EB9 24                         inc h
0EBA 7C                         ld a,h
0EBB E6 07                      and $07
0EBD 20 0A                      jr nz,L0EC9
0EBF 7D                         ld a,l
0EC0 C6 20                      add a,$20
0EC2 6F                         ld l,a
0EC3 3F                         ccf
0EC4 9F                         sbc a,a
0EC5 E6 F8                      and $F8
0EC7 84                         add a,h
0EC8 67                         ld h,a
0EC9 10 E7         L0EC9:       djnz L0EB2
0ECB 18 0D                      jr L0EDA
0ECD 5F            L0ECD:       ld e,a
0ECE D6 A5                      sub $A5
0ED0 D2 10 0C                   jp nc,L0C10
0ED3 01 50 FB                   ld bc,$FB50
0ED6 CF                         rst $08
0ED7 92                         sub d
0ED8 C9                         ret
0ED9 F9                         ld sp,hl
0EDA 3E 04         L0EDA:       ld a,$04
0EDC D3 FB                      out ($FB),a
0EDE FB                         ei
0EDF 21 00 5B      L0EDF:       ld hl,$5B00
0EE2 FD 75 46                   ld (iy+$46),l
0EE5 AF                         xor a
0EE6 47                         ld b,a
0EE7 77            L0EE7:       ld (hl),a
0EE8 23                         inc hl
0EE9 10 FC                      djnz L0EE7
0EEB FD CB 30 8E                res 1,(iy+$30)
0EEF 0E 21                      ld c,$21
0EF1 C3 D9 0D                   jp L0DD9
0EF4 78            L0EF4:       ld a,b
0EF5 FE 03                      cp $03
0EF7 9F                         sbc a,a
0EF8 E6 02                      and $02
0EFA D3 FB                      out ($FB),a
0EFC 57                         ld d,a
0EFD CD 54 1F      L0EFD:       call L1F54
0F00 38 0A                      jr c,L0F0C
0F02 3E 04                      ld a,$04
0F04 D3 FB         L0F04:       out ($FB),a
0F06 FB                         ei
0F07 CD DF 0E                   call L0EDF
0F0A CF                         rst $08
0F0B 0C                         inc c
0F0C DB FB         L0F0C:       in a,($FB)
0F0E 87                         add a,a
0F0F F8                         ret m
0F10 30 EB                      jr nc,L0EFD
0F12 0E 20                      ld c,$20
0F14 5E            L0F14:       ld e,(hl)
0F15 23                         inc hl
0F16 06 08                      ld b,$08
0F18 CB 12         L0F18:       rl d
0F1A CB 13                      rl e
0F1C CB 1A                      rr d
0F1E DB FB         L0F1E:       in a,($FB)
0F20 1F                         rra
0F21 30 FB                      jr nc,L0F1E
0F23 7A                         ld a,d
0F24 D3 FB                      out ($FB),a
0F26 10 F0                      djnz L0F18
0F28 0D                         dec c
0F29 20 E9                      jr nz,L0F14
0F2B C9                         ret
0F2C 2A 3D 5C                   ld hl,($5C3D)
0F2F E5                         push hl
0F30 21 7F 10      L0F30:       ld hl,$107F
0F33 E5                         push hl
0F34 ED 73 3D 5C                ld ($5C3D),sp
0F38 CD D4 15                   call L15D4
0F3B F5                         push af
0F3C 16 00                      ld d,$00
0F3E FD 5E FF                   ld e,(iy-$01)
0F41 21 C8 00                   ld hl,$00C8
0F44 CD B5 03                   call L03B5
0F47 F1                         pop af
0F48 21 38 0F                   ld hl,$0F38
0F4B E5                         push hl
0F4C FE 18                      cp $18
0F4E 30 31                      jr nc,L0F81
0F50 FE 07                      cp $07
0F52 38 2D                      jr c,L0F81
0F54 FE 10                      cp $10
0F56 38 3A                      jr c,L0F92
0F58 01 02 00                   ld bc,$0002
0F5B 57                         ld d,a
0F5C FE 16                      cp $16
0F5E 38 0C                      jr c,L0F6C
0F60 03                         inc bc
0F61 FD CB 37 7E                bit 7,(iy+$37)
0F65 CA 1E 10                   jp z,L101E
0F68 CD D4 15                   call L15D4
0F6B 5F                         ld e,a
0F6C CD D4 15      L0F6C:       call L15D4
0F6F D5                         push de
0F70 2A 5B 5C                   ld hl,($5C5B)
0F73 FD CB 07 86                res 0,(iy+$07)
0F77 CD 55 16                   call L1655
0F7A C1                         pop bc
0F7B 23                         inc hl
0F7C 70                         ld (hl),b
0F7D 23                         inc hl
0F7E 71                         ld (hl),c
0F7F 18 0A                      jr L0F8B
0F81 FD CB 07 86   L0F81:       res 0,(iy+$07)
0F85 2A 5B 5C                   ld hl,($5C5B)
0F88 CD 52 16                   call L1652
0F8B 12            L0F8B:       ld (de),a
0F8C 13                         inc de
0F8D ED 53 5B 5C                ld ($5C5B),de
0F91 C9                         ret
0F92 5F            L0F92:       ld e,a
0F93 16 00                      ld d,$00
0F95 21 99 0F                   ld hl,$0F99
0F98 19                         add hl,de
0F99 5E                         ld e,(hl)
0F9A 19                         add hl,de
0F9B E5                         push hl
0F9C 2A 5B 5C                   ld hl,($5C5B)
0F9F C9                         ret
0FA0 09                         add hl,bc
0FA1 66                         ld h,(hl)
0FA2 6A                         ld l,d
0FA3 50                         ld d,b
0FA4 B5                         or l
0FA5 70                         ld (hl),b
0FA6 7E                         ld a,(hl)
0FA7 B2                         or d
0FA8 B1                         or c
0FA9 2A 49 5C                   ld hl,($5C49)
0FAC FD CB 37 6E                bit 5,(iy+$37)
0FB0 C3 97 10                   jp L1097
0FB3 FE 28         L0FB3:       cp $28
0FB5 3E 00                      ld a,$00
0FB7 20 10                      jr nz,L0FC9
0FB9 E7                         rst $20
0FBA CD 82 1C                   call L1C82
0FBD FE 29                      cp $29
0FBF C2 F2 11                   jp nz,L11F2
0FC2 E7                         rst $20
0FC3 CD 30 25                   call L2530
0FC6 C4 94 1E                   call nz,L1E94
0FC9 CD 30 25      L0FC9:       call L2530
0FCC CA C3 26                   jp z,L26C3
0FCF FE 04                      cp $04
0FD1 D2 F9 24                   jp nc,L24F9
0FD4 21 40 31                   ld hl,$3140
0FD7 87                         add a,a
0FD8 ED 31                      add hl,a
0FDA CD 05 27                   call L2705
0FDD 60                         ld h,b
0FDE 28 FE         L0FDE:       jr z,L0FDE
0FE0 02                         ld (bc),a
0FE1 28 02                      jr z,L0FE5
0FE3 16 00                      ld d,$00
0FE5 A7            L0FE5:       and a
0FE6 20 06                      jr nz,L0FEE
0FE8 7B                         ld a,e
0FE9 3C                         inc a
0FEA 20 02                      jr nz,L0FEE
0FEC 1E 64                      ld e,$64
0FEE 42            L0FEE:       ld b,d
0FEF 4B                         ld c,e
0FF0 C3 7E 21                   jp L217E
0FF3 18 0C                      jr L1001
0FF5 37            L0FF5:       scf
0FF6 20 06                      jr nz,L0FFE
0FF8 D5                         push de
0FF9 CD 81 1C                   call L1C81
0FFC D1                         pop de
0FFD A7                         and a
0FFE CB 12         L0FFE:       rl d
1000 C9                         ret
1001 FD 36 00 10   L1001:       ld (iy),$10
1005 18 1D                      jr L1024
1007 CD 31 10                   call L1031
100A 18 05                      jr L1011
100C 7E                         ld a,(hl)
100D FE 0D                      cp $0D
100F C8                         ret z
1010 23                         inc hl
1011 22 5B 5C      L1011:       ld ($5C5B),hl
1014 C9                         ret
1015 CD 31 10                   call L1031
1018 01 01 00                   ld bc,$0001
101B C3 E8 19                   jp L19E8
101E CD D4 15      L101E:       call L15D4
1021 CD D4 15                   call L15D4
1024 E1            L1024:       pop hl
1025 E1                         pop hl
1026 E1            L1026:       pop hl
1027 22 3D 5C                   ld ($5C3D),hl
102A FD CB 00 7E                bit 7,(iy)
102E C0                         ret nz
102F F9                         ld sp,hl
1030 C9                         ret
1031 37            L1031:       scf
1032 CD 95 11                   call L1195
1035 ED 52                      sbc hl,de
1037 19                         add hl,de
1038 23                         inc hl
1039 C1                         pop bc
103A D8                         ret c
103B C5                         push bc
103C 44                         ld b,h
103D 4D                         ld c,l
103E 62            L103E:       ld h,d
103F 6B                         ld l,e
1040 23                         inc hl
1041 1A                         ld a,(de)
1042 E6 F0                      and $F0
1044 FE 10                      cp $10
1046 20 09                      jr nz,L1051
1048 23                         inc hl
1049 1A                         ld a,(de)
104A D6 17                      sub $17
104C CE 00                      adc a,$00
104E 20 01                      jr nz,L1051
1050 23                         inc hl
1051 A7            L1051:       and a
1052 ED 42                      sbc hl,bc
1054 09                         add hl,bc
1055 EB                         ex de,hl
1056 38 E6                      jr c,L103E
1058 C9                         ret
1059 C9                         ret
105A E7                         rst $20
105B FE 24                      cp $24
105D C2 B3 0F                   jp nz,L0FB3
1060 11 89 20                   ld de,$2089
1063 E7            L1063:       rst $20
1064 CD 30 25                   call L2530
1067 C4 22 36                   call nz,L3622
106A FD CB 01 B6                res 6,(iy+$01)
106E C3 12 27                   jp L2712
1071 CD 94 1E                   call L1E94
1074 01 3B 24                   ld bc,$243B
1077 ED 79                      out (c),a
1079 04                         inc b
107A ED 78                      in a,(c)
107C C3 28 2D                   jp L2D28
107F FD CB 30 66                bit 4,(iy+$30)
1083 28 A1                      jr z,L1026
1085 FD 36 00 FF                ld (iy),$FF
1089 16 00                      ld d,$00
108B FD 5E FE                   ld e,(iy-$02)
108E 21 90 1A                   ld hl,$1A90
1091 CD B5 03                   call L03B5
1094 C3 30 0F                   jp L0F30
1097 E5            L1097:       push hl
1098 CD 90 11                   call L1190
109B 2B                         dec hl
109C CD E5 19                   call L19E5
109F 22 5B 5C                   ld ($5C5B),hl
10A2 FD 36 07 00                ld (iy+$07),$00
10A6 E1                         pop hl
10A7 C9                         ret
10A8 C3 AF 10                   jp L10AF
10AB 00                         nop
10AC 00                         nop
10AD 00                         nop
10AE 00                         nop
10AF A7            L10AF:       and a
10B0 FD CB 01 6E                bit 5,(iy+$01)
10B4 C8                         ret z
10B5 3A 08 5C                   ld a,($5C08)
10B8 FD CB 01 AE                res 5,(iy+$01)
10BC F5                         push af
10BD FD CB 02 6E                bit 5,(iy+$02)
10C1 C4 6E 0D                   call nz,L0D6E
10C4 F1                         pop af
10C5 FE 20                      cp $20
10C7 30 52                      jr nc,L111B
10C9 FE 10                      cp $10
10CB 30 2D                      jr nc,L10FA
10CD FE 06                      cp $06
10CF 30 0A                      jr nc,L10DB
10D1 47                         ld b,a
10D2 E6 01                      and $01
10D4 4F                         ld c,a
10D5 78                         ld a,b
10D6 1F                         rra
10D7 C6 12                      add a,$12
10D9 18 2A                      jr L1105
10DB 20 09         L10DB:       jr nz,L10E6
10DD 21 6A 5C                   ld hl,$5C6A
10E0 3E 08                      ld a,$08
10E2 AE                         xor (hl)
10E3 77                         ld (hl),a
10E4 18 0E                      jr L10F4
10E6 FE 0E         L10E6:       cp $0E
10E8 D8                         ret c
10E9 D6 0D                      sub $0D
10EB 21 41 5C                   ld hl,$5C41
10EE BE                         cp (hl)
10EF 77                         ld (hl),a
10F0 20 02                      jr nz,L10F4
10F2 36 00                      ld (hl),$00
10F4 FD CB 02 DE   L10F4:       set 3,(iy+$02)
10F8 BF                         cp a
10F9 C9                         ret
10FA 47            L10FA:       ld b,a
10FB E6 07                      and $07
10FD 4F                         ld c,a
10FE 3E 10                      ld a,$10
1100 CB 58                      bit 3,b
1102 20 01                      jr nz,L1105
1104 3C                         inc a
1105 FD 71 D3      L1105:       ld (iy-$2D),c
1108 11 0D 11                   ld de,$110D
110B 18 06                      jr L1113
110D 3A 0D 5C                   ld a,($5C0D)
1110 11 A8 10                   ld de,$10A8
1113 2A 4F 5C      L1113:       ld hl,($5C4F)
1116 23                         inc hl
1117 23                         inc hl
1118 73                         ld (hl),e
1119 23                         inc hl
111A 72                         ld (hl),d
111B 37            L111B:       scf
111C C9                         ret
111D CD 4D 0D                   call L0D4D
1120 FD CB 02 9E                res 3,(iy+$02)
1124 FD CB 02 AE                res 5,(iy+$02)
1128 2A 8A 5C                   ld hl,($5C8A)
112B E5                         push hl
112C 2A 3D 5C                   ld hl,($5C3D)
112F E5                         push hl
1130 21 67 11                   ld hl,$1167
1133 E5                         push hl
1134 ED 73 3D 5C                ld ($5C3D),sp
1138 2A 82 5C                   ld hl,($5C82)
113B E5                         push hl
113C 37                         scf
113D CD 95 11                   call L1195
1140 EB                         ex de,hl
1141 CD 7D 18                   call L187D
1144 EB                         ex de,hl
1145 CD E1 18                   call L18E1
1148 2A 8A 5C                   ld hl,($5C8A)
114B E3                         ex (sp),hl
114C EB                         ex de,hl
114D CD 4D 0D                   call L0D4D
1150 3A 8B 5C      L1150:       ld a,($5C8B)
1153 92                         sub d
1154 38 26                      jr c,L117C
1156 20 06                      jr nz,L115E
1158 7B                         ld a,e
1159 FD 96 50                   sub (iy+$50)
115C 30 1E                      jr nc,L117C
115E 3E 20         L115E:       ld a,$20
1160 D5                         push de
1161 CD F4 09                   call L09F4
1164 D1                         pop de
1165 18 E9                      jr L1150
1167 16 00                      ld d,$00
1169 FD 5E FE                   ld e,(iy-$02)
116C 21 90 1A                   ld hl,$1A90
116F CD B5 03                   call L03B5
1172 FD 36 00 FF                ld (iy),$FF
1176 ED 5B 8A 5C                ld de,($5C8A)
117A 18 02                      jr L117E
117C D1            L117C:       pop de
117D E1                         pop hl
117E E1            L117E:       pop hl
117F 22 3D 5C                   ld ($5C3D),hl
1182 C1                         pop bc
1183 D5                         push de
1184 CD D9 0D                   call L0DD9
1187 E1                         pop hl
1188 22 82 5C                   ld ($5C82),hl
118B FD 36 26 00                ld (iy+$26),$00
118F C9                         ret
1190 2A 61 5C      L1190:       ld hl,($5C61)
1193 2B                         dec hl
1194 A7                         and a
1195 ED 5B 61 5C   L1195:       ld de,($5C61)
1199 D8                         ret c
119A 2A 63 5C                   ld hl,($5C63)
119D C9                         ret
119E 00                         nop
119F 00                         nop
11A0 00                         nop
11A1 00                         nop
11A2 00                         nop
11A3 00                         nop
11A4 00                         nop
11A5 00                         nop
11A6 00                         nop
11A7 7E            L11A7:       ld a,(hl)
11A8 FE 0E                      cp $0E
11AA 01 06 00                   ld bc,$0006
11AD CC E8 19                   call z,L19E8
11B0 7E                         ld a,(hl)
11B1 23                         inc hl
11B2 FE 0D                      cp $0D
11B4 20 F1                      jr nz,L11A7
11B6 C9                         ret
11B7 0D            L11B7:       dec c
11B8 28 6B                      jr z,L1225
11BA FD CB 01 76                bit 6,(iy+$01)
11BE 28 32                      jr z,L11F2
11C0 E7                         rst $20
11C1 FE 28                      cp $28
11C3 20 2D                      jr nz,L11F2
11C5 E7                         rst $20
11C6 CD 30 25                   call L2530
11C9 20 29                      jr nz,L11F4
11CB CD FB 24                   call L24FB
11CE FE 2C                      cp $2C
11D0 20 20                      jr nz,L11F2
11D2 ED 5B 3B 5C                ld de,($5C3B)
11D6 16 01                      ld d,$01
11D8 E7            L11D8:       rst $20
11D9 D5                         push de
11DA CD FB 24                   call L24FB
11DD D1                         pop de
11DE 14                         inc d
11DF 28 11                      jr z,L11F2
11E1 3A 3B 5C                   ld a,($5C3B)
11E4 AB                         xor e
11E5 E6 40                      and $40
11E7 20 09                      jr nz,L11F2
11E9 DF                         rst $18
11EA FE 2C                      cp $2C
11EC 28 EA                      jr z,L11D8
11EE FE 29                      cp $29
11F0 28 2F                      jr z,L1221
11F2 CF            L11F2:       rst $08
11F3 0B                         dec bc
11F4 CD A2 2D      L11F4:       call L2DA2
11F7 38 07                      jr c,L1200
11F9 20 05                      jr nz,L1200
11FB 04                         inc b
11FC 05                         dec b
11FD 41                         ld b,c
11FE 28 02                      jr z,L1202
1200 06 FF         L1200:       ld b,$FF
1202 04            L1202:       inc b
1203 DF                         rst $18
1204 18 03                      jr L1209
1206 CD 4F 13      L1206:       call L134F
1209 10 FB         L1209:       djnz L1206
120B 22 5D 5C                   ld ($5C5D),hl
120E CD FB 24                   call L24FB
1211 FE 29                      cp $29
1213 28 0C                      jr z,L1221
1215 E7                         rst $20
1216 06 02         L1216:       ld b,$02
1218 CD 4F 13                   call L134F
121B 10 F9                      djnz L1216
121D ED 53 5D 5C                ld ($5C5D),de
1221 E7            L1221:       rst $20
1222 C3 13 27                   jp L2713
1225 FD CB 01 76   L1225:       bit 6,(iy+$01)
1229 20 C7                      jr nz,L11F2
122B 16 00                      ld d,$00
122D E7            L122D:       rst $20
122E 21 47 13                   ld hl,$1347
1231 01 08 00                   ld bc,$0008
1234 ED B1                      cpir
1236 20 1B                      jr nz,L1253
1238 59                         ld e,c
1239 ED 95                      setae
123B B2                         or d
123C 57                         ld d,a
123D 1F                         rra
123E 30 ED                      jr nc,L122D
1240 D5                         push de
1241 E7                         rst $20
1242 CD 8C 1C                   call L1C8C
1245 FE 2C                      cp $2C
1247 20 A9                      jr nz,L11F2
1249 E7                         rst $20
124A CD 8C 1C                   call L1C8C
124D FE 29                      cp $29
124F 20 A1                      jr nz,L11F2
1251 E7                         rst $20
1252 D1                         pop de
1253 FE 5D         L1253:       cp $5D
1255 20 9B                      jr nz,L11F2
1257 E7                         rst $20
1258 CD 30 25                   call L2530
125B CA 13 27                   jp z,L2713
125E 7A                         ld a,d
125F 87                         add a,a
1260 30 02                      jr nc,L1264
1262 F6 C0                      or $C0
1264 F5            L1264:       push af
1265 CB 4F                      bit 1,a
1267 28 1B                      jr z,L1284
1269 CD F1 2B                   call L2BF1
126C 78                         ld a,b
126D A7                         and a
126E 79                         ld a,c
126F 20 11                      jr nz,L1282
1271 D5                         push de
1272 F5                         push af
1273 CD F1 2B                   call L2BF1
1276 F1                         pop af
1277 E1                         pop hl
1278 04                         inc b
1279 05                         dec b
127A 47                         ld b,a
127B 20 05                      jr nz,L1282
127D 79                         ld a,c
127E A7                         and a
127F D9                         exx
1280 20 02                      jr nz,L1284
1282 CF            L1282:       rst $08
1283 09                         add hl,bc
1284 CD F1 2B      L1284:       call L2BF1
1287 E1            L1287:       pop hl
1288 78            L1288:       ld a,b
1289 B1                         or c
128A CA DB 25                   jp z,L25DB
128D CB 7C                      bit 7,h
128F 28 09                      jr z,L129A
1291 1A                         ld a,(de)
1292 FE 21                      cp $21
1294 30 04                      jr nc,L129A
1296 13                         inc de
1297 0B                         dec bc
1298 18 EE                      jr L1288
129A D5            L129A:       push de
129B CB 74                      bit 6,h
129D 28 1E                      jr z,L12BD
129F 2E FF                      ld l,$FF
12A1 CB 6C                      bit 5,h
12A3 28 02                      jr z,L12A7
12A5 2E 7F                      ld l,$7F
12A7 EB            L12A7:       ex de,hl
12A8 09                         add hl,bc
12A9 EB                         ex de,hl
12AA 1B                         dec de
12AB 1A            L12AB:       ld a,(de)
12AC A5                         and l
12AD FE 21                      cp $21
12AF 30 0C                      jr nc,L12BD
12B1 1B                         dec de
12B2 0B                         dec bc
12B3 2E FF                      ld l,$FF
12B5 CB AC                      res 5,h
12B7 78                         ld a,b
12B8 B1                         or c
12B9 20 F0                      jr nz,L12AB
12BB 18 CA                      jr L1287
12BD E5            L12BD:       push hl
12BE F7                         rst $30
12BF F1                         pop af
12C0 E1                         pop hl
12C1 D5                         push de
12C2 C5                         push bc
12C3 09                         add hl,bc
12C4 EB                         ex de,hl
12C5 09                         add hl,bc
12C6 EB                         ex de,hl
12C7 08                         ex af,af'
12C8 1B            L12C8:       dec de
12C9 2B                         dec hl
12CA 78                         ld a,b
12CB B1                         or c
12CC 28 71                      jr z,L133F
12CE 7E                         ld a,(hl)
12CF 08                         ex af,af'
12D0 CB 6F                      bit 5,a
12D2 28 06                      jr z,L12DA
12D4 CB AF                      res 5,a
12D6 08                         ex af,af'
12D7 E6 7F                      and $7F
12D9 08                         ex af,af'
12DA CB 67         L12DA:       bit 4,a
12DC 28 0E                      jr z,L12EC
12DE 08                         ex af,af'
12DF FE 61                      cp $61
12E1 38 08                      jr c,L12EB
12E3 FE 7B                      cp $7B
12E5 30 04                      jr nc,L12EB
12E7 E6 DF                      and $DF
12E9 18 10                      jr L12FB
12EB 08            L12EB:       ex af,af'
12EC CB 5F         L12EC:       bit 3,a
12EE 28 0C                      jr z,L12FC
12F0 08                         ex af,af'
12F1 FE 41                      cp $41
12F3 38 06                      jr c,L12FB
12F5 FE 5B                      cp $5B
12F7 30 02                      jr nc,L12FB
12F9 F6 20                      or $20
12FB 08            L12FB:       ex af,af'
12FC CB 4F         L12FC:       bit 1,a
12FE 28 23                      jr z,L1323
1300 08                         ex af,af'
1301 D9                         exx
1302 F5                         push af
1303 E5                         push hl
1304 D5                         push de
1305 C5                         push bc
1306 EB                         ex de,hl
1307 06 00                      ld b,$00
1309 ED B1                      cpir
130B 79                         ld a,c
130C C1                         pop bc
130D D1                         pop de
130E E1                         pop hl
130F 20 0F                      jr nz,L1320
1311 91                         sub c
1312 ED 44                      neg
1314 3D                         dec a
1315 B8                         cp b
1316 30 1A                      jr nc,L1332
1318 33                         inc sp
1319 33                         inc sp
131A E5                         push hl
131B ED 31                      add hl,a
131D 7E                         ld a,(hl)
131E E1                         pop hl
131F F5                         push af
1320 F1            L1320:       pop af
1321 D9                         exx
1322 08                         ex af,af'
1323 CB 57         L1323:       bit 2,a
1325 28 06                      jr z,L132D
1327 CB 97                      res 2,a
1329 08                         ex af,af'
132A F6 80                      or $80
132C 08                         ex af,af'
132D 08            L132D:       ex af,af'
132E 12                         ld (de),a
132F 0B            L132F:       dec bc
1330 18 96                      jr L12C8
1332 F1            L1332:       pop af
1333 D9                         exx
1334 F1                         pop af
1335 E3                         ex (sp),hl
1336 23                         inc hl
1337 E3                         ex (sp),hl
1338 F5                         push af
1339 E3                         ex (sp),hl
133A 2B                         dec hl
133B E3                         ex (sp),hl
133C 13                         inc de
133D 18 F0                      jr L132F
133F C1            L133F:       pop bc
1340 D1                         pop de
1341 CD B2 2A                   call L2AB2
1344 C3 12 27                   jp L2712
1347 28 5E                      jr z,L13A7
1349 2D                         dec l
134A 2B                         dec hl
134B 7E                         ld a,(hl)
134C 3E 3C                      ld a,$3C
134E C9                         ret
134F 54            L134F:       ld d,h
1350 5D                         ld e,l
1351 0E 00                      ld c,$00
1353 7E            L1353:       ld a,(hl)
1354 23                         inc hl
1355 FE 22                      cp $22
1357 28 15                      jr z,L136E
1359 FE 0E                      cp $0E
135B 28 19                      jr z,L1376
135D FE 28                      cp $28
135F 28 1B                      jr z,L137C
1361 FE 29                      cp $29
1363 28 1D                      jr z,L1382
1365 FE 2C                      cp $2C
1367 20 EA                      jr nz,L1353
1369 0C                         inc c
136A 0D                         dec c
136B 20 E6                      jr nz,L1353
136D C9                         ret
136E 7E            L136E:       ld a,(hl)
136F 23                         inc hl
1370 FE 22                      cp $22
1372 20 FA                      jr nz,L136E
1374 18 DD                      jr L1353
1376 ED 34 05 00   L1376:       add hl,$0005
137A 18 D7                      jr L1353
137C 0C            L137C:       inc c
137D F2 53 13                   jp p,L1353
1380 CF                         rst $08
1381 1F                         rra
1382 0D            L1382:       dec c
1383 F2 53 13                   jp p,L1353
1386 EB                         ex de,hl
1387 1B                         dec de
1388 06 01                      ld b,$01
138A C9                         ret
138B 00                         nop
138C 00                         nop
138D 00                         nop
138E 00                         nop
138F 00                         nop
1390 00                         nop
1391 80                         add a,b
1392 4F                         ld c,a
1393 CB 4E                      bit 1,(hl)
1395 45                         ld b,l
1396 58                         ld e,b
1397 54                         ld d,h
1398 20 77                      jr nz,L1411
139A 69                         ld l,c
139B 74                         ld (hl),h
139C 68                         ld l,b
139D 6F                         ld l,a
139E 75                         ld (hl),l
139F 74                         ld (hl),h
13A0 20 46                      jr nz,L13E8
13A2 4F                         ld c,a
13A3 D2 56 61                   jp nc,L6156
13A6 72                         ld (hl),d
13A7 69            L13A7:       ld l,c
13A8 61                         ld h,c
13A9 62                         ld h,d
13AA 6C                         ld l,h
13AB 65                         ld h,l
13AC 20 6E                      jr nz,L141C
13AE 6F                         ld l,a
13AF 74                         ld (hl),h
13B0 20 66                      jr nz,L1418
13B2 6F                         ld l,a
13B3 75                         ld (hl),l
13B4 6E                         ld l,(hl)
13B5 E4 53 75                   call po,L7553
13B8 62                         ld h,d
13B9 73                         ld (hl),e
13BA 63                         ld h,e
13BB 72                         ld (hl),d
13BC 69                         ld l,c
13BD 70                         ld (hl),b
13BE 74                         ld (hl),h
13BF 20 77                      jr nz,L1438
13C1 72                         ld (hl),d
13C2 6F                         ld l,a
13C3 6E                         ld l,(hl)
13C4 E7                         rst $20
13C5 4F                         ld c,a
13C6 75                         ld (hl),l
13C7 74                         ld (hl),h
13C8 20 6F                      jr nz,L1439
13CA 66                         ld h,(hl)
13CB 20 6D                      jr nz,L143A
13CD 65                         ld h,l
13CE 6D                         ld l,l
13CF 6F                         ld l,a
13D0 72                         ld (hl),d
13D1 F9                         ld sp,hl
13D2 4F                         ld c,a
13D3 75                         ld (hl),l
13D4 74                         ld (hl),h
13D5 20 6F                      jr nz,L1446
13D7 66                         ld h,(hl)
13D8 20 73                      jr nz,L144D
13DA 63                         ld h,e
13DB 72                         ld (hl),d
13DC 65                         ld h,l
13DD 65                         ld h,l
13DE EE 4E                      xor $4E
13E0 75                         ld (hl),l
13E1 6D                         ld l,l
13E2 62                         ld h,d
13E3 65                         ld h,l
13E4 72                         ld (hl),d
13E5 20 74                      jr nz,L145B
13E7 6F                         ld l,a
13E8 6F            L13E8:       ld l,a
13E9 20 62                      jr nz,L144D
13EB 69                         ld l,c
13EC E7                         rst $20
13ED 52                         ld d,d
13EE 45                         ld b,l
13EF 54                         ld d,h
13F0 55                         ld d,l
13F1 52                         ld d,d
13F2 4E                         ld c,(hl)
13F3 20 77                      jr nz,L146C
13F5 69                         ld l,c
13F6 74                         ld (hl),h
13F7 68                         ld l,b
13F8 6F                         ld l,a
13F9 75                         ld (hl),l
13FA 74                         ld (hl),h
13FB 20 47                      jr nz,L1444
13FD 4F                         ld c,a
13FE 53                         ld d,e
13FF 55                         ld d,l
1400 C2 45 6E                   jp nz,L6E45
1403 64                         ld h,h
1404 20 6F                      jr nz,L1475
1406 66                         ld h,(hl)
1407 20 66                      jr nz,L146F
1409 69                         ld l,c
140A 6C                         ld l,h
140B E5                         push hl
140C 53                         ld d,e
140D 54                         ld d,h
140E 4F                         ld c,a
140F 50                         ld d,b
1410 20 73                      jr nz,L1485
1412 74                         ld (hl),h
1413 61                         ld h,c
1414 74                         ld (hl),h
1415 65                         ld h,l
1416 6D                         ld l,l
1417 65                         ld h,l
1418 6E            L1418:       ld l,(hl)
1419 F4 49 6E                   call p,L6E49
141C 76            L141C:       halt
141D 61                         ld h,c
141E 6C                         ld l,h
141F 69                         ld l,c
1420 64                         ld h,h
1421 20 61                      jr nz,L1484
1423 72                         ld (hl),d
1424 67                         ld h,a
1425 75                         ld (hl),l
1426 6D                         ld l,l
1427 65                         ld h,l
1428 6E                         ld l,(hl)
1429 F4 49 6E                   call p,L6E49
142C 74                         ld (hl),h
142D 65                         ld h,l
142E 67                         ld h,a
142F 65                         ld h,l
1430 72                         ld (hl),d
1431 20 6F                      jr nz,L14A2
1433 75                         ld (hl),l
1434 74                         ld (hl),h
1435 20 6F                      jr nz,L14A6
1437 66                         ld h,(hl)
1438 20 72         L1438:       jr nz,L14AC
143A 61            L143A:       ld h,c
143B 6E                         ld l,(hl)
143C 67                         ld h,a
143D E5                         push hl
143E 4E                         ld c,(hl)
143F 6F                         ld l,a
1440 6E                         ld l,(hl)
1441 73                         ld (hl),e
1442 65                         ld h,l
1443 6E                         ld l,(hl)
1444 73            L1444:       ld (hl),e
1445 65                         ld h,l
1446 20 69         L1446:       jr nz,L14B1
1448 6E                         ld l,(hl)
1449 20 42                      jr nz,L148D
144B 41                         ld b,c
144C 53                         ld d,e
144D 49            L144D:       ld c,c
144E C3 42 52                   jp L5242
1451 45                         ld b,l
1452 41                         ld b,c
1453 4B                         ld c,e
1454 20 2D                      jr nz,L1483
1456 20 43                      jr nz,L149B
1458 4F                         ld c,a
1459 4E                         ld c,(hl)
145A 54                         ld d,h
145B 20 72         L145B:       jr nz,L14CF
145D 65                         ld h,l
145E 70                         ld (hl),b
145F 65                         ld h,l
1460 61                         ld h,c
1461 74                         ld (hl),h
1462 F3                         di
1463 4F                         ld c,a
1464 75                         ld (hl),l
1465 74                         ld (hl),h
1466 20 6F                      jr nz,L14D7
1468 66                         ld h,(hl)
1469 20 44                      jr nz,L14AF
146B 41                         ld b,c
146C 54            L146C:       ld d,h
146D C1                         pop bc
146E 49                         ld c,c
146F 6E            L146F:       ld l,(hl)
1470 76                         halt
1471 61                         ld h,c
1472 6C                         ld l,h
1473 69                         ld l,c
1474 64                         ld h,h
1475 20 66         L1475:       jr nz,L14DD
1477 69                         ld l,c
1478 6C                         ld l,h
1479 65                         ld h,l
147A 20 6E                      jr nz,L14EA
147C 61                         ld h,c
147D 6D                         ld l,l
147E E5                         push hl
147F 4E                         ld c,(hl)
1480 6F                         ld l,a
1481 20 72                      jr nz,L14F5
1483 6F            L1483:       ld l,a
1484 6F            L1484:       ld l,a
1485 6D            L1485:       ld l,l
1486 20 66                      jr nz,L14EE
1488 6F                         ld l,a
1489 72                         ld (hl),d
148A 20 6C                      jr nz,L14F8
148C 69                         ld l,c
148D 6E            L148D:       ld l,(hl)
148E E5                         push hl
148F 53                         ld d,e
1490 54                         ld d,h
1491 4F                         ld c,a
1492 50                         ld d,b
1493 20 69                      jr nz,L14FE
1495 6E                         ld l,(hl)
1496 20 49                      jr nz,L14E1
1498 4E                         ld c,(hl)
1499 50                         ld d,b
149A 55                         ld d,l
149B D4 46 4F      L149B:       call nc,L4F46
149E 52                         ld d,d
149F 20 77                      jr nz,L1518
14A1 69                         ld l,c
14A2 74            L14A2:       ld (hl),h
14A3 68                         ld l,b
14A4 6F                         ld l,a
14A5 75                         ld (hl),l
14A6 74            L14A6:       ld (hl),h
14A7 20 4E                      jr nz,L14F7
14A9 45                         ld b,l
14AA 58                         ld e,b
14AB D4 49 6E                   call nc,L6E49
14AE 76                         halt
14AF 61            L14AF:       ld h,c
14B0 6C                         ld l,h
14B1 69            L14B1:       ld l,c
14B2 64                         ld h,h
14B3 20 49                      jr nz,L14FE
14B5 2F                         cpl
14B6 4F                         ld c,a
14B7 20 64                      jr nz,L151D
14B9 65                         ld h,l
14BA 76                         halt
14BB 69                         ld l,c
14BC 63                         ld h,e
14BD E5                         push hl
14BE 49                         ld c,c
14BF 6E                         ld l,(hl)
14C0 76                         halt
14C1 61                         ld h,c
14C2 6C                         ld l,h
14C3 69                         ld l,c
14C4 64                         ld h,h
14C5 20 63                      jr nz,L152A
14C7 6F                         ld l,a
14C8 6C                         ld l,h
14C9 6F                         ld l,a
14CA 75                         ld (hl),l
14CB F2 42 52                   jp p,L5242
14CE 45                         ld b,l
14CF 41            L14CF:       ld b,c
14D0 4B                         ld c,e
14D1 20 69                      jr nz,L153C
14D3 6E                         ld l,(hl)
14D4 74                         ld (hl),h
14D5 6F                         ld l,a
14D6 20 70                      jr nz,L1548
14D8 72                         ld (hl),d
14D9 6F                         ld l,a
14DA 67                         ld h,a
14DB 72                         ld (hl),d
14DC 61                         ld h,c
14DD ED 52         L14DD:       sbc hl,de
14DF 41                         ld b,c
14E0 4D                         ld c,l
14E1 54            L14E1:       ld d,h
14E2 4F                         ld c,a
14E3 50                         ld d,b
14E4 20 6E                      jr nz,L1554
14E6 6F                         ld l,a
14E7 20 67                      jr nz,L1550
14E9 6F                         ld l,a
14EA 6F            L14EA:       ld l,a
14EB E4 53 74                   call po,L7453
14EE 61            L14EE:       ld h,c
14EF 74                         ld (hl),h
14F0 65                         ld h,l
14F1 6D                         ld l,l
14F2 65                         ld h,l
14F3 6E                         ld l,(hl)
14F4 74                         ld (hl),h
14F5 20 6C         L14F5:       jr nz,L1563
14F7 6F            L14F7:       ld l,a
14F8 73            L14F8:       ld (hl),e
14F9 F4 49 6E                   call p,L6E49
14FC 76                         halt
14FD 61                         ld h,c
14FE 6C            L14FE:       ld l,h
14FF 69                         ld l,c
1500 64                         ld h,h
1501 20 73                      jr nz,L1576
1503 74                         ld (hl),h
1504 72                         ld (hl),d
1505 65                         ld h,l
1506 61                         ld h,c
1507 ED 46                      im 0
1509 4E                         ld c,(hl)
150A 20 77                      jr nz,L1583
150C 69                         ld l,c
150D 74                         ld (hl),h
150E 68                         ld l,b
150F 6F                         ld l,a
1510 75                         ld (hl),l
1511 74                         ld (hl),h
1512 20 44                      jr nz,L1558
1514 45                         ld b,l
1515 C6 50                      add a,$50
1517 61                         ld h,c
1518 72            L1518:       ld (hl),d
1519 61                         ld h,c
151A 6D                         ld l,l
151B 65                         ld h,l
151C 74                         ld (hl),h
151D 65            L151D:       ld h,l
151E 72                         ld (hl),d
151F 20 65                      jr nz,L1586
1521 72                         ld (hl),d
1522 72                         ld (hl),d
1523 6F                         ld l,a
1524 F2 54 61                   jp p,L6154
1527 70                         ld (hl),b
1528 65                         ld h,l
1529 20 6C                      jr nz,L1597
152B 6F                         ld l,a
152C 61                         ld h,c
152D 64                         ld h,h
152E 69                         ld l,c
152F 6E                         ld l,(hl)
1530 67                         ld h,a
1531 20 65                      jr nz,L1598
1533 72                         ld (hl),d
1534 72                         ld (hl),d
1535 6F                         ld l,a
1536 F2 2C A0                   jp p,LA02C
1539 7F                         ld a,a
153A 20 31                      jr nz,L156D
153C 39            L153C:       add hl,sp
153D 38 32                      jr c,L1571
153F 20 53                      jr nz,L1594
1541 69                         ld l,c
1542 6E                         ld l,(hl)
1543 63                         ld h,e
1544 6C                         ld l,h
1545 61                         ld h,c
1546 69                         ld l,c
1547 72                         ld (hl),d
1548 20 52         L1548:       jr nz,L159C
154A 65                         ld h,l
154B 73                         ld (hl),e
154C 65                         ld h,l
154D 61                         ld h,c
154E 72                         ld (hl),d
154F 63                         ld h,e
1550 68            L1550:       ld l,b
1551 20 4C                      jr nz,L159F
1553 74                         ld (hl),h
1554 E4 2A 5D      L1554:       call po,L5D2A
1557 5C                         ld e,h
1558 C3 62 15      L1558:       jp L1562
155B 2A 5D 5C      L155B:       ld hl,($5C5D)
155E 23            L155E:       inc hl
155F 22 5D 5C      L155F:       ld ($5C5D),hl
1562 7E            L1562:       ld a,(hl)
1563 FE 21         L1563:       cp $21
1565 D0                         ret nc
1566 FE 0D                      cp $0D
1568 C8                         ret z
1569 23                         inc hl
156A FE 18                      cp $18
156C 30 F1                      jr nc,L155F
156E FE 10                      cp $10
1570 38 ED                      jr c,L155F
1572 FE 16                      cp $16
1574 38 E8                      jr c,L155E
1576 23            L1576:       inc hl
1577 18 E5                      jr L155E
1579 37            L1579:       scf
157A 14                         inc d
157B 15                         dec d
157C 28 03                      jr z,L1581
157E 24                         inc h
157F 25                         dec h
1580 C0                         ret nz
1581 42            L1581:       ld b,d
1582 4B                         ld c,e
1583 54            L1583:       ld d,h
1584 ED 30                      mul d,e
1586 14            L1586:       inc d
1587 15                         dec d
1588 C0                         ret nz
1589 7B                         ld a,e
158A 50                         ld d,b
158B 5D                         ld e,l
158C ED 30                      mul d,e
158E 14                         inc d
158F 15                         dec d
1590 C0                         ret nz
1591 83                         add a,e
1592 D8                         ret c
1593 55                         ld d,l
1594 59            L1594:       ld e,c
1595 ED 30                      mul d,e
1597 67            L1597:       ld h,a
1598 2E 00         L1598:       ld l,$00
159A 19                         add hl,de
159B D8                         ret c
159C 7C            L159C:       ld a,h
159D B5                         or l
159E C9                         ret
159F CD 30 25      L159F:       call L2530
15A2 C8                         ret z
15A3 C5                         push bc
15A4 D5                         push de
15A5 CD 79 15                   call L1579
15A8 D1                         pop de
15A9 C1                         pop bc
15AA D0                         ret nc
15AB C3 15 1F                   jp L1F15
15AE FF                         rst $38
15AF F4 09 A8                   call p,LA809
15B2 10 4B                      djnz L15FF
15B4 F4 09 C4                   call p,LC409
15B7 15                         dec d
15B8 53                         ld d,e
15B9 81                         add a,c
15BA 0F                         rrca
15BB C4 15 52                   call nz,L5215
15BE CD 0E C4                   call LC40E
15C1 15                         dec d
15C2 50                         ld d,b
15C3 80                         add a,b
15C4 CF                         rst $08
15C5 12                         ld (de),a
15C6 01 00 06                   ld bc,$0600
15C9 00                         nop
15CA 0B                         dec bc
15CB 00                         nop
15CC 01 00 01                   ld bc,$0100
15CF 00                         nop
15D0 06 00                      ld b,$00
15D2 10 00                      djnz L15D4
15D4 FD CB 02 6E   L15D4:       bit 5,(iy+$02)
15D8 20 04                      jr nz,L15DE
15DA FD CB 02 DE                set 3,(iy+$02)
15DE CD E6 15      L15DE:       call L15E6
15E1 D8                         ret c
15E2 28 FA                      jr z,L15DE
15E4 CF                         rst $08
15E5 07                         rlca
15E6 D9            L15E6:       exx
15E7 E5                         push hl
15E8 2A 51 5C                   ld hl,($5C51)
15EB 23                         inc hl
15EC 23                         inc hl
15ED 18 08                      jr L15F7
15EF 1E 30         L15EF:       ld e,$30
15F1 83                         add a,e
15F2 D9            L15F2:       exx
15F3 E5                         push hl
15F4 2A 51 5C                   ld hl,($5C51)
15F7 5E            L15F7:       ld e,(hl)
15F8 23                         inc hl
15F9 56                         ld d,(hl)
15FA EB                         ex de,hl
15FB CD 2C 16                   call L162C
15FE E1                         pop hl
15FF D9            L15FF:       exx
1600 C9                         ret
1601 87            L1601:       add a,a
1602 C6 16                      add a,$16
1604 6F                         ld l,a
1605 26 5C                      ld h,$5C
1607 5E                         ld e,(hl)
1608 23                         inc hl
1609 56                         ld d,(hl)
160A 7A                         ld a,d
160B B3                         or e
160C 20 02                      jr nz,L1610
160E CF            L160E:       rst $08
160F 17                         rla
1610 1B            L1610:       dec de
1611 2A 4F 5C                   ld hl,($5C4F)
1614 19                         add hl,de
1615 22 51 5C      L1615:       ld ($5C51),hl
1618 FD CB 30 A6                res 4,(iy+$30)
161C 23                         inc hl
161D 23                         inc hl
161E 23                         inc hl
161F 23                         inc hl
1620 4E                         ld c,(hl)
1621 21 2D 16                   ld hl,$162D
1624 CD DC 16                   call L16DC
1627 D0                         ret nc
1628 16 00                      ld d,$00
162A 5E                         ld e,(hl)
162B 19                         add hl,de
162C E9            L162C:       jp (hl)
162D 4B                         ld c,e
162E 06 53                      ld b,$53
1630 12                         ld (de),a
1631 50                         ld d,b
1632 1B                         dec de
1633 00                         nop
1634 FD CB 02 C6                set 0,(iy+$02)
1638 FD CB 01 AE                res 5,(iy+$01)
163C FD CB 30 E6                set 4,(iy+$30)
1640 18 04                      jr L1646
1642 FD CB 02 86                res 0,(iy+$02)
1646 FD CB 01 8E   L1646:       res 1,(iy+$01)
164A C3 4D 0D                   jp L0D4D
164D FD CB 01 CE                set 1,(iy+$01)
1651 C9                         ret
1652 01 01 00      L1652:       ld bc,$0001
1655 E5            L1655:       push hl
1656 CD 05 1F                   call L1F05
1659 E1                         pop hl
165A CD 86 3B                   call L3B86
165D 2A 65 5C                   ld hl,($5C65)
1660 EB                         ex de,hl
1661 ED B8                      lddr
1663 C9                         ret
1664 C3 86 3B                   jp L3B86
1667 CD EE 2A      L1667:       call L2AEE
166A E3                         ex (sp),hl
166B CD 9F 15                   call L159F
166E C1                         pop bc
166F 09                         add hl,bc
1670 23                         inc hl
1671 42                         ld b,d
1672 4B                         ld c,e
1673 EB                         ex de,hl
1674 CD B1 2A                   call L2AB1
1677 DF                         rst $18
1678 FE 29                      cp $29
167A 28 08                      jr z,L1684
167C FE 2C                      cp $2C
167E C2 25 2A                   jp nz,L2A25
1681 CD 52 2A      L1681:       call L2A52
1684 E7            L1684:       rst $20
1685 FE 28         L1685:       cp $28
1687 28 F8                      jr z,L1681
1689 FD CB 01 B6                res 6,(iy+$01)
168D C9                         ret
168E FF                         rst $38
168F 00                         nop
1690 00                         nop
1691 EB            L1691:       ex de,hl
1692 11 8F 16                   ld de,$168F
1695 7E            L1695:       ld a,(hl)
1696 E6 C0                      and $C0
1698 20 F7                      jr nz,L1691
169A 56                         ld d,(hl)
169B 23                         inc hl
169C 5E                         ld e,(hl)
169D C9                         ret
169E 2A 63 5C      L169E:       ld hl,($5C63)
16A1 2B                         dec hl
16A2 CD 55 16                   call L1655
16A5 23                         inc hl
16A6 23                         inc hl
16A7 C1                         pop bc
16A8 ED 43 61 5C                ld ($5C61),bc
16AC C1                         pop bc
16AD EB                         ex de,hl
16AE 23                         inc hl
16AF C9                         ret
16B0 2A 59 5C                   ld hl,($5C59)
16B3 36 0D                      ld (hl),$0D
16B5 22 5B 5C                   ld ($5C5B),hl
16B8 23                         inc hl
16B9 36 80                      ld (hl),$80
16BB 23                         inc hl
16BC 22 61 5C                   ld ($5C61),hl
16BF 2A 61 5C                   ld hl,($5C61)
16C2 22 63 5C                   ld ($5C63),hl
16C5 2A 63 5C      L16C5:       ld hl,($5C63)
16C8 22 65 5C                   ld ($5C65),hl
16CB E5                         push hl
16CC 21 92 5C                   ld hl,$5C92
16CF 22 68 5C                   ld ($5C68),hl
16D2 E1                         pop hl
16D3 C9                         ret
16D4 ED 5B 59 5C                ld de,($5C59)
16D8 C3 E5 19                   jp L19E5
16DB 23            L16DB:       inc hl
16DC 7E            L16DC:       ld a,(hl)
16DD A7                         and a
16DE C8                         ret z
16DF B9                         cp c
16E0 23                         inc hl
16E1 20 F8                      jr nz,L16DB
16E3 37                         scf
16E4 C9                         ret
16E5 CD 1E 17                   call L171E
16E8 CD 01 17                   call L1701
16EB 01 00 00                   ld bc,$0000
16EE 11 E2 A3                   ld de,$A3E2
16F1 EB                         ex de,hl
16F2 19                         add hl,de
16F3 38 07                      jr c,L16FC
16F5 01 D4 15                   ld bc,$15D4
16F8 09                         add hl,bc
16F9 4E                         ld c,(hl)
16FA 23                         inc hl
16FB 46                         ld b,(hl)
16FC EB            L16FC:       ex de,hl
16FD 71                         ld (hl),c
16FE 23                         inc hl
16FF 70                         ld (hl),b
1700 C9                         ret
1701 E5            L1701:       push hl
1702 2A 4F 5C                   ld hl,($5C4F)
1705 09                         add hl,bc
1706 23                         inc hl
1707 23                         inc hl
1708 23                         inc hl
1709 4E                         ld c,(hl)
170A EB                         ex de,hl
170B 21 16 17                   ld hl,$1716
170E CD DC 16                   call L16DC
1711 4E                         ld c,(hl)
1712 06 00                      ld b,$00
1714 09                         add hl,bc
1715 E9                         jp (hl)
1716 4B                         ld c,e
1717 05                         dec b
1718 53                         ld d,e
1719 03                         inc bc
171A 50                         ld d,b
171B 01 E1 C9                   ld bc,$C9E1
171E CD 94 1E      L171E:       call L1E94
1721 FE 10                      cp $10
1723 38 02                      jr c,L1727
1725 CF            L1725:       rst $08
1726 17                         rla
1727 C6 03         L1727:       add a,$03
1729 07                         rlca
172A 21 10 5C                   ld hl,$5C10
172D 4F                         ld c,a
172E 06 00                      ld b,$00
1730 09                         add hl,bc
1731 4E                         ld c,(hl)
1732 23                         inc hl
1733 46                         ld b,(hl)
1734 2B                         dec hl
1735 C9                         ret
1736 EF                         rst $28
1737 01 38 CD                   ld bc,$CD38
173A 1E 17                      ld e,$17
173C 78                         ld a,b
173D B1                         or c
173E 28 16                      jr z,L1756
1740 EB                         ex de,hl
1741 2A 4F 5C                   ld hl,($5C4F)
1744 09                         add hl,bc
1745 23                         inc hl
1746 23                         inc hl
1747 23                         inc hl
1748 7E                         ld a,(hl)
1749 EB                         ex de,hl
174A FE 4B                      cp $4B
174C 28 08                      jr z,L1756
174E FE 53                      cp $53
1750 28 04                      jr z,L1756
1752 FE 50                      cp $50
1754 20 CF                      jr nz,L1725
1756 CD 5D 17      L1756:       call L175D
1759 73                         ld (hl),e
175A 23                         inc hl
175B 72                         ld (hl),d
175C C9                         ret
175D E5            L175D:       push hl
175E CD F1 2B                   call L2BF1
1761 78                         ld a,b
1762 B1                         or c
1763 20 02                      jr nz,L1767
1765 CF            L1765:       rst $08
1766 0E C5                      ld c,$C5
1768 1A                         ld a,(de)
1769 E6 DF                      and $DF
176B 4F                         ld c,a
176C 21 7A 17                   ld hl,$177A
176F CD DC 16                   call L16DC
1772 30 F1                      jr nc,L1765
1774 4E                         ld c,(hl)
1775 06 00                      ld b,$00
1777 09                         add hl,bc
1778 C1                         pop bc
1779 E9                         jp (hl)
177A 4B                         ld c,e
177B 06 53                      ld b,$53
177D 08                         ex af,af'
177E 50                         ld d,b
177F 0A                         ld a,(bc)
1780 00                         nop
1781 1E 01                      ld e,$01
1783 18 06                      jr L178B
1785 1E 06                      ld e,$06
1787 18 02                      jr L178B
1789 1E 10                      ld e,$10
178B 0B            L178B:       dec bc
178C 78                         ld a,b
178D B1                         or c
178E 20 D5                      jr nz,L1765
1790 57                         ld d,a
1791 E1                         pop hl
1792 C9                         ret
1793 3E FF         L1793:       ld a,$FF
1795 CB 76                      bit 6,(hl)
1797 CB F6                      set 6,(hl)
1799 28 0C                      jr z,L17A7
179B CF            L179B:       rst $08
179C 0B                         dec bc
179D 3E BF         L179D:       ld a,$BF
179F 18 02                      jr L17A3
17A1 3E FF         L17A1:       ld a,$FF
17A3 CB 76         L17A3:       bit 6,(hl)
17A5 28 F4                      jr z,L179B
17A7 A6            L17A7:       and (hl)
17A8 77                         ld (hl),a
17A9 FC 13 00                   call m,L0013
17AC C3 12 27                   jp L2712
17AF 7A            L17AF:       ld a,d
17B0 A7                         and a
17B1 18 02                      jr L17B5
17B3 37                         scf
17B4 9F                         sbc a,a
17B5 F5            L17B5:       push af
17B6 D5                         push de
17B7 CD D4 27                   call L27D4
17BA D1                         pop de
17BB 38 2C                      jr c,L17E9
17BD E5                         push hl
17BE E7                         rst $20
17BF FE 24                      cp $24
17C1 E1                         pop hl
17C2 28 11                      jr z,L17D5
17C4 22 5D 5C                   ld ($5C5D),hl
17C7 F1                         pop af
17C8 30 05                      jr nc,L17CF
17CA 0E ED                      ld c,$ED
17CC C3 2D 08      L17CC:       jp L082D
17CF 1E C0         L17CF:       ld e,$C0
17D1 57                         ld d,a
17D2 C3 77 39                   jp L3977
17D5 CD D4 27      L17D5:       call L27D4
17D8 38 20                      jr c,L17FA
17DA F1                         pop af
17DB 0E 77                      ld c,$77
17DD 38 ED                      jr c,L17CC
17DF 1E 24                      ld e,$24
17E1 57                         ld d,a
17E2 01 40 10                   ld bc,$1040
17E5 D5                         push de
17E6 C3 2F 08                   jp L082F
17E9 D1            L17E9:       pop de
17EA 20 16                      jr nz,L1802
17EC DD 21 88 21                ld ix,$2188
17F0 CB 76                      bit 6,(hl)
17F2 20 AD                      jr nz,L17A1
17F4 DD 21 BC 34                ld ix,$34BC
17F8 18 99                      jr L1793
17FA DD 21 84 21   L17FA:       ld ix,$2184
17FE D1                         pop de
17FF 28 9C                      jr z,L179D
1801 A7                         and a
1802 D5            L1802:       push de
1803 F5                         push af
1804 CB 76                      bit 6,(hl)
1806 CA 8A 1C                   jp z,L1C8A
1809 CD FB 24                   call L24FB
180C F1                         pop af
180D 21 3B 5C                   ld hl,$5C3B
1810 CB 76                      bit 6,(hl)
1812 F5                         push af
1813 20 07                      jr nz,L181C
1815 CB 7E                      bit 7,(hl)
1817 C4 F1 2B                   call nz,L2BF1
181A 18 05                      jr L1821
181C CB 7E         L181C:       bit 7,(hl)
181E C4 99 1E                   call nz,L1E99
1821 C5            L1821:       push bc
1822 D5                         push de
1823 FD CB 01 7E                bit 7,(iy+$01)
1827 C4 99 1E                   call nz,L1E99
182A C5                         push bc
182B 0E 00                      ld c,$00
182D DF            L182D:       rst $18
182E FE 2C                      cp $2C
1830 20 19                      jr nz,L184B
1832 E7                         rst $20
1833 CB 61                      bit 4,c
1835 C2 8A 1C                   jp nz,L1C8A
1838 C5                         push bc
1839 D5                         push de
183A CD FB 24                   call L24FB
183D D1                         pop de
183E C1                         pop bc
183F 0C                         inc c
1840 3A 3B 5C                   ld a,($5C3B)
1843 87                         add a,a
1844 87                         add a,a
1845 CB 1A                      rr d
1847 CB 1B                      rr e
1849 18 E2                      jr L182D
184B FE 29         L184B:       cp $29
184D C2 8A 1C                   jp nz,L1C8A
1850 E7                         rst $20
1851 EB                         ex de,hl
1852 79                         ld a,c
1853 D9                         exx
1854 E1                         pop hl
1855 D9                         exx
1856 D1                         pop de
1857 C1                         pop bc
1858 D9                         exx
1859 4F                         ld c,a
185A F1                         pop af
185B 79                         ld a,c
185C D1                         pop de
185D CD 99 21                   call L2199
1860 C3 12 27                   jp L2712
1863 FF                         rst $38
1864 FF                         rst $38
1865 FF                         rst $38
1866 FF                         rst $38
1867 FF                         rst $38
1868 FF                         rst $38
1869 FF                         rst $38
186A FF                         rst $38
186B FF                         rst $38
186C FF                         rst $38
186D FF                         rst $38
186E FF                         rst $38
186F FF                         rst $38
1870 FF                         rst $38
1871 FF                         rst $38
1872 FF                         rst $38
1873 FF                         rst $38
1874 FF                         rst $38
1875 FF                         rst $38
1876 FF                         rst $38
1877 FF                         rst $38
1878 FF                         rst $38
1879 FF                         rst $38
187A FF                         rst $38
187B FF                         rst $38
187C FF                         rst $38
187D FD CB 01 C6   L187D:       set 0,(iy+$01)
1881 D5                         push de
1882 EB                         ex de,hl
1883 FD CB 30 96                res 2,(iy+$30)
1887 21 3B 5C                   ld hl,$5C3B
188A CB 96                      res 2,(hl)
188C FD CB 37 6E                bit 5,(iy+$37)
1890 28 02                      jr z,L1894
1892 CB D6                      set 2,(hl)
1894 2A 5F 5C      L1894:       ld hl,($5C5F)
1897 A7                         and a
1898 ED 52                      sbc hl,de
189A 20 05                      jr nz,L18A1
189C 3E 3F                      ld a,$3F
189E CD C1 18                   call L18C1
18A1 CD E1 18      L18A1:       call L18E1
18A4 EB                         ex de,hl
18A5 7E                         ld a,(hl)
18A6 CD B6 18                   call L18B6
18A9 23                         inc hl
18AA FE 0D                      cp $0D
18AC 28 06                      jr z,L18B4
18AE EB                         ex de,hl
18AF CD 37 19                   call L1937
18B2 18 E0                      jr L1894
18B4 D1            L18B4:       pop de
18B5 C9                         ret
18B6 FE 0E         L18B6:       cp $0E
18B8 C0                         ret nz
18B9 23                         inc hl
18BA 23                         inc hl
18BB 23                         inc hl
18BC 23                         inc hl
18BD 23                         inc hl
18BE 23                         inc hl
18BF 7E                         ld a,(hl)
18C0 C9                         ret
18C1 D9            L18C1:       exx
18C2 2A 8F 5C                   ld hl,($5C8F)
18C5 E5                         push hl
18C6 CB BC                      res 7,h
18C8 CB FD                      set 7,l
18CA 22 8F 5C                   ld ($5C8F),hl
18CD 21 91 5C                   ld hl,$5C91
18D0 56                         ld d,(hl)
18D1 D5                         push de
18D2 36 00                      ld (hl),$00
18D4 CD F4 09                   call L09F4
18D7 E1                         pop hl
18D8 FD 74 57                   ld (iy+$57),h
18DB E1                         pop hl
18DC 22 8F 5C                   ld ($5C8F),hl
18DF D9                         exx
18E0 C9                         ret
18E1 2A 5B 5C      L18E1:       ld hl,($5C5B)
18E4 A7                         and a
18E5 ED 52                      sbc hl,de
18E7 C0                         ret nz
18E8 3A 41 5C                   ld a,($5C41)
18EB CB 07                      rlc a
18ED 28 04                      jr z,L18F3
18EF C6 43                      add a,$43
18F1 18 16                      jr L1909
18F3 21 3B 5C      L18F3:       ld hl,$5C3B
18F6 CB 9E                      res 3,(hl)
18F8 3E 4B                      ld a,$4B
18FA CB 56                      bit 2,(hl)
18FC 28 0B                      jr z,L1909
18FE CB DE                      set 3,(hl)
1900 3C                         inc a
1901 FD CB 30 5E                bit 3,(iy+$30)
1905 28 02                      jr z,L1909
1907 3E 43                      ld a,$43
1909 D5            L1909:       push de
190A CD C1 18                   call L18C1
190D D1                         pop de
190E C9                         ret
190F 5E                         ld e,(hl)
1910 23                         inc hl
1911 56                         ld d,(hl)
1912 E5                         push hl
1913 EB                         ex de,hl
1914 23                         inc hl
1915 CD 6E 19                   call L196E
1918 CD 95 16                   call L1695
191B E1                         pop hl
191C C9                         ret
191D 00                         nop
191E 00                         nop
191F 00                         nop
1920 00                         nop
1921 00                         nop
1922 00                         nop
1923 00                         nop
1924 00                         nop
1925 7B            L1925:       ld a,e
1926 A7                         and a
1927 F8                         ret m
1928 18 0D                      jr L1937
192A AF            L192A:       xor a
192B 09            L192B:       add hl,bc
192C 3C                         inc a
192D 38 FC                      jr c,L192B
192F ED 42                      sbc hl,bc
1931 3D                         dec a
1932 28 F1                      jr z,L1925
1934 C3 EF 15                   jp L15EF
1937 CD 1B 2D      L1937:       call L2D1B
193A 30 30                      jr nc,L196C
193C FE 21                      cp $21
193E 38 2C                      jr c,L196C
1940 FD CB 01 96                res 2,(iy+$01)
1944 FE CB                      cp $CB
1946 28 24                      jr z,L196C
1948 FE 3A                      cp $3A
194A 20 0E                      jr nz,L195A
194C 18 1A                      jr L1968
194E 00                         nop
194F 00                         nop
1950 00                         nop
1951 00                         nop
1952 00                         nop
1953 00                         nop
1954 00                         nop
1955 00                         nop
1956 00                         nop
1957 00                         nop
1958 00                         nop
1959 00                         nop
195A FE 22         L195A:       cp $22
195C 20 0A                      jr nz,L1968
195E F5                         push af
195F 3A 6A 5C                   ld a,($5C6A)
1962 EE 04                      xor $04
1964 32 6A 5C                   ld ($5C6A),a
1967 F1                         pop af
1968 FD CB 01 D6   L1968:       set 2,(iy+$01)
196C D7            L196C:       rst $10
196D C9                         ret
196E E5            L196E:       push hl
196F 2A 53 5C                   ld hl,($5C53)
1972 54                         ld d,h
1973 5D                         ld e,l
1974 C1                         pop bc
1975 CD 80 19      L1975:       call L1980
1978 D0                         ret nc
1979 E5                         push hl
197A CD C6 19                   call L19C6
197D D1                         pop de
197E 18 F5                      jr L1975
1980 7E            L1980:       ld a,(hl)
1981 B8                         cp b
1982 C0                         ret nz
1983 23                         inc hl
1984 7E                         ld a,(hl)
1985 2B                         dec hl
1986 B9                         cp c
1987 C9                         ret
1988 23                         inc hl
1989 23                         inc hl
198A 23                         inc hl
198B 22 5D 5C      L198B:       ld ($5C5D),hl
198E 0E 00                      ld c,$00
1990 15            L1990:       dec d
1991 C8                         ret z
1992 E7                         rst $20
1993 BB                         cp e
1994 20 04                      jr nz,L199A
1996 A7                         and a
1997 C9                         ret
1998 23            L1998:       inc hl
1999 7E                         ld a,(hl)
199A CD B6 18      L199A:       call L18B6
199D 22 5D 5C                   ld ($5C5D),hl
19A0 FE 22                      cp $22
19A2 20 01                      jr nz,L19A5
19A4 0D                         dec c
19A5 FE 3A         L19A5:       cp $3A
19A7 28 04                      jr z,L19AD
19A9 FE CB                      cp $CB
19AB 20 04                      jr nz,L19B1
19AD CB 41         L19AD:       bit 0,c
19AF 28 DF                      jr z,L1990
19B1 FE 0D         L19B1:       cp $0D
19B3 20 E3                      jr nz,L1998
19B5 15                         dec d
19B6 37                         scf
19B7 C9                         ret
19B8 E5                         push hl
19B9 3E 3F                      ld a,$3F
19BB BE                         cp (hl)
19BC D4 C6 19                   call nc,L19C6
19BF DC 48 1A                   call c,L1A48
19C2 D1                         pop de
19C3 C3 DD 19                   jp L19DD
19C6 23            L19C6:       inc hl
19C7 23                         inc hl
19C8 5E                         ld e,(hl)
19C9 23                         inc hl
19CA 56                         ld d,(hl)
19CB 23                         inc hl
19CC 19                         add hl,de
19CD C9                         ret
19CE ED 8A 5B 48   L19CE:       push $5B48
19D2 E5                         push hl
19D3 C3 4D 5B                   jp L5B4D
19D6 FF                         rst $38
19D7 FF                         rst $38
19D8 FF                         rst $38
19D9 FF                         rst $38
19DA FF                         rst $38
19DB FF                         rst $38
19DC FF                         rst $38
19DD A7            L19DD:       and a
19DE ED 52                      sbc hl,de
19E0 44                         ld b,h
19E1 4D                         ld c,l
19E2 19                         add hl,de
19E3 EB                         ex de,hl
19E4 C9                         ret
19E5 CD DD 19      L19E5:       call L19DD
19E8 C5            L19E8:       push bc
19E9 78                         ld a,b
19EA 2F                         cpl
19EB 47                         ld b,a
19EC 79                         ld a,c
19ED 2F                         cpl
19EE 4F                         ld c,a
19EF 03                         inc bc
19F0 CD 86 3B                   call L3B86
19F3 EB                         ex de,hl
19F4 E1                         pop hl
19F5 19                         add hl,de
19F6 D5                         push de
19F7 ED B0                      ldir
19F9 E1                         pop hl
19FA C9                         ret
19FB 2A 59 5C                   ld hl,($5C59)
19FE 2B                         dec hl
19FF 22 5D 5C                   ld ($5C5D),hl
1A02 E7                         rst $20
1A03 21 92 5C                   ld hl,$5C92
1A06 22 65 5C                   ld ($5C65),hl
1A09 CD 3B 2D                   call L2D3B
1A0C CD A2 2D                   call L2DA2
1A0F 38 04                      jr c,L1A15
1A11 21 F0 D8                   ld hl,$D8F0
1A14 09                         add hl,bc
1A15 DA 8A 1C      L1A15:       jp c,L1C8A
1A18 C3 C5 16                   jp L16C5
1A1B D5            L1A1B:       push de
1A1C E5                         push hl
1A1D AF                         xor a
1A1E CB 78                      bit 7,b
1A20 20 20                      jr nz,L1A42
1A22 60                         ld h,b
1A23 69                         ld l,c
1A24 1E FF                      ld e,$FF
1A26 18 08                      jr L1A30
1A28 D5                         push de
1A29 56                         ld d,(hl)
1A2A 23                         inc hl
1A2B 5E                         ld e,(hl)
1A2C E5                         push hl
1A2D EB                         ex de,hl
1A2E 1E 20                      ld e,$20
1A30 01 18 FC      L1A30:       ld bc,$FC18
1A33 CD 2A 19                   call L192A
1A36 01 9C FF                   ld bc,$FF9C
1A39 CD 2A 19                   call L192A
1A3C 0E F6                      ld c,$F6
1A3E CD 2A 19                   call L192A
1A41 7D                         ld a,l
1A42 CD EF 15      L1A42:       call L15EF
1A45 E1                         pop hl
1A46 D1                         pop de
1A47 C9                         ret
1A48 7E            L1A48:       ld a,(hl)
1A49 FE 7F                      cp $7F
1A4B 28 1B                      jr z,L1A68
1A4D CB 6F                      bit 5,a
1A4F 28 1D                      jr z,L1A6E
1A51 87                         add a,a
1A52 FA 5D 1A                   jp m,L1A5D
1A55 23            L1A55:       inc hl
1A56 7E                         ld a,(hl)
1A57 87                         add a,a
1A58 30 FB                      jr nc,L1A55
1A5A 87                         add a,a
1A5B 87                         add a,a
1A5C 3F                         ccf
1A5D 11 06 00      L1A5D:       ld de,$0006
1A60 D2 73 1A                   jp nc,L1A73
1A63 1E 13                      ld e,$13
1A65 C3 73 1A                   jp L1A73
1A68 23            L1A68:       inc hl
1A69 23            L1A69:       inc hl
1A6A CB 7E                      bit 7,(hl)
1A6C 28 FB                      jr z,L1A69
1A6E 23            L1A6E:       inc hl
1A6F 5E                         ld e,(hl)
1A70 23                         inc hl
1A71 56                         ld d,(hl)
1A72 23                         inc hl
1A73 19            L1A73:       add hl,de
1A74 C9                         ret
1A75 D9            L1A75:       exx
1A76 E5                         push hl
1A77 D9                         exx
1A78 D1                         pop de
1A79 13                         inc de
1A7A 23            L1A7A:       inc hl
1A7B 1A            L1A7B:       ld a,(de)
1A7C 13                         inc de
1A7D FE 20                      cp $20
1A7F 28 FA                      jr z,L1A7B
1A81 F6 20                      or $20
1A83 BE                         cp (hl)
1A84 28 F4                      jr z,L1A7A
1A86 F6 80                      or $80
1A88 BE                         cp (hl)
1A89 28 05                      jr z,L1A90
1A8B E6 DF                      and $DF
1A8D BE                         cp (hl)
1A8E 37                         scf
1A8F C0                         ret nz
1A90 1A            L1A90:       ld a,(de)
1A91 13                         inc de
1A92 FE 20                      cp $20
1A94 28 FA                      jr z,L1A90
1A96 C3 88 2C                   jp L2C88
1A99 3B                         dec sp
1A9A 3B                         dec sp
1A9B 3B                         dec sp
1A9C 3B                         dec sp
1A9D 3B                         dec sp
1A9E 3B                         dec sp
1A9F 3B                         dec sp
1AA0 3B                         dec sp
1AA1 3B                         dec sp
1AA2 3B                         dec sp
1AA3 3B                         dec sp
1AA4 3B                         dec sp
1AA5 3B                         dec sp
1AA6 3B                         dec sp
1AA7 3B                         dec sp
1AA8 3B                         dec sp
1AA9 3B                         dec sp
1AAA 3B                         dec sp
1AAB 3B                         dec sp
1AAC 3B                         dec sp
1AAD 3B                         dec sp
1AAE 3B                         dec sp
1AAF 3B                         dec sp
1AB0 3B                         dec sp
1AB1 3B                         dec sp
1AB2 3B                         dec sp
1AB3 3B                         dec sp
1AB4 3B                         dec sp
1AB5 3B                         dec sp
1AB6 3B                         dec sp
1AB7 3B                         dec sp
1AB8 3B                         dec sp
1AB9 3B                         dec sp
1ABA 3B                         dec sp
1ABB 3B                         dec sp
1ABC 3B                         dec sp
1ABD 3B                         dec sp
1ABE 3B                         dec sp
1ABF FD 3B                      dec sp
1AC1 3B                         dec sp
1AC2 3B                         dec sp
1AC3 C4 CF 3B                   call nz,L3BCF
1AC6 C3 3B C5                   jp LC53B
1AC9 3B                         dec sp
1ACA 3B                         dec sp
1ACB 3B                         dec sp
1ACC 3B                         dec sp
1ACD 3B                         dec sp
1ACE 3B                         dec sp
1ACF 3B                         dec sp
1AD0 3B                         dec sp
1AD1 3B                         dec sp
1AD2 3B                         dec sp
1AD3 3B                         dec sp
1AD4 3B                         dec sp
1AD5 CD CE CC                   call LCCCE
1AD8 00                         nop
1AD9 3B                         dec sp
1ADA 3B                         dec sp
1ADB 3B                         dec sp
1ADC 3B                         dec sp
1ADD 3B                         dec sp
1ADE 3B                         dec sp
1ADF 3B                         dec sp
1AE0 3B                         dec sp
1AE1 3B                         dec sp
1AE2 3B                         dec sp
1AE3 3B                         dec sp
1AE4 3B                         dec sp
1AE5 3B                         dec sp
1AE6 3B                         dec sp
1AE7 3B                         dec sp
1AE8 3B                         dec sp
1AE9 3B                         dec sp
1AEA 3B                         dec sp
1AEB 3B                         dec sp
1AEC 3B                         dec sp
1AED 3B                         dec sp
1AEE 3B                         dec sp
1AEF 3B                         dec sp
1AF0 3B                         dec sp
1AF1 3B                         dec sp
1AF2 3B                         dec sp
1AF3 3B                         dec sp
1AF4 01 3B 3B                   ld bc,$3B3B
1AF7 C6 3B                      add a,$3B
1AF9 3B                         dec sp
1AFA 3B                         dec sp
1AFB 3B                         dec sp
1AFC 3B                         dec sp
1AFD 3B                         dec sp
1AFE 3B                         dec sp
1AFF 3B                         dec sp
1B00 3B                         dec sp
1B01 3B                         dec sp
1B02 3B                         dec sp
1B03 3B                         dec sp
1B04 3B                         dec sp
1B05 3B                         dec sp
1B06 3B                         dec sp
1B07 3B                         dec sp
1B08 3B                         dec sp
1B09 3B                         dec sp
1B0A 3B                         dec sp
1B0B 3B                         dec sp
1B0C 3B                         dec sp
1B0D 3B                         dec sp
1B0E 3B                         dec sp
1B0F 3B                         dec sp
1B10 3B                         dec sp
1B11 3B                         dec sp
1B12 3B                         dec sp
1B13 3B                         dec sp
1B14 3B                         dec sp
1B15 FE 3B                      cp $3B
1B17 3B                         dec sp
1B18 3B                         dec sp
1B19 3B                         dec sp
1B1A 3B                         dec sp
1B1B 3B                         dec sp
1B1C 3B                         dec sp
1B1D 3B                         dec sp
1B1E 3B                         dec sp
1B1F 3B                         dec sp
1B20 3B                         dec sp
1B21 3B                         dec sp
1B22 3B                         dec sp
1B23 3B                         dec sp
1B24 FC C1 C2                   call m,LC2C1
1B27 3B                         dec sp
1B28 3B                         dec sp
1B29 3B                         dec sp
1B2A 3B                         dec sp
1B2B 3B                         dec sp
1B2C 3B                         dec sp
1B2D 3B                         dec sp
1B2E 3B                         dec sp
1B2F 3B                         dec sp
1B30 3B                         dec sp
1B31 3B                         dec sp
1B32 3B                         dec sp
1B33 3B                         dec sp
1B34 3B                         dec sp
1B35 3B                         dec sp
1B36 3B                         dec sp
1B37 3B                         dec sp
1B38 3B                         dec sp
1B39 3B                         dec sp
1B3A 3B                         dec sp
1B3B 3B                         dec sp
1B3C 3B                         dec sp
1B3D 3B                         dec sp
1B3E 3B                         dec sp
1B3F 3B                         dec sp
1B40 3B                         dec sp
1B41 3B                         dec sp
1B42 3B                         dec sp
1B43 3B                         dec sp
1B44 3B                         dec sp
1B45 3B                         dec sp
1B46 3B                         dec sp
1B47 3B                         dec sp
1B48 3B                         dec sp
1B49 3B                         dec sp
1B4A 3B                         dec sp
1B4B 3B                         dec sp
1B4C 3B                         dec sp
1B4D 3B                         dec sp
1B4E 3B                         dec sp
1B4F 3B                         dec sp
1B50 3B                         dec sp
1B51 3B                         dec sp
1B52 3B                         dec sp
1B53 3B                         dec sp
1B54 3B                         dec sp
1B55 3B                         dec sp
1B56 3B                         dec sp
1B57 3B                         dec sp
1B58 3B                         dec sp
1B59 3B                         dec sp
1B5A 3B                         dec sp
1B5B 3B                         dec sp
1B5C 3B                         dec sp
1B5D 3B                         dec sp
1B5E C7                         rst $00
1B5F C8                         ret z
1B60 C9                         ret
1B61 CA CB 3B                   jp z,L3BCB
1B64 3B                         dec sp
1B65 3B                         dec sp
1B66 3B                         dec sp
1B67 3B                         dec sp
1B68 3B                         dec sp
1B69 3B                         dec sp
1B6A 3B                         dec sp
1B6B 3B                         dec sp
1B6C 3B                         dec sp
1B6D 3B                         dec sp
1B6E 3B                         dec sp
1B6F 3B                         dec sp
1B70 3B                         dec sp
1B71 3B                         dec sp
1B72 3B                         dec sp
1B73 3B                         dec sp
1B74 3B                         dec sp
1B75 3B                         dec sp
1B76 3B                         dec sp
1B77 3B                         dec sp
1B78 3B                         dec sp
1B79 3B                         dec sp
1B7A 3B                         dec sp
1B7B 3B                         dec sp
1B7C 3B                         dec sp
1B7D 3B                         dec sp
1B7E 3B                         dec sp
1B7F 3B                         dec sp
1B80 3B                         dec sp
1B81 3B                         dec sp
1B82 3B                         dec sp
1B83 3B                         dec sp
1B84 3B                         dec sp
1B85 3B                         dec sp
1B86 3B                         dec sp
1B87 3B                         dec sp
1B88 3B                         dec sp
1B89 3B                         dec sp
1B8A 3B                         dec sp
1B8B 3B                         dec sp
1B8C 3B                         dec sp
1B8D 3B                         dec sp
1B8E 3B                         dec sp
1B8F 3B                         dec sp
1B90 3B                         dec sp
1B91 3B                         dec sp
1B92 3B                         dec sp
1B93 3B                         dec sp
1B94 3B                         dec sp
1B95 3B                         dec sp
1B96 3B                         dec sp
1B97 3B                         dec sp
1B98 3B                         dec sp
1B99 38 06         L1B99:       jr c,L1BA1
1B9B 03                         inc bc
1B9C 2A 4D 5C                   ld hl,($5C4D)
1B9F ED B8                      lddr
1BA1 D1            L1BA1:       pop de
1BA2 CD AD 1B                   call L1BAD
1BA5 EB                         ex de,hl
1BA6 C1                         pop bc
1BA7 23                         inc hl
1BA8 71                         ld (hl),c
1BA9 23                         inc hl
1BAA 70                         ld (hl),b
1BAB C9                         ret
1BAC 00                         nop
1BAD 2A 5B 5C      L1BAD:       ld hl,($5C5B)
1BB0 7E                         ld a,(hl)
1BB1 E6 1F                      and $1F
1BB3 DD B4                      or xh
1BB5 DD 45                      ld b,xl
1BB7 05                         dec b
1BB8 28 14                      jr z,L1BCE
1BBA EB                         ex de,hl
1BBB 36 7F                      ld (hl),$7F
1BBD 23                         inc hl
1BBE EB                         ex de,hl
1BBF 12            L1BBF:       ld (de),a
1BC0 23            L1BC0:       inc hl
1BC1 7E                         ld a,(hl)
1BC2 FE 20                      cp $20
1BC4 28 FA                      jr z,L1BC0
1BC6 F6 20                      or $20
1BC8 13                         inc de
1BC9 12                         ld (de),a
1BCA 10 F4                      djnz L1BC0
1BCC F6 80                      or $80
1BCE 12            L1BCE:       ld (de),a
1BCF C9                         ret
1BD0 00                         nop
1BD1 2A 4D 5C      L1BD1:       ld hl,($5C4D)
1BD4 06 00         L1BD4:       ld b,$00
1BD6 18 0A                      jr L1BE2
1BD8 23            L1BD8:       inc hl
1BD9 7E                         ld a,(hl)
1BDA FE 20                      cp $20
1BDC 28 FA                      jr z,L1BD8
1BDE CD 88 2C                   call L2C88
1BE1 D0                         ret nc
1BE2 10 F4         L1BE2:       djnz L1BD8
1BE4 CF                         rst $08
1BE5 0B                         dec bc
1BE6 C9                         ret
1BE7 FF                         rst $38
1BE8 FF                         rst $38
1BE9 FF                         rst $38
1BEA FF            L1BEA:       rst $38
1BEB FF                         rst $38
1BEC FF                         rst $38
1BED FF                         rst $38
1BEE CD 30 25      L1BEE:       call L2530
1BF1 C0                         ret nz
1BF2 C1                         pop bc
1BF3 E1                         pop hl
1BF4 C1                         pop bc
1BF5 ED 8A 09 56                push $0956
1BF9 E9                         jp (hl)
1BFA ED 53 8C 5B   L1BFA:       ld ($5B8C),de
1BFE 18 22                      jr L1C22
1C00 FF                         rst $38
1C01 0F                         rrca
1C02 1D                         dec e
1C03 4B                         ld c,e
1C04 09                         add hl,bc
1C05 67                         ld h,a
1C06 0B                         dec bc
1C07 7B                         ld a,e
1C08 8E                         adc a,(hl)
1C09 71                         ld (hl),c
1C0A B4                         or h
1C0B 81                         add a,c
1C0C CF                         rst $08
1C0D CD DE 1C                   call L1CDE
1C10 BF                         cp a
1C11 C1                         pop bc
1C12 CC EE 1B                   call z,L1BEE
1C15 EB                         ex de,hl
1C16 2A 74 5C                   ld hl,($5C74)
1C19 4E                         ld c,(hl)
1C1A 23                         inc hl
1C1B 46                         ld b,(hl)
1C1C EB                         ex de,hl
1C1D C5                         push bc
1C1E C9                         ret
1C1F CD B2 28                   call L28B2
1C22 FD 36 37 00   L1C22:       ld (iy+$37),$00
1C26 30 08                      jr nc,L1C30
1C28 FD CB 37 CE                set 1,(iy+$37)
1C2C 20 18                      jr nz,L1C46
1C2E CF            L1C2E:       rst $08
1C2F 01 CC 96                   ld bc,$96CC
1C32 29                         add hl,hl
1C33 FD CB 01 76                bit 6,(iy+$01)
1C37 20 11                      jr nz,L1C4A
1C39 AF                         xor a
1C3A CD 30 25                   call L2530
1C3D C4 F1 2B                   call nz,L2BF1
1C40 21 71 5C                   ld hl,$5C71
1C43 B6                         or (hl)
1C44 77                         ld (hl),a
1C45 EB                         ex de,hl
1C46 ED 43 72 5C   L1C46:       ld ($5C72),bc
1C4A 22 4D 5C      L1C4A:       ld ($5C4D),hl
1C4D C9                         ret
1C4E C1                         pop bc
1C4F CD 56 1C                   call L1C56
1C52 CD EE 1B                   call L1BEE
1C55 C9                         ret
1C56 3A 3B 5C      L1C56:       ld a,($5C3B)
1C59 F5                         push af
1C5A CD FB 24                   call L24FB
1C5D F1                         pop af
1C5E FD 56 01                   ld d,(iy+$01)
1C61 AA                         xor d
1C62 E6 40                      and $40
1C64 20 24                      jr nz,L1C8A
1C66 CB 7A                      bit 7,d
1C68 C2 FF 2A                   jp nz,L2AFF
1C6B C9                         ret
1C6C CD B3 28                   call L28B3
1C6F F5                         push af
1C70 CB 69                      bit 5,c
1C72 28 16                      jr z,L1C8A
1C74 F1                         pop af
1C75 C3 FA 1B                   jp L1BFA
1C78 00                         nop
1C79 E7            L1C79:       rst $20
1C7A CD 82 1C      L1C7A:       call L1C82
1C7D FE 2C                      cp $2C
1C7F 20 09                      jr nz,L1C8A
1C81 E7            L1C81:       rst $20
1C82 CD FB 24      L1C82:       call L24FB
1C85 FD CB 01 76                bit 6,(iy+$01)
1C89 C0                         ret nz
1C8A CF            L1C8A:       rst $08
1C8B 0B                         dec bc
1C8C CD FB 24      L1C8C:       call L24FB
1C8F FD CB 01 76                bit 6,(iy+$01)
1C93 C8                         ret z
1C94 18 F4                      jr L1C8A
1C96 FD CB 01 7E                bit 7,(iy+$01)
1C9A FD CB 02 86                res 0,(iy+$02)
1C9E C4 4D 0D                   call nz,L0D4D
1CA1 F1                         pop af
1CA2 3A 74 5C                   ld a,($5C74)
1CA5 D6 13                      sub $13
1CA7 CD FC 21                   call L21FC
1CAA CD EE 1B                   call L1BEE
1CAD 2A 8F 5C                   ld hl,($5C8F)
1CB0 22 8D 5C                   ld ($5C8D),hl
1CB3 21 91 5C                   ld hl,$5C91
1CB6 7E                         ld a,(hl)
1CB7 07            L1CB7:       rlca
1CB8 AE                         xor (hl)
1CB9 E6 AA                      and $AA
1CBB AE                         xor (hl)
1CBC 77                         ld (hl),a
1CBD C9                         ret
1CBE CD 30 25                   call L2530
1CC1 28 13                      jr z,L1CD6
1CC3 FD CB 02 86   L1CC3:       res 0,(iy+$02)
1CC7 CD 4D 0D                   call L0D4D
1CCA 21 90 5C                   ld hl,$5C90
1CCD 7E                         ld a,(hl)
1CCE F6 F8                      or $F8
1CD0 77                         ld (hl),a
1CD1 FD CB 57 B6                res 6,(iy+$57)
1CD5 DF                         rst $18
1CD6 CD E2 21      L1CD6:       call L21E2
1CD9 18 9F                      jr L1C7A
1CDB C3 DB 1C      L1CDB:       jp L1CDB
1CDE FE 0D         L1CDE:       cp $0D
1CE0 28 04                      jr z,L1CE6
1CE2 FE 3A         L1CE2:       cp $3A
1CE4 20 9C                      jr nz,L1C82
1CE6 CD 30 25      L1CE6:       call L2530
1CE9 C8                         ret z
1CEA EF                         rst $28
1CEB A0                         and b
1CEC 38 C9                      jr c,L1CB7
1CEE EF                         rst $28
1CEF C0                         ret nz
1CF0 02                         ld (bc),a
1CF1 01 E0 01                   ld bc,$01E0
1CF4 38 CD                      jr c,L1CC3
1CF6 FF                         rst $38
1CF7 2A E5 2B                   ld hl,($2BE5)
1CFA E6 40                      and $40
1CFC 20 08                      jr nz,L1D06
1CFE CB 6E                      bit 5,(hl)
1D00 28 3A                      jr z,L1D3C
1D02 CB AE                      res 5,(hl)
1D04 18 06                      jr L1D0C
1D06 CB 7E         L1D06:       bit 7,(hl)
1D08 20 32                      jr nz,L1D3C
1D0A CB FE                      set 7,(hl)
1D0C E1            L1D0C:       pop hl
1D0D E5                         push hl
1D0E ED 34 05 00                add hl,$0005
1D12 E5                         push hl
1D13 ED 4B 65 5C                ld bc,($5C65)
1D17 A7                         and a
1D18 ED 42                      sbc hl,bc
1D1A E1                         pop hl
1D1B 01 0D 00                   ld bc,$000D
1D1E 38 19                      jr c,L1D39
1D20 C5                         push bc
1D21 CD D4 3A                   call L3AD4
1D24 C1                         pop bc
1D25 2A 8C 5B                   ld hl,($5B8C)
1D28 37                         scf
1D29 ED 42                      sbc hl,bc
1D2B 56                         ld d,(hl)
1D2C 2B                         dec hl
1D2D 5E                         ld e,(hl)
1D2E EB                         ex de,hl
1D2F 09                         add hl,bc
1D30 EB                         ex de,hl
1D31 73                         ld (hl),e
1D32 23                         inc hl
1D33 72                         ld (hl),d
1D34 E1                         pop hl
1D35 ED 42                      sbc hl,bc
1D37 18 04                      jr L1D3D
1D39 CD 55 16      L1D39:       call L1655
1D3C E1            L1D3C:       pop hl
1D3D E5            L1D3D:       push hl
1D3E 22 68 5C                   ld ($5C68),hl
1D41 EF                         rst $28
1D42 02                         ld (bc),a
1D43 02                         ld (bc),a
1D44 38 E1                      jr c,L1D27
1D46 ED 34 05 00                add hl,$0005
1D4A EB                         ex de,hl
1D4B 0E 0A                      ld c,$0A
1D4D ED B0                      ldir
1D4F 2A 45 5C                   ld hl,($5C45)
1D52 EB                         ex de,hl
1D53 73                         ld (hl),e
1D54 23                         inc hl
1D55 72                         ld (hl),d
1D56 FD 56 0D                   ld d,(iy+$0D)
1D59 23                         inc hl
1D5A 72                         ld (hl),d
1D5B 18 5E                      jr L1DBB
1D5D E7                         rst $20
1D5E FE 24                      cp $24
1D60 11 23 1F                   ld de,$1F23
1D63 CA 63 10                   jp z,L1063
1D66 ED 5B 7A 5C                ld de,($5C7A)
1D6A 2A 78 5C                   ld hl,($5C78)
1D6D 7C                         ld a,h
1D6E B5                         or l
1D6F 20 04                      jr nz,L1D75
1D71 3A 7A 5C                   ld a,($5C7A)
1D74 5F                         ld e,a
1D75 16 00         L1D75:       ld d,$00
1D77 CD 30 25                   call L2530
1D7A C4 32 39                   call nz,L3932
1D7D C3 81 21                   jp L2181
1D80 FF                         rst $38
1D81 FF                         rst $38
1D82 FF                         rst $38
1D83 FF                         rst $38
1D84 FF                         rst $38
1D85 FF                         rst $38
1D86 FD CB 37 4E                bit 1,(iy+$37)
1D8A 06 01                      ld b,$01
1D8C C0                         ret nz
1D8D 05                         dec b
1D8E 2A 8C 5B                   ld hl,($5B8C)
1D91 7E                         ld a,(hl)
1D92 87                         add a,a
1D93 D0                         ret nc
1D94 87                         add a,a
1D95 2A 4D 5C                   ld hl,($5C4D)
1D98 38 03                      jr c,L1D9D
1D9A CB 6E                      bit 5,(hl)
1D9C C0                         ret nz
1D9D 23            L1D9D:       inc hl
1D9E 22 68 5C                   ld ($5C68),hl
1DA1 ED 34 0F 00                add hl,$000F
1DA5 ED 35 07 00                add de,$0007
1DA9 0E 03                      ld c,$03
1DAB 1A            L1DAB:       ld a,(de)
1DAC 13                         inc de
1DAD BE                         cp (hl)
1DAE 23                         inc hl
1DAF C0                         ret nz
1DB0 0D                         dec c
1DB1 20 F8                      jr nz,L1DAB
1DB3 C9                         ret
1DB4 EF                         rst $28
1DB5 E0                         ret po
1DB6 E2 0F C0                   jp po,LC00F
1DB9 02                         ld (bc),a
1DBA 38 EF                      jr c,L1DAB
1DBC E1                         pop hl
1DBD E0                         ret po
1DBE E2 36 00                   jp po,L0036
1DC1 02                         ld (bc),a
1DC2 01 03 37                   ld bc,$3703
1DC5 00                         nop
1DC6 04                         inc b
1DC7 38 A7                      jr c,L1D70
1DC9 C9                         ret
1DCA 38 37                      jr c,L1E03
1DCC C9                         ret
1DCD 01 00 00                   ld bc,$0000
1DD0 C5            L1DD0:       push bc
1DD1 EF                         rst $28
1DD2 E1                         pop hl
1DD3 32 01 38                   ld ($3801),a
1DD6 CD D5 2D                   call L2DD5
1DD9 CD 42 1E                   call L1E42
1DDC C1                         pop bc
1DDD F5                         push af
1DDE 33                         inc sp
1DDF 0C                         inc c
1DE0 CA AD 31      L1DE0:       jp z,L31AD
1DE3 CD E9 34                   call L34E9
1DE6 30 E8                      jr nc,L1DD0
1DE8 FD CB 68 7E                bit 7,(iy+$68)
1DEC 3E 2D                      ld a,$2D
1DEE 28 05                      jr z,L1DF5
1DF0 F5                         push af
1DF1 33                         inc sp
1DF2 0C            L1DF2:       inc c
1DF3 28 EB                      jr z,L1DE0
1DF5 F7            L1DF5:       rst $30
1DF6 62                         ld h,d
1DF7 6B                         ld l,e
1DF8 41                         ld b,c
1DF9 3B            L1DF9:       dec sp
1DFA F1                         pop af
1DFB 77                         ld (hl),a
1DFC 23                         inc hl
1DFD 10 FA                      djnz L1DF9
1DFF F1                         pop af
1E00 D5                         push de
1E01 A7                         and a
1E02 28 27                      jr z,L1E2B
1E04 ED 33                      add bc,a
1E06 03                         inc bc
1E07 C5                         push bc
1E08 F5                         push af
1E09 3C                         inc a
1E0A 4F                         ld c,a
1E0B 06 00                      ld b,$00
1E0D F7                         rst $30
1E0E 3E 2E                      ld a,$2E
1E10 12                         ld (de),a
1E11 13                         inc de
1E12 F1                         pop af
1E13 F5            L1E13:       push af
1E14 D5                         push de
1E15 EF                         rst $28
1E16 03                         inc bc
1E17 E1                         pop hl
1E18 04                         inc b
1E19 31 3A 31                   ld sp,$313A
1E1C 38 CD                      jr c,L1DEB
1E1E D5                         push de
1E1F 2D                         dec l
1E20 CD 42 1E                   call L1E42
1E23 D1                         pop de
1E24 12                         ld (de),a
1E25 13                         inc de
1E26 F1                         pop af
1E27 3D                         dec a
1E28 20 E9                      jr nz,L1E13
1E2A C1                         pop bc
1E2B C5            L1E2B:       push bc
1E2C EF                         rst $28
1E2D 02                         ld (bc),a
1E2E 02                         ld (bc),a
1E2F 38 C1                      jr c,L1DF2
1E31 D1                         pop de
1E32 C3 DB 25                   jp L25DB
1E35 FF                         rst $38
1E36 FF                         rst $38
1E37 FF                         rst $38
1E38 FF                         rst $38
1E39 47                         ld b,a
1E3A ED B9                      cpdr
1E3C 11 00 02                   ld de,$0200
1E3F C3 8B 19                   jp L198B
1E42 C6 30         L1E42:       add a,$30
1E44 FE 3A                      cp $3A
1E46 D8                         ret c
1E47 C6 07                      add a,$07
1E49 C9                         ret
1E4A FF                         rst $38
1E4B FF                         rst $38
1E4C FF                         rst $38
1E4D FF                         rst $38
1E4E FF                         rst $38
1E4F CD 99 1E                   call L1E99
1E52 78                         ld a,b
1E53 B1                         or c
1E54 20 04                      jr nz,L1E5A
1E56 ED 4B 78 5C                ld bc,($5C78)
1E5A ED 43 76 5C   L1E5A:       ld ($5C76),bc
1E5E C9                         ret
1E5F ED 8A 5B 48   L1E5F:       push $5B48
1E63 ED 8A 00 7B                push $007B
1E67 E5                         push hl
1E68 ED 8A 00 7B                push $007B
1E6C C3 4D 5B                   jp L5B4D
1E6F CB 1A         L1E6F:       rr d
1E71 0E 00                      ld c,$00
1E73 D8                         ret c
1E74 D5                         push de
1E75 CD 94 1E                   call L1E94
1E78 D1                         pop de
1E79 C9                         ret
1E7A CD 85 1E                   call L1E85
1E7D ED 79                      out (c),a
1E7F C9                         ret
1E80 CD 85 1E                   call L1E85
1E83 02                         ld (bc),a
1E84 C9                         ret
1E85 CD D5 2D      L1E85:       call L2DD5
1E88 38 15                      jr c,L1E9F
1E8A 28 02                      jr z,L1E8E
1E8C ED 44                      neg
1E8E F5            L1E8E:       push af
1E8F CD 99 1E                   call L1E99
1E92 F1                         pop af
1E93 C9                         ret
1E94 CD D5 2D      L1E94:       call L2DD5
1E97 18 03                      jr L1E9C
1E99 CD A2 2D      L1E99:       call L2DA2
1E9C 38 01         L1E9C:       jr c,L1E9F
1E9E C8                         ret z
1E9F CF            L1E9F:       rst $08
1EA0 0A                         ld a,(bc)
1EA1 FE 65         L1EA1:       cp $65
1EA3 28 03                      jr z,L1EA8
1EA5 FE 45                      cp $45
1EA7 C0                         ret nz
1EA8 3A AD 5C      L1EA8:       ld a,($5CAD)
1EAB FE 0A                      cp $0A
1EAD C0                         ret nz
1EAE 06 FF                      ld b,$FF
1EB0 E7                         rst $20
1EB1 FE 2B                      cp $2B
1EB3 28 05                      jr z,L1EBA
1EB5 FE 2D                      cp $2D
1EB7 20 02                      jr nz,L1EBB
1EB9 04                         inc b
1EBA E7            L1EBA:       rst $20
1EBB C5            L1EBB:       push bc
1EBC CD D8 1E                   call L1ED8
1EBF DA F8 2C                   jp c,L2CF8
1EC2 CD 3B 2D                   call L2D3B
1EC5 CD D5 2D                   call L2DD5
1EC8 C1                         pop bc
1EC9 DA AD 31                   jp c,L31AD
1ECC A7                         and a
1ECD FA AD 31                   jp m,L31AD
1ED0 04                         inc b
1ED1 28 02                      jr z,L1ED5
1ED3 ED 44                      neg
1ED5 C3 4F 2D      L1ED5:       jp L2D4F
1ED8 47            L1ED8:       ld b,a
1ED9 D6 30                      sub $30
1EDB 38 13                      jr c,L1EF0
1EDD FE 0A                      cp $0A
1EDF 38 0A                      jr c,L1EEB
1EE1 E6 DF                      and $DF
1EE3 D6 07                      sub $07
1EE5 38 09                      jr c,L1EF0
1EE7 FE 0A                      cp $0A
1EE9 38 05                      jr c,L1EF0
1EEB FD BE 73      L1EEB:       cp (iy+$73)
1EEE 3F                         ccf
1EEF D0                         ret nc
1EF0 78            L1EF0:       ld a,b
1EF1 C9                         ret
1EF2 ED 8A 5B 48   L1EF2:       push $5B48
1EF6 ED 8A 00 7B                push $007B
1EFA C5                         push bc
1EFB ED 8A 00 7B                push $007B
1EFF C3 3E 5B                   jp L5B3E
1F02 FF                         rst $38
1F03 FF                         rst $38
1F04 FF                         rst $38
1F05 2A 65 5C      L1F05:       ld hl,($5C65)
1F08 09                         add hl,bc
1F09 38 0A                      jr c,L1F15
1F0B EB                         ex de,hl
1F0C 21 50 00                   ld hl,$0050
1F0F 19                         add hl,de
1F10 38 03                      jr c,L1F15
1F12 ED 72                      sbc hl,sp
1F14 D8                         ret c
1F15 CF            L1F15:       rst $08
1F16 03                         inc bc
1F17 00                         nop
1F18 00                         nop
1F19 00                         nop
1F1A 01 00 00                   ld bc,$0000
1F1D CD 05 1F                   call L1F05
1F20 44                         ld b,h
1F21 4D                         ld c,l
1F22 C9                         ret
1F23 CF                         rst $08
1F24 8E                         adc a,(hl)
1F25 D8                         ret c
1F26 E5                         push hl
1F27 21 47 37                   ld hl,$3747
1F2A CD CD 32                   call L32CD
1F2D E1                         pop hl
1F2E 6C                         ld l,h
1F2F 01 3B 37                   ld bc,$373B
1F32 CD C5 32                   call L32C5
1F35 C9                         ret
1F36 FF                         rst $38
1F37 FF                         rst $38
1F38 FF                         rst $38
1F39 FF                         rst $38
1F3A CD 99 1E                   call L1E99
1F3D 76            L1F3D:       halt
1F3E 0B                         dec bc
1F3F 78                         ld a,b
1F40 B1                         or c
1F41 28 0C                      jr z,L1F4F
1F43 78                         ld a,b
1F44 A1                         and c
1F45 3C                         inc a
1F46 20 01                      jr nz,L1F49
1F48 03                         inc bc
1F49 FD CB 01 6E   L1F49:       bit 5,(iy+$01)
1F4D 28 EE                      jr z,L1F3D
1F4F FD CB 01 AE   L1F4F:       res 5,(iy+$01)
1F53 C9                         ret
1F54 3E 7F         L1F54:       ld a,$7F
1F56 DB FE                      in a,($FE)
1F58 1F                         rra
1F59 D8                         ret c
1F5A 3E FE                      ld a,$FE
1F5C DB FE                      in a,($FE)
1F5E 1F                         rra
1F5F D8                         ret c
1F60 01 75 3E                   ld bc,$3E75
1F63 CD C5 32                   call L32C5
1F66 37                         scf
1F67 C0                         ret nz
1F68 A7                         and a
1F69 C9                         ret
1F6A 08            L1F6A:       ex af,af'
1F6B 7A            L1F6B:       ld a,d
1F6C 14                         inc d
1F6D 28 21                      jr z,L1F90
1F6F EB                         ex de,hl
1F70 2A 6A 5B                   ld hl,($5B6A)
1F73 ED 73 6A 5B                ld ($5B6A),sp
1F77 F9                         ld sp,hl
1F78 D5                         push de
1F79 21 2C 33                   ld hl,$332C
1F7C CD CD 32                   call L32CD
1F7F E1                         pop hl
1F80 C2 15 1F                   jp nz,L1F15
1F83 79                         ld a,c
1F84 87                         add a,a
1F85 ED 92 56                   nextreg $56,a
1F88 3C                         inc a
1F89 ED 92 57                   nextreg $57,a
1F8C CB FC                      set 7,h
1F8E CB F4                      set 6,h
1F90 F5            L1F90:       push af
1F91 CD A8 1F                   call L1FA8
1F94 F1                         pop af
1F95 28 0C                      jr z,L1FA3
1F97 ED 91 8E 0B                nextreg $8E,$0B
1F9B 2A 6A 5B                   ld hl,($5B6A)
1F9E ED 73 6A 5B                ld ($5B6A),sp
1FA2 F9                         ld sp,hl
1FA3 FD 21 3A 5C   L1FA3:       ld iy,$5C3A
1FA7 C9                         ret
1FA8 E5            L1FA8:       push hl
1FA9 3E 10                      ld a,$10
1FAB 32 5C 5B                   ld ($5B5C),a
1FAE 3E 04                      ld a,$04
1FB0 32 67 5B                   ld ($5B67),a
1FB3 D9                         exx
1FB4 08                         ex af,af'
1FB5 C9                         ret
1FB6 FF                         rst $38
1FB7 FF                         rst $38
1FB8 FF                         rst $38
1FB9 FF                         rst $38
1FBA FF                         rst $38
1FBB FF                         rst $38
1FBC FF                         rst $38
1FBD FF                         rst $38
1FBE FF                         rst $38
1FBF FF                         rst $38
1FC0 FF                         rst $38
1FC1 FF                         rst $38
1FC2 FF                         rst $38
1FC3 CD 30 25      L1FC3:       call L2530
1FC6 E1                         pop hl
1FC7 C8                         ret z
1FC8 E9                         jp (hl)
1FC9 00                         nop
1FCA 08                         ex af,af'
1FCB 03                         inc bc
1FCC 02                         ld (bc),a
1FCD 02                         ld (bc),a
1FCE 00                         nop
1FCF 0C                         inc c
1FD0 0C                         inc c
1FD1 06 08                      ld b,$08
1FD3 08                         ex af,af'
1FD4 0A                         ld a,(bc)
1FD5 02                         ld (bc),a
1FD6 03                         inc bc
1FD7 05                         dec b
1FD8 05                         dec b
1FD9 05                         dec b
1FDA 05                         dec b
1FDB 05                         dec b
1FDC 05                         dec b
1FDD 06 FF                      ld b,$FF
1FDF DF                         rst $18
1FE0 CD 45 20                   call L2045
1FE3 28 0D                      jr z,L1FF2
1FE5 CD 4E 20      L1FE5:       call L204E
1FE8 28 FB                      jr z,L1FE5
1FEA CD FC 1F                   call L1FFC
1FED CD 4E 20                   call L204E
1FF0 28 F3                      jr z,L1FE5
1FF2 FE 29         L1FF2:       cp $29
1FF4 C8                         ret z
1FF5 CD C3 1F      L1FF5:       call L1FC3
1FF8 3E 0D                      ld a,$0D
1FFA D7                         rst $10
1FFB C9                         ret
1FFC DF            L1FFC:       rst $18
1FFD FE AC                      cp $AC
1FFF 20 0D                      jr nz,L200E
2001 CD 79 1C                   call L1C79
2004 CD C3 1F                   call L1FC3
2007 CD 07 23                   call L2307
200A 3E 16                      ld a,$16
200C 18 10                      jr L201E
200E FE AD         L200E:       cp $AD
2010 20 12                      jr nz,L2024
2012 E7                         rst $20
2013 CD 82 1C                   call L1C82
2016 CD C3 1F                   call L1FC3
2019 CD 99 1E                   call L1E99
201C 3E 17                      ld a,$17
201E D7            L201E:       rst $10
201F 79                         ld a,c
2020 D7                         rst $10
2021 78                         ld a,b
2022 D7                         rst $10
2023 C9                         ret
2024 CD F2 21      L2024:       call L21F2
2027 D0                         ret nc
2028 CD 70 20                   call L2070
202B D0                         ret nc
202C CD FB 24                   call L24FB
202F CD C3 1F                   call L1FC3
2032 FD CB 01 76                bit 6,(iy+$01)
2036 CC F1 2B                   call z,L2BF1
2039 C2 E3 2D                   jp nz,L2DE3
203C 78            L203C:       ld a,b
203D B1                         or c
203E 0B                         dec bc
203F C8                         ret z
2040 1A                         ld a,(de)
2041 13                         inc de
2042 D7                         rst $10
2043 18 F7                      jr L203C
2045 FE 29         L2045:       cp $29
2047 C8                         ret z
2048 FE 0D                      cp $0D
204A C8                         ret z
204B FE 3A                      cp $3A
204D C9                         ret
204E DF            L204E:       rst $18
204F FE 3B                      cp $3B
2051 28 14                      jr z,L2067
2053 FE 2C                      cp $2C
2055 20 0A                      jr nz,L2061
2057 CD 30 25                   call L2530
205A 28 0B                      jr z,L2067
205C 3E 06                      ld a,$06
205E D7                         rst $10
205F 18 06                      jr L2067
2061 FE 27         L2061:       cp $27
2063 C0                         ret nz
2064 CD F5 1F                   call L1FF5
2067 E7            L2067:       rst $20
2068 CD 45 20                   call L2045
206B 20 01                      jr nz,L206E
206D C1                         pop bc
206E BF            L206E:       cp a
206F C9                         ret
2070 FE 23         L2070:       cp $23
2072 37                         scf
2073 C0                         ret nz
2074 E7                         rst $20
2075 CD 82 1C                   call L1C82
2078 A7                         and a
2079 CD C3 1F                   call L1FC3
207C CD 94 1E                   call L1E94
207F FE 10                      cp $10
2081 D2 0E 16                   jp nc,L160E
2084 CD 01 16                   call L1601
2087 A7                         and a
2088 C9                         ret
2089 21 40 31                   ld hl,$3140
208C CD 05 27                   call L2705
208F 60                         ld h,b
2090 28 7B                      jr z,L210D
2092 3C                         inc a
2093 20 02                      jr nz,L2097
2095 1E 64                      ld e,$64
2097 7B            L2097:       ld a,e
2098 21 1B 0D                   ld hl,$0D1B
209B CD CD 32                   call L32CD
209E C9                         ret
209F FF                         rst $38
20A0 ED 4B 88 5C                ld bc,($5C88)
20A4 3A 6B 5C                   ld a,($5C6B)
20A7 B8                         cp b
20A8 38 03                      jr c,L20AD
20AA 0E 21                      ld c,$21
20AC 47                         ld b,a
20AD ED 43 88 5C   L20AD:       ld ($5C88),bc
20B1 3E 19                      ld a,$19
20B3 90                         sub b
20B4 32 8C 5C                   ld ($5C8C),a
20B7 FD CB 02 86                res 0,(iy+$02)
20BB CD D9 0D                   call L0DD9
20BE C3 6E 0D                   jp L0D6E
20C1 DD 21 A5 34   L20C1:       ld ix,$34A5
20C5 CA A1 17                   jp z,L17A1
20C8 CB 76                      bit 6,(hl)
20CA C2 CB 27                   jp nz,L27CB
20CD CD 8C 1C                   call L1C8C
20D0 FE 2C                      cp $2C
20D2 20 0D                      jr nz,L20E1
20D4 CD 81 1C                   call L1C81
20D7 FE 2C                      cp $2C
20D9 20 0E                      jr nz,L20E9
20DB E7                         rst $20
20DC CD 8C 1C                   call L1C8C
20DF 18 14                      jr L20F5
20E1 CD 30 25      L20E1:       call L2530
20E4 3E 01                      ld a,$01
20E6 C4 28 2D                   call nz,L2D28
20E9 CD 30 25      L20E9:       call L2530
20EC 11 39 15                   ld de,$1539
20EF 01 01 00                   ld bc,$0001
20F2 C4 B2 2A                   call nz,L2AB2
20F5 DF            L20F5:       rst $18
20F6 FE 29                      cp $29
20F8 C2 CB 27                   jp nz,L27CB
20FB E7                         rst $20
20FC CD 30 25                   call L2530
20FF CA 81 21                   jp z,L2181
2102 CD F1 2B                   call L2BF1
2105 78                         ld a,b
2106 B1                         or c
2107 28 01                      jr z,L210A
2109 1A                         ld a,(de)
210A F5            L210A:       push af
210B CD A2 2D                   call L2DA2
210E D1                         pop de
210F DA F9 24                   jp c,L24F9
2112 7A                         ld a,d
2113 08                         ex af,af'
2114 78                         ld a,b
2115 B1                         or c
2116 CA F8 39      L2116:       jp z,L39F8
2119 D9                         exx
211A CD F1 2B                   call L2BF1
211D EB                         ex de,hl
211E 78                         ld a,b
211F B1                         or c
2120 28 F4                      jr z,L2116
2122 D9                         exx
2123 C5                         push bc
2124 CD F1 2B                   call L2BF1
2127 D9                         exx
2128 D1                         pop de
2129 D5                         push de
212A D9                         exx
212B E1                         pop hl
212C 2B                         dec hl
212D 79                         ld a,c
212E 95                         sub l
212F 4F                         ld c,a
2130 78                         ld a,b
2131 9C                         sbc a,h
2132 47                         ld b,a
2133 3E 00                      ld a,$00
2135 DA F8 39                   jp c,L39F8
2138 19                         add hl,de
2139 08                         ex af,af'
213A 57                         ld d,a
213B 08                         ex af,af'
213C 78            L213C:       ld a,b
213D B1                         or c
213E 28 D6                      jr z,L2116
2140 C5                         push bc
2141 E5                         push hl
2142 D9                         exx
2143 C5                         push bc
2144 E5                         push hl
2145 78            L2145:       ld a,b
2146 B1                         or c
2147 28 2F                      jr z,L2178
2149 7E                         ld a,(hl)
214A 23                         inc hl
214B 0B                         dec bc
214C D9                         exx
214D BA                         cp d
214E 28 03                      jr z,L2153
2150 BE                         cp (hl)
2151 20 09                      jr nz,L215C
2153 23            L2153:       inc hl
2154 78                         ld a,b
2155 B1                         or c
2156 28 04                      jr z,L215C
2158 0B                         dec bc
2159 D9                         exx
215A 18 E9                      jr L2145
215C D9            L215C:       exx
215D E1                         pop hl
215E C1                         pop bc
215F 13                         inc de
2160 08                         ex af,af'
2161 28 06                      jr z,L2169
2163 1B                         dec de
2164 1B                         dec de
2165 7A                         ld a,d
2166 B3                         or e
2167 28 11                      jr z,L217A
2169 D9            L2169:       exx
216A E1                         pop hl
216B C1                         pop bc
216C 20 05                      jr nz,L2173
216E 08                         ex af,af'
216F 23                         inc hl
2170 0B                         dec bc
2171 18 C9                      jr L213C
2173 08            L2173:       ex af,af'
2174 2B                         dec hl
2175 03                         inc bc
2176 18 C4                      jr L213C
2178 E1            L2178:       pop hl
2179 E1                         pop hl
217A E1            L217A:       pop hl
217B E1                         pop hl
217C 42                         ld b,d
217D 4B                         ld c,e
217E CD 2F 2D      L217E:       call L2D2F
2181 C3 C3 26      L2181:       jp L26C3
2184 D5            L2184:       push de
2185 A7                         and a
2186 18 02                      jr L218A
2188 D5                         push de
2189 37                         scf
218A D1            L218A:       pop de
218B 15                         dec d
218C F5            L218C:       push af
218D D5                         push de
218E CD 99 1E                   call L1E99
2191 C5                         push bc
2192 D9                         exx
2193 E1                         pop hl
2194 D1                         pop de
2195 F1                         pop af
2196 14                         inc d
2197 3E 00                      ld a,$00
2199 F5            L2199:       push af
219A 08                         ex af,af'
219B FD CB 01 7E                bit 7,(iy+$01)
219F C4 6B 1F                   call nz,L1F6B
21A2 F1                         pop af
21A3 21 3B 5C                   ld hl,$5C3B
21A6 CB F6                      set 6,(hl)
21A8 38 0A                      jr c,L21B4
21AA CB B6                      res 6,(hl)
21AC CB 7E                      bit 7,(hl)
21AE C4 B2 2A                   call nz,L2AB2
21B1 C3 BF 35                   jp L35BF
21B4 CB 7E         L21B4:       bit 7,(hl)
21B6 C4 2F 2D                   call nz,L2D2F
21B9 C9                         ret
21BA CB F8         L21BA:       set 7,b
21BC 18 07                      jr L21C5
21BE 41            L21BE:       ld b,c
21BF 79                         ld a,c
21C0 E6 E0                      and $E0
21C2 CB FF                      set 7,a
21C4 4F                         ld c,a
21C5 DF            L21C5:       rst $18
21C6 D9                         exx
21C7 E5                         push hl
21C8 D9                         exx
21C9 E1                         pop hl
21CA FE 28                      cp $28
21CC CA 87 29                   jp z,L2987
21CF CB E8                      set 5,b
21D1 C3 87 29                   jp L2987
21D4 FF                         rst $38
21D5 FF                         rst $38
21D6 2A 51 5C                   ld hl,($5C51)
21D9 23                         inc hl
21DA 23                         inc hl
21DB 23                         inc hl
21DC 23                         inc hl
21DD 7E                         ld a,(hl)
21DE FE 4B                      cp $4B
21E0 C9                         ret
21E1 E7            L21E1:       rst $20
21E2 CD F2 21      L21E2:       call L21F2
21E5 D8                         ret c
21E6 DF                         rst $18
21E7 FE 2C                      cp $2C
21E9 28 F6                      jr z,L21E1
21EB FE 3B                      cp $3B
21ED 28 F2                      jr z,L21E1
21EF C3 8A 1C                   jp L1C8A
21F2 FE D9         L21F2:       cp $D9
21F4 D8                         ret c
21F5 FE DF                      cp $DF
21F7 3F                         ccf
21F8 D8                         ret c
21F9 F5                         push af
21FA E7                         rst $20
21FB F1                         pop af
21FC D6 C9         L21FC:       sub $C9
21FE F5                         push af
21FF CD 82 1C                   call L1C82
2202 F1                         pop af
2203 A7                         and a
2204 CD C3 1F                   call L1FC3
2207 F5                         push af
2208 CD 94 1E                   call L1E94
220B 57                         ld d,a
220C F1                         pop af
220D D7                         rst $10
220E 7A                         ld a,d
220F D7                         rst $10
2210 C9                         ret
2211 D6 11         L2211:       sub $11
2213 CE 00                      adc a,$00
2215 28 1D                      jr z,L2234
2217 D6 02                      sub $02
2219 CE 00                      adc a,$00
221B 28 56                      jr z,L2273
221D FE 01                      cp $01
221F 7A                         ld a,d
2220 06 01                      ld b,$01
2222 20 04                      jr nz,L2228
2224 07                         rlca
2225 07                         rlca
2226 06 04                      ld b,$04
2228 4F            L2228:       ld c,a
2229 7A                         ld a,d
222A FE 02                      cp $02
222C 30 16                      jr nc,L2244
222E 79                         ld a,c
222F 21 91 5C                   ld hl,$5C91
2232 18 38                      jr L226C
2234 7A            L2234:       ld a,d
2235 06 07                      ld b,$07
2237 38 05                      jr c,L223E
2239 07                         rlca
223A 07                         rlca
223B 07                         rlca
223C 06 38                      ld b,$38
223E 4F            L223E:       ld c,a
223F 7A                         ld a,d
2240 FE 0A                      cp $0A
2242 38 02                      jr c,L2246
2244 CF            L2244:       rst $08
2245 13                         inc de
2246 21 8F 5C      L2246:       ld hl,$5C8F
2249 FE 08                      cp $08
224B 38 0B                      jr c,L2258
224D 7E                         ld a,(hl)
224E 28 07                      jr z,L2257
2250 B0                         or b
2251 2F                         cpl
2252 E6 24                      and $24
2254 28 01                      jr z,L2257
2256 78                         ld a,b
2257 4F            L2257:       ld c,a
2258 79            L2258:       ld a,c
2259 CD 6C 22                   call L226C
225C 3E 07                      ld a,$07
225E BA                         cp d
225F 9F                         sbc a,a
2260 CD 6C 22                   call L226C
2263 07                         rlca
2264 07                         rlca
2265 E6 50                      and $50
2267 47                         ld b,a
2268 3E 08                      ld a,$08
226A BA                         cp d
226B 9F                         sbc a,a
226C AE            L226C:       xor (hl)
226D A0                         and b
226E AE                         xor (hl)
226F 77                         ld (hl),a
2270 23                         inc hl
2271 78                         ld a,b
2272 C9                         ret
2273 9F            L2273:       sbc a,a
2274 7A                         ld a,d
2275 0F                         rrca
2276 06 80                      ld b,$80
2278 20 03                      jr nz,L227D
227A 0F                         rrca
227B 06 40                      ld b,$40
227D 4F            L227D:       ld c,a
227E 7A                         ld a,d
227F FE 08                      cp $08
2281 28 04                      jr z,L2287
2283 FE 02                      cp $02
2285 30 BD                      jr nc,L2244
2287 79            L2287:       ld a,c
2288 21 8F 5C                   ld hl,$5C8F
228B CD 6C 22                   call L226C
228E 79                         ld a,c
228F 0F                         rrca
2290 0F                         rrca
2291 0F                         rrca
2292 18 D8                      jr L226C
2294 CD 94 1E                   call L1E94
2297 FE 08                      cp $08
2299 30 A9                      jr nc,L2244
229B D3 FE                      out ($FE),a
229D 07                         rlca
229E 07                         rlca
229F 07                         rlca
22A0 CB 6F                      bit 5,a
22A2 20 02                      jr nz,L22A6
22A4 EE 07                      xor $07
22A6 32 48 5C      L22A6:       ld ($5C48),a
22A9 C9                         ret
22AA 3E AF         L22AA:       ld a,$AF
22AC 90                         sub b
22AD DA F9 24                   jp c,L24F9
22B0 47                         ld b,a
22B1 A7                         and a
22B2 1F                         rra
22B3 37                         scf
22B4 1F                         rra
22B5 A7                         and a
22B6 1F                         rra
22B7 A8                         xor b
22B8 E6 F8                      and $F8
22BA A8                         xor b
22BB 67                         ld h,a
22BC 79                         ld a,c
22BD 07                         rlca
22BE 07                         rlca
22BF 07                         rlca
22C0 A8                         xor b
22C1 E6 C7                      and $C7
22C3 A8                         xor b
22C4 07                         rlca
22C5 07                         rlca
22C6 6F                         ld l,a
22C7 79                         ld a,c
22C8 E6 07                      and $07
22CA C9                         ret
22CB CD 07 23      L22CB:       call L2307
22CE CD AA 22                   call L22AA
22D1 47                         ld b,a
22D2 04                         inc b
22D3 7E                         ld a,(hl)
22D4 07            L22D4:       rlca
22D5 10 FD                      djnz L22D4
22D7 E6 01                      and $01
22D9 C3 28 2D                   jp L2D28
22DC CD 07 23      L22DC:       call L2307
22DF CD E5 22                   call L22E5
22E2 C3 4D 0D                   jp L0D4D
22E5 ED 43 7D 5C   L22E5:       ld ($5C7D),bc
22E9 CD AA 22                   call L22AA
22EC 47                         ld b,a
22ED 04                         inc b
22EE 3E FE                      ld a,$FE
22F0 0F            L22F0:       rrca
22F1 10 FD                      djnz L22F0
22F3 47                         ld b,a
22F4 7E                         ld a,(hl)
22F5 FD 4E 57                   ld c,(iy+$57)
22F8 CB 41                      bit 0,c
22FA 20 01                      jr nz,L22FD
22FC A0                         and b
22FD CB 51         L22FD:       bit 2,c
22FF 20 02                      jr nz,L2303
2301 A8                         xor b
2302 2F                         cpl
2303 77            L2303:       ld (hl),a
2304 C3 DB 0B                   jp L0BDB
2307 CD 14 23      L2307:       call L2314
230A 47                         ld b,a
230B C5                         push bc
230C CD 14 23                   call L2314
230F 59                         ld e,c
2310 C1                         pop bc
2311 51                         ld d,c
2312 4F            L2312:       ld c,a
2313 C9                         ret
2314 CD D5 2D      L2314:       call L2DD5
2317 DA F9 24                   jp c,L24F9
231A 0E 01                      ld c,$01
231C C8                         ret z
231D 0E FF                      ld c,$FF
231F C9                         ret
2320 DF                         rst $18
2321 FE 2C                      cp $2C
2323 C2 8A 1C                   jp nz,L1C8A
2326 E7                         rst $20
2327 CD 82 1C                   call L1C82
232A CD EE 1B                   call L1BEE
232D EF                         rst $28
232E 2A 3D 38                   ld hl,($383D)
2331 7E                         ld a,(hl)
2332 FE 81                      cp $81
2334 30 05                      jr nc,L233B
2336 EF                         rst $28
2337 02                         ld (bc),a
2338 38 18                      jr c,L2352
233A A1                         and c
233B EF            L233B:       rst $28
233C A3                         and e
233D 38 36                      jr c,L2375
233F 83                         add a,e
2340 EF                         rst $28
2341 C5                         push bc
2342 02                         ld (bc),a
2343 38 CD                      jr c,L2312
2345 7D                         ld a,l
2346 24                         inc h
2347 C5                         push bc
2348 EF                         rst $28
2349 31 E1 04                   ld sp,$04E1
234C 38 7E                      jr c,L23CC
234E FE 80                      cp $80
2350 30 08                      jr nc,L235A
2352 EF            L2352:       rst $28
2353 02                         ld (bc),a
2354 02                         ld (bc),a
2355 38 C1                      jr c,L2318
2357 C3 DC 22                   jp L22DC
235A EF            L235A:       rst $28
235B C2 01 C0                   jp nz,LC001
235E 02                         ld (bc),a
235F 03                         inc bc
2360 01 E0 0F                   ld bc,$0FE0
2363 C0                         ret nz
2364 01 31 E0      L2364:       ld bc,$E031
2367 01 31 E0                   ld bc,$E031
236A A0                         and b
236B C1                         pop bc
236C 02            L236C:       ld (bc),a
236D 38 FD                      jr c,L236C
236F 34                         inc (hl)
2370 62                         ld h,d
2371 CD 94 1E                   call L1E94
2374 6F                         ld l,a
2375 E5            L2375:       push hl
2376 CD 94 1E                   call L1E94
2379 E1                         pop hl
237A 67                         ld h,a
237B 22 7D 5C                   ld ($5C7D),hl
237E C1                         pop bc
237F C3 20 24                   jp L2420
2382 DF            L2382:       rst $18
2383 FE 2C                      cp $2C
2385 28 06                      jr z,L238D
2387 CD EE 1B                   call L1BEE
238A C3 77 24                   jp L2477
238D E7            L238D:       rst $20
238E CD 82 1C                   call L1C82
2391 CD EE 1B                   call L1BEE
2394 EF                         rst $28
2395 C5                         push bc
2396 A2                         and d
2397 04                         inc b
2398 1F                         rra
2399 31 30 30                   ld sp,$3030
239C 00                         nop
239D 06 02                      ld b,$02
239F 38 C3                      jr c,L2364
23A1 77                         ld (hl),a
23A2 24            L23A2:       inc h
23A3 C0                         ret nz
23A4 02                         ld (bc),a
23A5 C1                         pop bc
23A6 02                         ld (bc),a
23A7 31 2A E1                   ld sp,$E12A
23AA 01 E1 2A                   ld bc,$2AE1
23AD 0F                         rrca
23AE E0                         ret po
23AF 05                         dec b
23B0 2A E0 01                   ld hl,($01E0)
23B3 3D                         dec a
23B4 38 7E                      jr c,L2434
23B6 FE 81                      cp $81
23B8 30 07                      jr nc,L23C1
23BA EF                         rst $28
23BB 02                         ld (bc),a
23BC 02                         ld (bc),a
23BD 38 C3                      jr c,L2382
23BF 77                         ld (hl),a
23C0 24                         inc h
23C1 CD 7D 24      L23C1:       call L247D
23C4 C5                         push bc
23C5 EF                         rst $28
23C6 02                         ld (bc),a
23C7 E1                         pop hl
23C8 01 05 C1                   ld bc,$C105
23CB 02                         ld (bc),a
23CC 01 31 E1      L23CC:       ld bc,$E131
23CF 04                         inc b
23D0 C2 02 01                   jp nz,L0102
23D3 31 E1 04                   ld sp,$04E1
23D6 E2 E5 E0                   jp po,LE0E5
23D9 03                         inc bc
23DA A2                         and d
23DB 04                         inc b
23DC 31 1F C5                   ld sp,$C51F
23DF 02                         ld (bc),a
23E0 20 C0                      jr nz,L23A2
23E2 02                         ld (bc),a
23E3 C2 02 C1                   jp nz,LC102
23E6 E5                         push hl
23E7 04                         inc b
23E8 E0                         ret po
23E9 E2 04 0F                   jp po,L0F04
23EC E1                         pop hl
23ED 01 C1 02                   ld bc,$02C1
23F0 E0                         ret po
23F1 04                         inc b
23F2 E2 E5 04                   jp po,L04E5
23F5 03                         inc bc
23F6 C2 2A E1                   jp nz,LE12A
23F9 2A 0F 02                   ld hl,($020F)
23FC 38 1A                      jr c,L2418
23FE FE 81                      cp $81
2400 C1                         pop bc
2401 DA 77 24                   jp c,L2477
2404 C5                         push bc
2405 EF                         rst $28
2406 01 38 3A                   ld bc,$3A38
2409 7D                         ld a,l
240A 5C                         ld e,h
240B CD 28 2D                   call L2D28
240E EF                         rst $28
240F C0                         ret nz
2410 0F                         rrca
2411 01 38 3A                   ld bc,$3A38
2414 7E                         ld a,(hl)
2415 5C                         ld e,h
2416 CD 28 2D                   call L2D28
2419 EF                         rst $28
241A C5                         push bc
241B 0F                         rrca
241C E0                         ret po
241D E5                         push hl
241E 38 C1                      jr c,L23E1
2420 05            L2420:       dec b
2421 28 3C                      jr z,L245F
2423 18 14                      jr L2439
2425 EF            L2425:       rst $28
2426 E1                         pop hl
2427 31 E3 04      L2427:       ld sp,$04E3
242A E2 E4 04                   jp po,L04E4
242D 03                         inc bc
242E C1                         pop bc
242F 02                         ld (bc),a
2430 E4 04 E2                   call po,LE204
2433 E3                         ex (sp),hl
2434 04            L2434:       inc b
2435 0F                         rrca
2436 C2 02 38                   jp nz,L3802
2439 C5            L2439:       push bc
243A EF                         rst $28
243B C0                         ret nz
243C 02                         ld (bc),a
243D E1                         pop hl
243E 0F                         rrca
243F 31 38 3A                   ld sp,$3A38
2442 7D                         ld a,l
2443 5C                         ld e,h
2444 CD 28 2D                   call L2D28
2447 EF                         rst $28
2448 03                         inc bc
2449 E0                         ret po
244A E2 0F C0                   jp po,LC00F
244D 01 E0 38                   ld bc,$38E0
2450 3A 7E 5C                   ld a,($5C7E)
2453 CD 28 2D                   call L2D28
2456 EF                         rst $28
2457 03                         inc bc
2458 38 CD         L2458:       jr c,L2427
245A B7                         or a
245B 24                         inc h
245C C1                         pop bc
245D 10 C6                      djnz L2425
245F EF            L245F:       rst $28
2460 02                         ld (bc),a
2461 02                         ld (bc),a
2462 01 38 3A                   ld bc,$3A38
2465 7D                         ld a,l
2466 5C                         ld e,h
2467 CD 28 2D                   call L2D28
246A EF                         rst $28
246B 03                         inc bc
246C 01 38 3A                   ld bc,$3A38
246F 7E                         ld a,(hl)
2470 5C                         ld e,h
2471 CD 28 2D                   call L2D28
2474 EF                         rst $28
2475 03                         inc bc
2476 38 CD                      jr c,L2445
2478 B7                         or a
2479 24                         inc h
247A C3 4D 0D                   jp L0D4D
247D EF            L247D:       rst $28
247E 31 28 34                   ld sp,$3428
2481 32 00 01                   ld ($0100),a
2484 05                         dec b
2485 E5                         push hl
2486 01 05 2A                   ld bc,$2A05
2489 38 CD                      jr c,L2458
248B D5                         push de
248C 2D                         dec l
248D 38 06                      jr c,L2495
248F E6 FC                      and $FC
2491 C6 04                      add a,$04
2493 30 02                      jr nc,L2497
2495 3E FC         L2495:       ld a,$FC
2497 F5            L2497:       push af
2498 CD 28 2D                   call L2D28
249B EF                         rst $28
249C E5                         push hl
249D 01 05 31                   ld bc,$3105
24A0 1F                         rra
24A1 C4 02 31                   call nz,L3102
24A4 A2                         and d
24A5 04                         inc b
24A6 1F                         rra
24A7 C1                         pop bc
24A8 01 C0 02                   ld bc,$02C0
24AB 31 04 31                   ld sp,$3104
24AE 0F                         rrca
24AF A1                         and c
24B0 03                         inc bc
24B1 1B                         dec de
24B2 C3 02 38                   jp L3802
24B5 C1                         pop bc
24B6 C9                         ret
24B7 CD 07 23                   call L2307
24BA 79                         ld a,c
24BB B8                         cp b
24BC 30 06                      jr nc,L24C4
24BE 69                         ld l,c
24BF D5                         push de
24C0 AF                         xor a
24C1 5F                         ld e,a
24C2 18 07                      jr L24CB
24C4 B1            L24C4:       or c
24C5 C8                         ret z
24C6 68                         ld l,b
24C7 41                         ld b,c
24C8 D5                         push de
24C9 16 00                      ld d,$00
24CB 60            L24CB:       ld h,b
24CC 78                         ld a,b
24CD 1F                         rra
24CE 85            L24CE:       add a,l
24CF 38 03                      jr c,L24D4
24D1 BC                         cp h
24D2 38 07                      jr c,L24DB
24D4 94            L24D4:       sub h
24D5 4F                         ld c,a
24D6 D9                         exx
24D7 C1                         pop bc
24D8 C5                         push bc
24D9 18 04                      jr L24DF
24DB 4F            L24DB:       ld c,a
24DC D5                         push de
24DD D9                         exx
24DE C1                         pop bc
24DF 2A 7D 5C      L24DF:       ld hl,($5C7D)
24E2 78                         ld a,b
24E3 84                         add a,h
24E4 47                         ld b,a
24E5 79                         ld a,c
24E6 3C                         inc a
24E7 85                         add a,l
24E8 38 0D                      jr c,L24F7
24EA 28 0D                      jr z,L24F9
24EC 3D            L24EC:       dec a
24ED 4F                         ld c,a
24EE CD E5 22                   call L22E5
24F1 D9                         exx
24F2 79                         ld a,c
24F3 10 D9                      djnz L24CE
24F5 D1                         pop de
24F6 C9                         ret
24F7 28 F3         L24F7:       jr z,L24EC
24F9 CF            L24F9:       rst $08
24FA 0A                         ld a,(bc)
24FB DF            L24FB:       rst $18
24FC FE 25                      cp $25
24FE CA 05 06                   jp z,L0605
2501 06 00                      ld b,$00
2503 C5                         push bc
2504 EB            L2504:       ex de,hl
2505 26 06                      ld h,$06
2507 6F                         ld l,a
2508 ED 31                      add hl,a
250A 4E                         ld c,(hl)
250B 23                         inc hl
250C 66                         ld h,(hl)
250D 69                         ld l,c
250E E9                         jp (hl)
250F CD 74 00      L250F:       call L0074
2512 03                         inc bc
2513 FE 0D                      cp $0D
2515 CA 8A 1C                   jp z,L1C8A
2518 FE 22                      cp $22
251A 20 F3                      jr nz,L250F
251C CD 74 00                   call L0074
251F FE 22                      cp $22
2521 C9                         ret
2522 E7            L2522:       rst $20
2523 FE 28         L2523:       cp $28
2525 20 06                      jr nz,L252D
2527 CD 79 1C                   call L1C79
252A DF                         rst $18
252B FE 29                      cp $29
252D C2 8A 1C      L252D:       jp nz,L1C8A
2530 FD CB 01 7E   L2530:       bit 7,(iy+$01)
2534 C9                         ret
2535 CD 07 23      L2535:       call L2307
2538 2A 36 5C                   ld hl,($5C36)
253B ED 34 00 01                add hl,$0100
253F 79                         ld a,c
2540 0F                         rrca
2541 0F                         rrca
2542 0F                         rrca
2543 E6 E0                      and $E0
2545 A8                         xor b
2546 5F                         ld e,a
2547 79                         ld a,c
2548 E6 18                      and $18
254A EE 40                      xor $40
254C 57                         ld d,a
254D 06 60                      ld b,$60
254F C5            L254F:       push bc
2550 D5                         push de
2551 E5                         push hl
2552 1A                         ld a,(de)
2553 AE                         xor (hl)
2554 28 04                      jr z,L255A
2556 3C                         inc a
2557 20 19                      jr nz,L2572
2559 3D                         dec a
255A 4F            L255A:       ld c,a
255B 06 07                      ld b,$07
255D 14            L255D:       inc d
255E 23                         inc hl
255F 1A                         ld a,(de)
2560 AE                         xor (hl)
2561 A9                         xor c
2562 20 0E                      jr nz,L2572
2564 10 F7                      djnz L255D
2566 C1                         pop bc
2567 C1                         pop bc
2568 C1                         pop bc
2569 3E 80                      ld a,$80
256B 90                         sub b
256C 01 01 00                   ld bc,$0001
256F F7                         rst $30
2570 12                         ld (de),a
2571 C9                         ret
2572 E1            L2572:       pop hl
2573 ED 34 08 00                add hl,$0008
2577 D1                         pop de
2578 C1                         pop bc
2579 10 D4                      djnz L254F
257B 48                         ld c,b
257C C9                         ret
257D FF                         rst $38
257E FF                         rst $38
257F FF                         rst $38
2580 CD 07 23      L2580:       call L2307
2583 79                         ld a,c
2584 0F                         rrca
2585 0F                         rrca
2586 0F                         rrca
2587 4F                         ld c,a
2588 E6 E0                      and $E0
258A A8                         xor b
258B 6F                         ld l,a
258C 79                         ld a,c
258D E6 03                      and $03
258F EE 58                      xor $58
2591 67                         ld h,a
2592 7E                         ld a,(hl)
2593 C3 28 2D                   jp L2D28
2596 D5                         push de
2597 C5                         push bc
2598 DF                         rst $18
2599 C3 04 25                   jp L2504
259C FF                         rst $38
259D FF                         rst $38
259E FF                         rst $38
259F FF                         rst $38
25A0 FF                         rst $38
25A1 FF                         rst $38
25A2 FF                         rst $38
25A3 FF                         rst $38
25A4 FF                         rst $38
25A5 C1                         pop bc
25A6 79                         ld a,c
25A7 FE C6                      cp $C6
25A9 C2 8A 1C                   jp nz,L1C8A
25AC 0E FF                      ld c,$FF
25AE C5                         push bc
25AF E7                         rst $20
25B0 C3 04 25                   jp L2504
25B3 DF                         rst $18
25B4 23                         inc hl
25B5 E5                         push hl
25B6 01 00 00                   ld bc,$0000
25B9 CD 0F 25                   call L250F
25BC 20 1B                      jr nz,L25D9
25BE CD 0F 25      L25BE:       call L250F
25C1 28 FB                      jr z,L25BE
25C3 CD 30 25                   call L2530
25C6 28 11                      jr z,L25D9
25C8 F7                         rst $30
25C9 E1                         pop hl
25CA D5                         push de
25CB 7E            L25CB:       ld a,(hl)
25CC 23                         inc hl
25CD 12                         ld (de),a
25CE 13                         inc de
25CF FE 22                      cp $22
25D1 20 F8                      jr nz,L25CB
25D3 7E                         ld a,(hl)
25D4 23                         inc hl
25D5 FE 22                      cp $22
25D7 28 F2                      jr z,L25CB
25D9 0B            L25D9:       dec bc
25DA D1                         pop de
25DB 21 3B 5C      L25DB:       ld hl,$5C3B
25DE CB B6                      res 6,(hl)
25E0 CB 7E                      bit 7,(hl)
25E2 C4 B2 2A                   call nz,L2AB2
25E5 C3 12 27                   jp L2712
25E8 E7                         rst $20
25E9 CD FB 24                   call L24FB
25EC FE 29                      cp $29
25EE C2 8A 1C      L25EE:       jp nz,L1C8A
25F1 E7                         rst $20
25F2 C3 12 27                   jp L2712
25F5 C3 98 08                   jp L0898
25F8 E7                         rst $20
25F9 FE 28                      cp $28
25FB 20 1D                      jr nz,L261A
25FD CD 81 1C                   call L1C81
2600 FE 29                      cp $29
2602 20 EA                      jr nz,L25EE
2604 CD 30 25                   call L2530
2607 28 44                      jr z,L264D
2609 CD 99 1E                   call L1E99
260C 50                         ld d,b
260D 59                         ld e,c
260E CD 05 27                   call L2705
2611 2C                         inc l
2612 2A 42 4B                   ld hl,($4B42)
2615 CD 2F 2D                   call L2D2F
2618 18 33                      jr L264D
261A CD 30 25      L261A:       call L2530
261D 28 23                      jr z,L2642
261F 11 FF FF                   ld de,$FFFF
2622 CD 05 27                   call L2705
2625 36 2A                      ld (hl),$2A
2627 2A 76 5C                   ld hl,($5C76)
262A 3E 80                      ld a,$80
262C CB 7A         L262C:       bit 7,d
262E 20 08                      jr nz,L2638
2630 29                         add hl,hl
2631 EB                         ex de,hl
2632 ED 6A                      adc hl,hl
2634 EB                         ex de,hl
2635 3D                         dec a
2636 18 F4                      jr L262C
2638 CB BA         L2638:       res 7,d
263A 43                         ld b,e
263B 5A                         ld e,d
263C 50                         ld d,b
263D 4C                         ld c,h
263E 45                         ld b,l
263F CD B6 2A                   call L2AB6
2642 18 7F         L2642:       jr L26C3
2644 CD 30 25                   call L2530
2647 28 04                      jr z,L264D
2649 EF                         rst $28
264A A3                         and e
264B 38 34                      jr c,L2681
264D E7            L264D:       rst $20
264E C3 C3 26                   jp L26C3
2651 01 5A 10                   ld bc,$105A
2654 E7                         rst $20
2655 FE 23                      cp $23
2657 CA 2F 08                   jp z,L082F
265A 21 3B 5C                   ld hl,$5C3B
265D CB B6                      res 6,(hl)
265F CB 7E                      bit 7,(hl)
2661 28 1F                      jr z,L2682
2663 CD 8E 02                   call L028E
2666 0E 00                      ld c,$00
2668 20 13                      jr nz,L267D
266A CD 1E 03                   call L031E
266D 30 0E                      jr nc,L267D
266F 15                         dec d
2670 5F                         ld e,a
2671 CD 33 03                   call L0333
2674 F5                         push af
2675 01 01 00                   ld bc,$0001
2678 F7                         rst $30
2679 F1                         pop af
267A 12                         ld (de),a
267B 0E 01                      ld c,$01
267D 06 00         L267D:       ld b,$00
267F CD B2 2A                   call L2AB2
2682 C3 12 27      L2682:       jp L2712
2685 FF                         rst $38
2686 FF                         rst $38
2687 FF                         rst $38
2688 FF                         rst $38
2689 FF                         rst $38
268A FF                         rst $38
268B FF                         rst $38
268C FF                         rst $38
268D CD 30 25                   call L2530
2690 20 23                      jr nz,L26B5
2692 CD CC 2C                   call L2CCC
2695 DF                         rst $18
2696 01 06 00                   ld bc,$0006
2699 CD 55 16                   call L1655
269C 23                         inc hl
269D 36 0E                      ld (hl),$0E
269F 23                         inc hl
26A0 EB                         ex de,hl
26A1 2A 65 5C                   ld hl,($5C65)
26A4 0E 05                      ld c,$05
26A6 A7                         and a
26A7 ED 42                      sbc hl,bc
26A9 22 65 5C                   ld ($5C65),hl
26AC ED B0                      ldir
26AE EB                         ex de,hl
26AF 2B                         dec hl
26B0 CD 5E 15                   call L155E
26B3 18 0E                      jr L26C3
26B5 DF            L26B5:       rst $18
26B6 23            L26B6:       inc hl
26B7 7E                         ld a,(hl)
26B8 FE 0E                      cp $0E
26BA 20 FA                      jr nz,L26B6
26BC 23                         inc hl
26BD CD B4 33                   call L33B4
26C0 22 5D 5C                   ld ($5C5D),hl
26C3 FD CB 01 F6   L26C3:       set 6,(iy+$01)
26C7 18 15                      jr L26DE
26C9 EB                         ex de,hl
26CA CD C2 28                   call L28C2
26CD DA 2E 1C                   jp c,L1C2E
26D0 CC 96 29                   call z,L2996
26D3 3A 3B 5C                   ld a,($5C3B)
26D6 FE C0                      cp $C0
26D8 38 04                      jr c,L26DE
26DA 23                         inc hl
26DB CD B4 33                   call L33B4
26DE 18 32         L26DE:       jr L2712
26E0 00                         nop
26E1 00                         nop
26E2 ED 43 54 5B   L26E2:       ld ($5B54),bc
26E6 E3                         ex (sp),hl
26E7 4E                         ld c,(hl)
26E8 23                         inc hl
26E9 46                         ld b,(hl)
26EA 23                         inc hl
26EB E3                         ex (sp),hl
26EC ED 8A 26 F3   L26EC:       push $26F3
26F0 C5                         push bc
26F1 F5                         push af
26F2 3A 56 5B                   ld a,($5B56)
26F5 18 04                      jr L26FB
26F7 ED 43 54 5B                ld ($5B54),bc
26FB C1            L26FB:       pop bc
26FC 0E E3                      ld c,$E3
26FE ED 41                      out (c),b
2700 ED 4B 54 5B                ld bc,($5B54)
2704 C9                         ret
2705 32 56 5B      L2705:       ld ($5B56),a
2708 3E 87                      ld a,$87
270A C3 E2 26                   jp L26E2
270D FF                         rst $38
270E FF                         rst $38
270F FF                         rst $38
2710 FF                         rst $38
2711 FF                         rst $38
2712 DF            L2712:       rst $18
2713 FE 28         L2713:       cp $28
2715 20 0C                      jr nz,L2723
2717 FD CB 01 76                bit 6,(iy+$01)
271B 20 1A                      jr nz,L2737
271D CD 52 2A                   call L2A52
2720 E7                         rst $20
2721 18 F0                      jr L2713
2723 21 99 1A      L2723:       ld hl,$1A99
2726 ED 31                      add hl,a
2728 4E                         ld c,(hl)
2729 21 C9 1F                   ld hl,$1FC9
272C 79                         ld a,c
272D D6 3B                      sub $3B
272F DA B7 11                   jp c,L11B7
2732 E6 3F                      and $3F
2734 ED 31                      add hl,a
2736 46                         ld b,(hl)
2737 D1            L2737:       pop de
2738 7A                         ld a,d
2739 B8                         cp b
273A 38 37                      jr c,L2773
273C A7                         and a
273D CA 55 15                   jp z,L1555
2740 C5            L2740:       push bc
2741 21 3B 5C                   ld hl,$5C3B
2744 7B                         ld a,e
2745 FE ED                      cp $ED
2747 20 06                      jr nz,L274F
2749 CB 76                      bit 6,(hl)
274B 20 02                      jr nz,L274F
274D 1E 99                      ld e,$99
274F D5            L274F:       push de
2750 CB 7E                      bit 7,(hl)
2752 28 65                      jr z,L27B9
2754 7B                         ld a,e
2755 E6 3F                      and $3F
2757 CA 86 38                   jp z,L3886
275A CD 9D 27                   call L279D
275D ED 53 65 5C                ld ($5C65),de
2761 D1            L2761:       pop de
2762 21 3B 5C                   ld hl,$5C3B
2765 CB F6                      set 6,(hl)
2767 CB 7B                      bit 7,e
2769 20 02                      jr nz,L276D
276B CB B6                      res 6,(hl)
276D C1            L276D:       pop bc
276E 18 C7                      jr L2737
2770 FF                         rst $38
2771 FF                         rst $38
2772 FF                         rst $38
2773 D5            L2773:       push de
2774 79                         ld a,c
2775 FD CB 01 76                bit 6,(iy+$01)
2779 20 15                      jr nz,L2790
277B E6 3F                      and $3F
277D C6 08                      add a,$08
277F 4F                         ld c,a
2780 FE 10                      cp $10
2782 20 04                      jr nz,L2788
2784 CB F1                      set 6,c
2786 18 08                      jr L2790
2788 38 0B         L2788:       jr c,L2795
278A FE 17                      cp $17
278C 28 02                      jr z,L2790
278E CB F9                      set 7,c
2790 C5            L2790:       push bc
2791 E7                         rst $20
2792 C3 04 25                   jp L2504
2795 FE 0C         L2795:       cp $0C
2797 0E 7B                      ld c,$7B
2799 28 F5                      jr z,L2790
279B 18 2E                      jr L27CB
279D 21 D7 32      L279D:       ld hl,$32D7
27A0 ED 31                      add hl,a
27A2 ED 31                      add hl,a
27A4 4E                         ld c,(hl)
27A5 23                         inc hl
27A6 46                         ld b,(hl)
27A7 C5                         push bc
27A8 47                         ld b,a
27A9 11 FB FF                   ld de,$FFFB
27AC 2A 65 5C                   ld hl,($5C65)
27AF D6 18                      sub $18
27B1 FE 23                      cp $23
27B3 38 01                      jr c,L27B6
27B5 19                         add hl,de
27B6 EB            L27B6:       ex de,hl
27B7 19                         add hl,de
27B8 C9                         ret
27B9 C1            L27B9:       pop bc
27BA 79                         ld a,c
27BB E6 3F                      and $3F
27BD 20 03                      jr nz,L27C2
27BF E1                         pop hl
27C0 F1                         pop af
27C1 E5                         push hl
27C2 C5            L27C2:       push bc
27C3 7B                         ld a,e
27C4 FD AE 01                   xor (iy+$01)
27C7 E6 40                      and $40
27C9 28 96                      jr z,L2761
27CB C3 8A 1C      L27CB:       jp L1C8A
27CE 06 00                      ld b,$00
27D0 C5                         push bc
27D1 C3 40 27                   jp L2740
27D4 DF            L27D4:       rst $18
27D5 E5                         push hl
27D6 E7                         rst $20
27D7 FE 28                      cp $28
27D9 20 18                      jr nz,L27F3
27DB E1                         pop hl
27DC E7                         rst $20
27DD CD FB 24                   call L24FB
27E0 FE 29                      cp $29
27E2 28 06                      jr z,L27EA
27E4 FE 2C                      cp $2C
27E6 C2 8A 1C                   jp nz,L1C8A
27E9 3C                         inc a
27EA F5            L27EA:       push af
27EB E7                         rst $20
27EC F1                         pop af
27ED 7E                         ld a,(hl)
27EE 21 3B 5C                   ld hl,$5C3B
27F1 37                         scf
27F2 C9                         ret
27F3 E1            L27F3:       pop hl
27F4 C3 5F 15                   jp L155F
27F7 EF                         rst $28
27F8 32 02 38                   ld ($3802),a
27FB C9                         ret
27FC E5            L27FC:       push hl
27FD CD F1 2B                   call L2BF1
2800 E1                         pop hl
2801 C5                         push bc
2802 D5                         push de
2803 2B                         dec hl
2804 2B                         dec hl
2805 E5                         push hl
2806 AF                         xor a
2807 2B            L2807:       dec hl
2808 3D                         dec a
2809 CB 6E                      bit 5,(hl)
280B 20 FA                      jr nz,L2807
280D FE FF                      cp $FF
280F 28 02                      jr z,L2813
2811 2B                         dec hl
2812 3D                         dec a
2813 2B            L2813:       dec hl
2814 56                         ld d,(hl)
2815 2B                         dec hl
2816 5E                         ld e,(hl)
2817 E5                         push hl
2818 D9                         exx
2819 E1                         pop hl
281A D9                         exx
281B 1B                         dec de
281C 1B                         dec de
281D EB                         ex de,hl
281E C5                         push bc
281F 4F                         ld c,a
2820 06 FF                      ld b,$FF
2822 09                         add hl,bc
2823 C1                         pop bc
2824 A7                         and a
2825 ED 42                      sbc hl,bc
2827 30 31                      jr nc,L285A
2829 7C                         ld a,h
282A 2F                         cpl
282B 47                         ld b,a
282C 7D                         ld a,l
282D 2F                         cpl
282E 4F                         ld c,a
282F 03                         inc bc
2830 E1                         pop hl
2831 D1                         pop de
2832 E5                         push hl
2833 A7                         and a
2834 ED 52                      sbc hl,de
2836 38 0D                      jr c,L2845
2838 2A 65 5C                   ld hl,($5C65)
283B A7                         and a
283C ED 52                      sbc hl,de
283E 30 05                      jr nc,L2845
2840 A7                         and a
2841 EB                         ex de,hl
2842 ED 42                      sbc hl,bc
2844 EB                         ex de,hl
2845 E1            L2845:       pop hl
2846 D5                         push de
2847 C5                         push bc
2848 CD D4 3A                   call L3AD4
284B D9                         exx
284C C1                         pop bc
284D ED 42                      sbc hl,bc
284F 5E                         ld e,(hl)
2850 23                         inc hl
2851 56                         ld d,(hl)
2852 EB                         ex de,hl
2853 09                         add hl,bc
2854 EB                         ex de,hl
2855 72                         ld (hl),d
2856 2B                         dec hl
2857 73                         ld (hl),e
2858 D9                         exx
2859 D5                         push de
285A E1            L285A:       pop hl
285B D1                         pop de
285C C1                         pop bc
285D 71                         ld (hl),c
285E 23                         inc hl
285F 70                         ld (hl),b
2860 DD 7C                      ld a,xh
2862 87                         add a,a
2863 D8                         ret c
2864 23                         inc hl
2865 EB                         ex de,hl
2866 78                         ld a,b
2867 B1                         or c
2868 C8                         ret z
2869 ED B0                      ldir
286B C9                         ret
286C FD CB 30 D6   L286C:       set 2,(iy+$30)
2870 FD CB 01 F6                set 6,(iy+$01)
2874 01 BD 27                   ld bc,$27BD
2877 3E 87                      ld a,$87
2879 CD EC 26                   call L26EC
287C 0E 60                      ld c,$60
287E 7C                         ld a,h
287F FE 32                      cp $32
2881 28 02                      jr z,L2885
2883 0E 00                      ld c,$00
2885 AF            L2885:       xor a
2886 3C                         inc a
2887 C9                         ret
2888 E6 60         L2888:       and $60
288A FE 20                      cp $20
288C CA 22 29                   jp z,L2922
288F CD 3D 2A                   call L2A3D
2892 DA FC 28                   jp c,L28FC
2895 10 18                      djnz L28AF
2897 E5                         push hl
2898 79            L2898:       ld a,c
2899 D9                         exx
289A E1                         pop hl
289B 08                         ex af,af'
289C 23                         inc hl
289D 7E                         ld a,(hl)
289E 23                         inc hl
289F A7                         and a
28A0 D9                         exx
28A1 06 80                      ld b,$80
28A3 4F                         ld c,a
28A4 20 56                      jr nz,L28FC
28A6 D9                         exx
28A7 08                         ex af,af'
28A8 4F                         ld c,a
28A9 23                         inc hl
28AA 23                         inc hl
28AB FD CB 01 C6                set 0,(iy+$01)
28AF C3 7B 29      L28AF:       jp L297B
28B2 DF            L28B2:       rst $18
28B3 FE 25         L28B3:       cp $25
28B5 CA 6C 28                   jp z,L286C
28B8 FD CB 30 96   L28B8:       res 2,(iy+$30)
28BC CD 8D 2C                   call L2C8D
28BF D2 8A 1C                   jp nc,L1C8A
28C2 FD CB 01 F6   L28C2:       set 6,(iy+$01)
28C6 E5                         push hl
28C7 D9                         exx
28C8 E1                         pop hl
28C9 E6 1F                      and $1F
28CB 4F                         ld c,a
28CC 06 00                      ld b,$00
28CE E7            L28CE:       rst $20
28CF CD 88 2C                   call L2C88
28D2 04                         inc b
28D3 38 F9                      jr c,L28CE
28D5 FE 28                      cp $28
28D7 28 14                      jr z,L28ED
28D9 CB F1                      set 6,c
28DB FE 24                      cp $24
28DD 28 09                      jr z,L28E8
28DF CB E9                      set 5,c
28E1 05                         dec b
28E2 28 09                      jr z,L28ED
28E4 CB B1                      res 6,c
28E6 18 05                      jr L28ED
28E8 E7            L28E8:       rst $20
28E9 FD CB 01 B6                res 6,(iy+$01)
28ED FD CB 01 7E   L28ED:       bit 7,(iy+$01)
28F1 CA BE 21                   jp z,L21BE
28F4 2A 0B 5C                   ld hl,($5C0B)
28F7 11 00 00                   ld de,$0000
28FA CB B8         L28FA:       res 7,b
28FC 23            L28FC:       inc hl
28FD 19            L28FD:       add hl,de
28FE 7E                         ld a,(hl)
28FF FE 02                      cp $02
2901 30 30                      jr nc,L2933
2903 23                         inc hl
2904 5E                         ld e,(hl)
2905 23                         inc hl
2906 56                         ld d,(hl)
2907 23                         inc hl
2908 CB 78                      bit 7,b
290A 20 F0                      jr nz,L28FC
290C 47                         ld b,a
290D 7E                         ld a,(hl)
290E E6 7F                      and $7F
2910 B9                         cp c
2911 CA 88 28                   jp z,L2888
2914 3C                         inc a
2915 F2 FC 28                   jp p,L28FC
2918 23                         inc hl
2919 1B                         dec de
291A 7E                         ld a,(hl)
291B E6 7F                      and $7F
291D B9                         cp c
291E 20 DC                      jr nz,L28FC
2920 18 00                      jr L2922
2922 E5            L2922:       push hl
2923 D5                         push de
2924 CD 75 1A                   call L1A75
2927 D1                         pop de
2928 30 03                      jr nc,L292D
292A E1                         pop hl
292B 18 CF                      jr L28FC
292D 10 50         L292D:       djnz L297F
292F E3                         ex (sp),hl
2930 C3 98 28                   jp L2898
2933 11 0A 00      L2933:       ld de,$000A
2936 FE 22                      cp $22
2938 38 C2                      jr c,L28FC
293A FE 3E                      cp $3E
293C 38 BC                      jr c,L28FA
293E 5F                         ld e,a
293F CB B3                      res 6,e
2941 20 BA                      jr nz,L28FD
2943 2A 4B 5C                   ld hl,($5C4B)
2946 7E            L2946:       ld a,(hl)
2947 E6 7F                      and $7F
2949 28 2C                      jr z,L2977
294B B9                         cp c
294C 28 10                      jr z,L295E
294E 3C                         inc a
294F F2 72 29                   jp p,L2972
2952 23                         inc hl
2953 7E                         ld a,(hl)
2954 2B                         dec hl
2955 E6 7F                      and $7F
2957 B9                         cp c
2958 20 18                      jr nz,L2972
295A E5                         push hl
295B 23                         inc hl
295C 18 0E                      jr L296C
295E E6 60         L295E:       and $60
2960 FE 20                      cp $20
2962 28 07                      jr z,L296B
2964 CD 3D 2A                   call L2A3D
2967 38 09                      jr c,L2972
2969 18 10                      jr L297B
296B E5            L296B:       push hl
296C CD 75 1A      L296C:       call L1A75
296F 30 0E                      jr nc,L297F
2971 E1                         pop hl
2972 CD 48 1A      L2972:       call L1A48
2975 18 CF                      jr L2946
2977 41            L2977:       ld b,c
2978 C3 BA 21                   jp L21BA
297B 54            L297B:       ld d,h
297C 5D                         ld e,l
297D 18 07                      jr L2986
297F D1            L297F:       pop de
2980 1A                         ld a,(de)
2981 FE 7F                      cp $7F
2983 20 01                      jr nz,L2986
2985 13                         inc de
2986 41            L2986:       ld b,c
2987 CB 10         L2987:       rl b
2989 CB 70                      bit 6,b
298B 1A                         ld a,(de)
298C 47                         ld b,a
298D C9                         ret
298E FF                         rst $38
298F FF                         rst $38
2990 FF                         rst $38
2991 FF                         rst $38
2992 FF                         rst $38
2993 FF                         rst $38
2994 FF                         rst $38
2995 FF                         rst $38
2996 AF            L2996:       xor a
2997 00                         nop
2998 CB 79                      bit 7,c
299A 20 4D                      jr nz,L29E9
299C CB 78                      bit 7,b
299E 20 0E                      jr nz,L29AE
29A0 3C                         inc a
29A1 23            L29A1:       inc hl
29A2 4E                         ld c,(hl)
29A3 23                         inc hl
29A4 46                         ld b,(hl)
29A5 23                         inc hl
29A6 EB                         ex de,hl
29A7 CD B2 2A                   call L2AB2
29AA DF                         rst $18
29AB C3 85 16                   jp L1685
29AE 23            L29AE:       inc hl
29AF 23                         inc hl
29B0 23                         inc hl
29B1 46                         ld b,(hl)
29B2 CB 71                      bit 6,c
29B4 28 0A                      jr z,L29C0
29B6 05                         dec b
29B7 28 E8                      jr z,L29A1
29B9 EB                         ex de,hl
29BA DF                         rst $18
29BB FE 28                      cp $28
29BD 20 66                      jr nz,L2A25
29BF EB                         ex de,hl
29C0 EB            L29C0:       ex de,hl
29C1 18 27                      jr L29EA
29C3 E5            L29C3:       push hl
29C4 DF                         rst $18
29C5 E1                         pop hl
29C6 FE 2C                      cp $2C
29C8 28 23                      jr z,L29ED
29CA CB 79                      bit 7,c
29CC 28 57                      jr z,L2A25
29CE CB 71                      bit 6,c
29D0 20 06                      jr nz,L29D8
29D2 FE 29                      cp $29
29D4 20 40                      jr nz,L2A16
29D6 E7                         rst $20
29D7 C9                         ret
29D8 FE 29         L29D8:       cp $29
29DA CA 84 16                   jp z,L1684
29DD FE CC                      cp $CC
29DF 20 35                      jr nz,L2A16
29E1 DF            L29E1:       rst $18
29E2 2B                         dec hl
29E3 22 5D 5C                   ld ($5C5D),hl
29E6 C3 81 16                   jp L1681
29E9 47            L29E9:       ld b,a
29EA 21 00 00      L29EA:       ld hl,$0000
29ED E5            L29ED:       push hl
29EE E7                         rst $20
29EF E1                         pop hl
29F0 79                         ld a,c
29F1 FE C0                      cp $C0
29F3 20 0A                      jr nz,L29FF
29F5 DF                         rst $18
29F6 FE 29                      cp $29
29F8 CA 84 16                   jp z,L1684
29FB FE CC                      cp $CC
29FD 28 E2                      jr z,L29E1
29FF C5            L29FF:       push bc
2A00 E5                         push hl
2A01 CD EE 2A                   call L2AEE
2A04 E3                         ex (sp),hl
2A05 EB                         ex de,hl
2A06 CD CC 2A                   call L2ACC
2A09 38 1A                      jr c,L2A25
2A0B 0B                         dec bc
2A0C CD 9F 15                   call L159F
2A0F 09                         add hl,bc
2A10 D1                         pop de
2A11 C1                         pop bc
2A12 10 AF                      djnz L29C3
2A14 CB 79                      bit 7,c
2A16 20 62         L2A16:       jr nz,L2A7A
2A18 E5                         push hl
2A19 CB 71                      bit 6,c
2A1B C2 67 16                   jp nz,L1667
2A1E 42                         ld b,d
2A1F 4B                         ld c,e
2A20 DF                         rst $18
2A21 FE 29                      cp $29
2A23 28 02                      jr z,L2A27
2A25 CF            L2A25:       rst $08
2A26 02                         ld (bc),a
2A27 E7            L2A27:       rst $20
2A28 E1                         pop hl
2A29 11 05 00                   ld de,$0005
2A2C CD 9F 15                   call L159F
2A2F 09                         add hl,bc
2A30 C9                         ret
2A31 01 DB 09                   ld bc,$09DB
2A34 C3 2F 08                   jp L082F
2A37 01 18 10                   ld bc,$1018
2A3A C3 2F 08                   jp L082F
2A3D D9            L2A3D:       exx
2A3E E5                         push hl
2A3F 23            L2A3F:       inc hl
2A40 7E                         ld a,(hl)
2A41 FE 20                      cp $20
2A43 28 FA                      jr z,L2A3F
2A45 E1                         pop hl
2A46 D9                         exx
2A47 C3 88 2C                   jp L2C88
2A4A FF                         rst $38
2A4B FF                         rst $38
2A4C FF                         rst $38
2A4D FF                         rst $38
2A4E FF                         rst $38
2A4F FF                         rst $38
2A50 FF                         rst $38
2A51 FF                         rst $38
2A52 CD 30 25      L2A52:       call L2530
2A55 C4 F1 2B                   call nz,L2BF1
2A58 E7                         rst $20
2A59 FE 29                      cp $29
2A5B 28 50                      jr z,L2AAD
2A5D D5                         push de
2A5E AF                         xor a
2A5F F5                         push af
2A60 C5                         push bc
2A61 11 01 00                   ld de,$0001
2A64 DF                         rst $18
2A65 E1                         pop hl
2A66 FE CC                      cp $CC
2A68 28 17                      jr z,L2A81
2A6A F1                         pop af
2A6B CD CD 2A                   call L2ACD
2A6E F5                         push af
2A6F 50                         ld d,b
2A70 59                         ld e,c
2A71 E5                         push hl
2A72 DF                         rst $18
2A73 E1                         pop hl
2A74 FE CC                      cp $CC
2A76 28 09                      jr z,L2A81
2A78 FE 29                      cp $29
2A7A C2 8A 1C      L2A7A:       jp nz,L1C8A
2A7D 62                         ld h,d
2A7E 6B                         ld l,e
2A7F 18 13                      jr L2A94
2A81 E5            L2A81:       push hl
2A82 E7                         rst $20
2A83 E1                         pop hl
2A84 FE 29                      cp $29
2A86 28 0C                      jr z,L2A94
2A88 F1                         pop af
2A89 CD CD 2A                   call L2ACD
2A8C F5                         push af
2A8D DF                         rst $18
2A8E 60                         ld h,b
2A8F 69                         ld l,c
2A90 FE 29                      cp $29
2A92 20 E6                      jr nz,L2A7A
2A94 F1            L2A94:       pop af
2A95 E3                         ex (sp),hl
2A96 19                         add hl,de
2A97 2B                         dec hl
2A98 E3                         ex (sp),hl
2A99 A7                         and a
2A9A ED 52                      sbc hl,de
2A9C 01 00 00                   ld bc,$0000
2A9F 38 07                      jr c,L2AA8
2AA1 23                         inc hl
2AA2 A7                         and a
2AA3 FA 25 2A                   jp m,L2A25
2AA6 44                         ld b,h
2AA7 4D                         ld c,l
2AA8 D1            L2AA8:       pop de
2AA9 FD CB 01 B6                res 6,(iy+$01)
2AAD CD 30 25      L2AAD:       call L2530
2AB0 C8                         ret z
2AB1 AF            L2AB1:       xor a
2AB2 FD CB 01 B6   L2AB2:       res 6,(iy+$01)
2AB6 C5            L2AB6:       push bc
2AB7 CD 1B 3C                   call L3C1B
2ABA C1                         pop bc
2ABB 2A 65 5C                   ld hl,($5C65)
2ABE 77                         ld (hl),a
2ABF 23                         inc hl
2AC0 73                         ld (hl),e
2AC1 23                         inc hl
2AC2 72                         ld (hl),d
2AC3 23                         inc hl
2AC4 71                         ld (hl),c
2AC5 23                         inc hl
2AC6 70                         ld (hl),b
2AC7 23                         inc hl
2AC8 22 65 5C                   ld ($5C65),hl
2ACB C9                         ret
2ACC AF            L2ACC:       xor a
2ACD D5            L2ACD:       push de
2ACE E5                         push hl
2ACF F5                         push af
2AD0 CD 82 1C                   call L1C82
2AD3 F1                         pop af
2AD4 CD 30 25                   call L2530
2AD7 28 12                      jr z,L2AEB
2AD9 F5                         push af
2ADA CD 99 1E                   call L1E99
2ADD D1                         pop de
2ADE 78                         ld a,b
2ADF B1                         or c
2AE0 37                         scf
2AE1 28 05                      jr z,L2AE8
2AE3 E1                         pop hl
2AE4 E5                         push hl
2AE5 A7                         and a
2AE6 ED 42                      sbc hl,bc
2AE8 7A            L2AE8:       ld a,d
2AE9 DE 00                      sbc a,$00
2AEB E1            L2AEB:       pop hl
2AEC D1                         pop de
2AED C9                         ret
2AEE EB            L2AEE:       ex de,hl
2AEF 23                         inc hl
2AF0 5E                         ld e,(hl)
2AF1 23                         inc hl
2AF2 56                         ld d,(hl)
2AF3 C9                         ret
2AF4 CD 30 25                   call L2530
2AF7 C8                         ret z
2AF8 CD A9 30                   call L30A9
2AFB DA 15 1F                   jp c,L1F15
2AFE C9                         ret
2AFF 2A 4D 5C      L2AFF:       ld hl,($5C4D)
2B02 FD CB 30 56                bit 2,(iy+$30)
2B06 C2 0D 06                   jp nz,L060D
2B09 DD 26 40                   ld xh,$40
2B0C FD CB 37 4E                bit 1,(iy+$37)
2B10 28 3C                      jr z,L2B4E
2B12 CD D4 1B                   call L1BD4
2B15 FE 24                      cp $24
2B17 CA B5 2B                   jp z,L2BB5
2B1A 3E 05                      ld a,$05
2B1C 90                         sub b
2B1D 4F                         ld c,a
2B1E 06 00                      ld b,$00
2B20 2A 59 5C                   ld hl,($5C59)
2B23 2B                         dec hl
2B24 CD 55 16                   call L1655
2B27 23                         inc hl
2B28 EB                         ex de,hl
2B29 2A 4D 5C                   ld hl,($5C4D)
2B2C D6 06                      sub $06
2B2E 47                         ld b,a
2B2F 7E                         ld a,(hl)
2B30 CB EF                      set 5,a
2B32 12                         ld (de),a
2B33 28 07                      jr z,L2B3C
2B35 EE C0                      xor $C0
2B37 4F                         ld c,a
2B38 CD BF 1B                   call L1BBF
2B3B 79                         ld a,c
2B3C 13            L2B3C:       inc de
2B3D 01 05 00                   ld bc,$0005
2B40 2A 65 5C                   ld hl,($5C65)
2B43 A7                         and a
2B44 ED 42                      sbc hl,bc
2B46 22 65 5C                   ld ($5C65),hl
2B49 D5                         push de
2B4A ED B0                      ldir
2B4C E1                         pop hl
2B4D C9                         ret
2B4E FD CB 01 76   L2B4E:       bit 6,(iy+$01)
2B52 EB                         ex de,hl
2B53 1A                         ld a,(de)
2B54 20 E6                      jr nz,L2B3C
2B56 EB                         ex de,hl
2B57 ED 4B 72 5C                ld bc,($5C72)
2B5B FD CB 37 46                bit 0,(iy+$37)
2B5F 20 21                      jr nz,L2B82
2B61 78                         ld a,b
2B62 B1                         or c
2B63 C8                         ret z
2B64 E5                         push hl
2B65 C5                         push bc
2B66 CD F1 2B                   call L2BF1
2B69 E1                         pop hl
2B6A ED 42                      sbc hl,bc
2B6C DA 67 00                   jp c,L0067
2B6F E3                         ex (sp),hl
2B70 EB                         ex de,hl
2B71 78                         ld a,b
2B72 B1                         or c
2B73 28 02                      jr z,L2B77
2B75 ED B0                      ldir
2B77 C1            L2B77:       pop bc
2B78 EB                         ex de,hl
2B79 78            L2B79:       ld a,b
2B7A B1                         or c
2B7B C8                         ret z
2B7C 36 20                      ld (hl),$20
2B7E 23                         inc hl
2B7F 0B                         dec bc
2B80 18 F7                      jr L2B79
2B82 EB            L2B82:       ex de,hl
2B83 2A 65 5C                   ld hl,($5C65)
2B86 ED 52                      sbc hl,de
2B88 EB                         ex de,hl
2B89 DA FC 27                   jp c,L27FC
2B8C 2B                         dec hl
2B8D 03                         inc bc
2B8E 2B                         dec hl
2B8F 03                         inc bc
2B90 AF                         xor a
2B91 3D            L2B91:       dec a
2B92 2B                         dec hl
2B93 03                         inc bc
2B94 CB BE                      res 7,(hl)
2B96 CB 6E                      bit 5,(hl)
2B98 20 F7                      jr nz,L2B91
2B9A CB F6                      set 6,(hl)
2B9C E5                         push hl
2B9D C5                         push bc
2B9E F5                         push af
2B9F 47                         ld b,a
2BA0 CD B8 2B                   call L2BB8
2BA3 F1                         pop af
2BA4 C1                         pop bc
2BA5 E3                         ex (sp),hl
2BA6 3C                         inc a
2BA7 28 02                      jr z,L2BAB
2BA9 2B                         dec hl
2BAA 03                         inc bc
2BAB C5            L2BAB:       push bc
2BAC CD E8 19                   call L19E8
2BAF C1                         pop bc
2BB0 E1                         pop hl
2BB1 A7                         and a
2BB2 ED 42                      sbc hl,bc
2BB4 C9                         ret
2BB5 2A 4D 5C      L2BB5:       ld hl,($5C4D)
2BB8 22 5B 5C      L2BB8:       ld ($5C5B),hl
2BBB C5                         push bc
2BBC CD F1 2B                   call L2BF1
2BBF F1                         pop af
2BC0 ED 44                      neg
2BC2 DD 6F                      ld xl,a
2BC4 3D                         dec a
2BC5 28 01                      jr z,L2BC8
2BC7 3C                         inc a
2BC8 C5            L2BC8:       push bc
2BC9 EB                         ex de,hl
2BCA 09                         add hl,bc
2BCB 2B                         dec hl
2BCC 22 4D 5C                   ld ($5C4D),hl
2BCF ED 33                      add bc,a
2BD1 03                         inc bc
2BD2 03                         inc bc
2BD3 03                         inc bc
2BD4 2A 59 5C                   ld hl,($5C59)
2BD7 2B                         dec hl
2BD8 CD 55 16                   call L1655
2BDB C1                         pop bc
2BDC C5                         push bc
2BDD 23                         inc hl
2BDE E5                         push hl
2BDF DD 7C                      ld a,xh
2BE1 87                         add a,a
2BE2 C3 99 1B                   jp L1B99
2BE5 FF                         rst $38
2BE6 FF                         rst $38
2BE7 FF                         rst $38
2BE8 FF                         rst $38
2BE9 FF                         rst $38
2BEA FF                         rst $38
2BEB FF                         rst $38
2BEC FF                         rst $38
2BED FF                         rst $38
2BEE FF                         rst $38
2BEF FF                         rst $38
2BF0 FF                         rst $38
2BF1 2A 65 5C      L2BF1:       ld hl,($5C65)
2BF4 2B                         dec hl
2BF5 46                         ld b,(hl)
2BF6 2B                         dec hl
2BF7 4E                         ld c,(hl)
2BF8 2B                         dec hl
2BF9 56                         ld d,(hl)
2BFA 2B                         dec hl
2BFB 5E                         ld e,(hl)
2BFC 2B                         dec hl
2BFD 7E                         ld a,(hl)
2BFE 22 65 5C                   ld ($5C65),hl
2C01 C9                         ret
2C02 CD B8 28                   call L28B8
2C05 C2 8A 1C      L2C05:       jp nz,L1C8A
2C08 22 4D 5C                   ld ($5C4D),hl
2C0B ED 53 5B 5C                ld ($5C5B),de
2C0F CB 79                      bit 7,c
2C11 28 08                      jr z,L2C1B
2C13 CB B1                      res 6,c
2C15 CD 96 29                   call L2996
2C18 CD EE 1B                   call L1BEE
2C1B F5            L2C1B:       push af
2C1C E1                         pop hl
2C1D 22 52 5B                   ld ($5B52),hl
2C20 CB F9                      set 7,c
2C22 DD 61                      ld xh,c
2C24 06 00                      ld b,$00
2C26 C5                         push bc
2C27 11 01 00                   ld de,$0001
2C2A CB 71                      bit 6,c
2C2C 20 02                      jr nz,L2C30
2C2E 1E 05                      ld e,$05
2C30 E7            L2C30:       rst $20
2C31 26 FF                      ld h,$FF
2C33 CD CC 2A                   call L2ACC
2C36 DA 25 2A                   jp c,L2A25
2C39 E1                         pop hl
2C3A C5                         push bc
2C3B 24                         inc h
2C3C E5                         push hl
2C3D 60                         ld h,b
2C3E 69                         ld l,c
2C3F CD 9F 15                   call L159F
2C42 EB                         ex de,hl
2C43 DF                         rst $18
2C44 FE 2C                      cp $2C
2C46 28 E8                      jr z,L2C30
2C48 FE 29                      cp $29
2C4A 20 B9                      jr nz,L2C05
2C4C E7                         rst $20
2C4D C1                         pop bc
2C4E 68                         ld l,b
2C4F 26 00                      ld h,$00
2C51 29                         add hl,hl
2C52 23                         inc hl
2C53 19                         add hl,de
2C54 D5                         push de
2C55 E5                         push hl
2C56 C5                         push bc
2C57 DA 15 1F      L2C57:       jp c,L1F15
2C5A 3E C0                      ld a,$C0
2C5C BC                         cp h
2C5D 38 F8                      jr c,L2C57
2C5F 44                         ld b,h
2C60 4D                         ld c,l
2C61 CD B6 2A                   call L2AB6
2C64 2A 52 5B                   ld hl,($5B52)
2C67 E5                         push hl
2C68 F1                         pop af
2C69 38 39                      jr c,L2CA4
2C6B 2A 5B 5C                   ld hl,($5C5B)
2C6E CB FE                      set 7,(hl)
2C70 2A 4D 5C                   ld hl,($5C4D)
2C73 23                         inc hl
2C74 AF                         xor a
2C75 4E                         ld c,(hl)
2C76 77                         ld (hl),a
2C77 23                         inc hl
2C78 46                         ld b,(hl)
2C79 77                         ld (hl),a
2C7A 23                         inc hl
2C7B E5                         push hl
2C7C EB                         ex de,hl
2C7D 2A 65 5C                   ld hl,($5C65)
2C80 ED 52                      sbc hl,de
2C82 EB                         ex de,hl
2C83 D4 E8 19                   call nc,L19E8
2C86 18 13                      jr L2C9B
2C88 CD 1B 2D      L2C88:       call L2D1B
2C8B 3F                         ccf
2C8C D8                         ret c
2C8D FE 41         L2C8D:       cp $41
2C8F 3F                         ccf
2C90 D0                         ret nc
2C91 FE 5B                      cp $5B
2C93 D8                         ret c
2C94 FE 61                      cp $61
2C96 3F                         ccf
2C97 D0                         ret nc
2C98 FE 7B                      cp $7B
2C9A C9                         ret
2C9B 01 00 00      L2C9B:       ld bc,$0000
2C9E E1                         pop hl
2C9F CD 82 2B                   call L2B82
2CA2 18 06                      jr L2CAA
2CA4 CD D1 1B      L2CA4:       call L1BD1
2CA7 CD B5 2B                   call L2BB5
2CAA 23            L2CAA:       inc hl
2CAB F1                         pop af
2CAC 77                         ld (hl),a
2CAD DD 7C                      ld a,xh
2CAF 87                         add a,a
2CB0 7E                         ld a,(hl)
2CB1 C1                         pop bc
2CB2 09                         add hl,bc
2CB3 2B                         dec hl
2CB4 54                         ld d,h
2CB5 5D                         ld e,l
2CB6 1B                         dec de
2CB7 C1                         pop bc
2CB8 36 00                      ld (hl),$00
2CBA F2 BF 2C                   jp p,L2CBF
2CBD 36 20                      ld (hl),$20
2CBF ED B8         L2CBF:       lddr
2CC1 EB                         ex de,hl
2CC2 23                         inc hl
2CC3 D1            L2CC3:       pop de
2CC4 72                         ld (hl),d
2CC5 2B                         dec hl
2CC6 73                         ld (hl),e
2CC7 2B                         dec hl
2CC8 3D                         dec a
2CC9 20 F8                      jr nz,L2CC3
2CCB C9                         ret
2CCC 0E 10         L2CCC:       ld c,$10
2CCE FE 24                      cp $24
2CD0 28 0E                      jr z,L2CE0
2CD2 0E 02                      ld c,$02
2CD4 FE C4                      cp $C4
2CD6 28 08                      jr z,L2CE0
2CD8 FE 40                      cp $40
2CDA 28 04                      jr z,L2CE0
2CDC 0E 0A                      ld c,$0A
2CDE 18 01                      jr L2CE1
2CE0 E7            L2CE0:       rst $20
2CE1 79            L2CE1:       ld a,c
2CE2 CD 0F 2D                   call L2D0F
2CE5 FE 2E                      cp $2E
2CE7 28 0B                      jr z,L2CF4
2CE9 CD 3E 2D                   call L2D3E
2CEC FE 2E                      cp $2E
2CEE C2 A1 1E                   jp nz,L1EA1
2CF1 E7                         rst $20
2CF2 18 08         L2CF2:       jr L2CFC
2CF4 E7            L2CF4:       rst $20
2CF5 CD D8 1E                   call L1ED8
2CF8 DA 8A 1C      L2CF8:       jp c,L1C8A
2CFB DF                         rst $18
2CFC CD 22 2D      L2CFC:       call L2D22
2CFF DA A1 1E                   jp c,L1EA1
2D02 EF                         rst $28
2D03 E4 E5 04                   call po,L04E5
2D06 C4 05 0F                   call nz,L0F05
2D09 38 E7                      jr c,L2CF2
2D0B 18 EF                      jr L2CFC
2D0D 3E 0A         L2D0D:       ld a,$0A
2D0F CD 28 2D      L2D0F:       call L2D28
2D12 EF                         rst $28
2D13 C5                         push bc
2D14 02                         ld (bc),a
2D15 A1                         and c
2D16 C4 02 A0                   call nz,LA002
2D19 38 C9                      jr c,L2CE4
2D1B FE 30         L2D1B:       cp $30
2D1D D8                         ret c
2D1E FE 3A                      cp $3A
2D20 3F                         ccf
2D21 C9                         ret
2D22 CD D8 1E      L2D22:       call L1ED8
2D25 D8                         ret c
2D26 00                         nop
2D27 00                         nop
2D28 4F            L2D28:       ld c,a
2D29 06 00                      ld b,$00
2D2B FD 21 3A 5C                ld iy,$5C3A
2D2F AF            L2D2F:       xor a
2D30 5F                         ld e,a
2D31 51                         ld d,c
2D32 48                         ld c,b
2D33 47                         ld b,a
2D34 CD B6 2A                   call L2AB6
2D37 EF                         rst $28
2D38 38 A7                      jr c,L2CE1
2D3A C9                         ret
2D3B CD 0D 2D      L2D3B:       call L2D0D
2D3E DF            L2D3E:       rst $18
2D3F CD 22 2D      L2D3F:       call L2D22
2D42 D8                         ret c
2D43 EF                         rst $28
2D44 01 E5 04                   ld bc,$04E5
2D47 0F                         rrca
2D48 38 CD         L2D48:       jr c,L2D17
2D4A 74                         ld (hl),h
2D4B 00                         nop
2D4C 18 F1                      jr L2D3F
2D4E 7A            L2D4E:       ld a,d
2D4F 07            L2D4F:       rlca
2D50 0F                         rrca
2D51 30 02         L2D51:       jr nc,L2D55
2D53 2F                         cpl
2D54 3C                         inc a
2D55 F5            L2D55:       push af
2D56 21 92 5C                   ld hl,$5C92
2D59 CD 0B 35                   call L350B
2D5C EF                         rst $28
2D5D A4                         and h
2D5E 38 F1                      jr c,L2D51
2D60 CB 3F         L2D60:       srl a
2D62 30 0D         L2D62:       jr nc,L2D71
2D64 F5                         push af
2D65 EF                         rst $28
2D66 C1                         pop bc
2D67 E0                         ret po
2D68 00                         nop
2D69 04                         inc b
2D6A 04                         inc b
2D6B 33            L2D6B:       inc sp
2D6C 02                         ld (bc),a
2D6D 05                         dec b
2D6E E1                         pop hl
2D6F 38 F1                      jr c,L2D62
2D71 28 08         L2D71:       jr z,L2D7B
2D73 F5                         push af
2D74 EF                         rst $28
2D75 31 04 38                   ld sp,$3804
2D78 F1                         pop af
2D79 18 E5                      jr L2D60
2D7B EF            L2D7B:       rst $28
2D7C 02                         ld (bc),a
2D7D 38 C9                      jr c,L2D48
2D7F 23            L2D7F:       inc hl
2D80 4E                         ld c,(hl)
2D81 23                         inc hl
2D82 7E                         ld a,(hl)
2D83 A9                         xor c
2D84 91                         sub c
2D85 5F                         ld e,a
2D86 23                         inc hl
2D87 7E                         ld a,(hl)
2D88 89                         adc a,c
2D89 A9                         xor c
2D8A 57                         ld d,a
2D8B C9                         ret
2D8C 0E 00                      ld c,$00
2D8E E5            L2D8E:       push hl
2D8F 36 00                      ld (hl),$00
2D91 23                         inc hl
2D92 71                         ld (hl),c
2D93 23                         inc hl
2D94 7B                         ld a,e
2D95 A9                         xor c
2D96 91            L2D96:       sub c
2D97 77                         ld (hl),a
2D98 23                         inc hl
2D99 7A                         ld a,d
2D9A 89                         adc a,c
2D9B A9                         xor c
2D9C 77                         ld (hl),a
2D9D 23            L2D9D:       inc hl
2D9E 36 00                      ld (hl),$00
2DA0 E1                         pop hl
2DA1 C9                         ret
2DA2 EF            L2DA2:       rst $28
2DA3 38 7E         L2DA3:       jr c,L2E23
2DA5 A7                         and a
2DA6 28 05                      jr z,L2DAD
2DA8 EF                         rst $28
2DA9 A2                         and d
2DAA 0F                         rrca
2DAB 27                         daa
2DAC 38 EF                      jr c,L2D9D
2DAE 02                         ld (bc),a
2DAF 38 E5                      jr c,L2D96
2DB1 D5                         push de
2DB2 EB                         ex de,hl
2DB3 46                         ld b,(hl)
2DB4 CD 7F 2D                   call L2D7F
2DB7 AF                         xor a
2DB8 90                         sub b
2DB9 CB 79                      bit 7,c
2DBB 42                         ld b,d
2DBC 4B                         ld c,e
2DBD 7B                         ld a,e
2DBE D1                         pop de
2DBF E1                         pop hl
2DC0 C9                         ret
2DC1 57            L2DC1:       ld d,a
2DC2 17                         rla
2DC3 9F                         sbc a,a
2DC4 5F                         ld e,a
2DC5 4F                         ld c,a
2DC6 AF                         xor a
2DC7 47                         ld b,a
2DC8 CD B6 2A      L2DC8:       call L2AB6
2DCB EF                         rst $28
2DCC 34                         inc (hl)
2DCD EF                         rst $28
2DCE 1A                         ld a,(de)
2DCF 20 9A                      jr nz,L2D6B
2DD1 85                         add a,l
2DD2 04                         inc b
2DD3 27                         daa
2DD4 38 CD                      jr c,L2DA3
2DD6 A2                         and d
2DD7 2D                         dec l
2DD8 D8            L2DD8:       ret c
2DD9 F5                         push af
2DDA 05                         dec b
2DDB 04                         inc b
2DDC 28 03                      jr z,L2DE1
2DDE F1                         pop af
2DDF 37                         scf
2DE0 C9                         ret
2DE1 F1            L2DE1:       pop af
2DE2 C9                         ret
2DE3 EF            L2DE3:       rst $28
2DE4 31 36 00                   ld sp,$0036
2DE7 0B                         dec bc
2DE8 31 37 00                   ld sp,$0037
2DEB 0D                         dec c
2DEC 02                         ld (bc),a
2DED 38 3E                      jr c,L2E2D
2DEF 30 D7                      jr nc,L2DC8
2DF1 C9                         ret
2DF2 2A 38 3E                   ld hl,($3E38)
2DF5 2D                         dec l
2DF6 D7                         rst $10
2DF7 EF                         rst $28
2DF8 A0                         and b
2DF9 C3 C4 C5                   jp LC5C4
2DFC 02                         ld (bc),a
2DFD 38 D9                      jr c,L2DD8
2DFF E5                         push hl
2E00 D9                         exx
2E01 EF            L2E01:       rst $28
2E02 31 27 C2                   ld sp,$C227
2E05 03                         inc bc
2E06 E2 01 C2                   jp po,LC201
2E09 02                         ld (bc),a
2E0A 38 7E                      jr c,L2E8A
2E0C A7                         and a
2E0D 20 47                      jr nz,L2E56
2E0F CD 7F 2D                   call L2D7F
2E12 06 10                      ld b,$10
2E14 7A                         ld a,d
2E15 A7                         and a
2E16 20 06                      jr nz,L2E1E
2E18 B3                         or e
2E19 28 09                      jr z,L2E24
2E1B 53                         ld d,e
2E1C 06 08                      ld b,$08
2E1E D5            L2E1E:       push de
2E1F D9                         exx
2E20 D1                         pop de
2E21 D9                         exx
2E22 18 57                      jr L2E7B
2E24 EF            L2E24:       rst $28
2E25 02                         ld (bc),a
2E26 E2 38 7E                   jp po,L7E38
2E29 D6 7E                      sub $7E
2E2B CD C1 2D                   call L2DC1
2E2E 57                         ld d,a
2E2F 3A AC 5C                   ld a,($5CAC)
2E32 92                         sub d
2E33 32 AC 5C                   ld ($5CAC),a
2E36 CD 4E 2D                   call L2D4E
2E39 EF                         rst $28
2E3A 31 27 C1                   ld sp,$C127
2E3D 03                         inc bc
2E3E E1                         pop hl
2E3F 38 CD                      jr c,L2E0E
2E41 D5                         push de
2E42 2D                         dec l
2E43 E5                         push hl
2E44 32 A1 5C                   ld ($5CA1),a
2E47 3D                         dec a
2E48 17                         rla
2E49 9F                         sbc a,a
2E4A 3C                         inc a
2E4B 21 AB 5C                   ld hl,$5CAB
2E4E 77                         ld (hl),a
2E4F 23                         inc hl
2E50 86                         add a,(hl)
2E51 77                         ld (hl),a
2E52 E1                         pop hl
2E53 C3 CF 2E                   jp L2ECF
2E56 D6 80         L2E56:       sub $80
2E58 FE 1C                      cp $1C
2E5A 38 13                      jr c,L2E6F
2E5C CD C1 2D                   call L2DC1
2E5F D6 07                      sub $07
2E61 47                         ld b,a
2E62 21 AC 5C                   ld hl,$5CAC
2E65 86                         add a,(hl)
2E66 77                         ld (hl),a
2E67 78                         ld a,b
2E68 ED 44                      neg
2E6A CD 4F 2D                   call L2D4F
2E6D 18 92                      jr L2E01
2E6F EB            L2E6F:       ex de,hl
2E70 CD BA 2F                   call L2FBA
2E73 D9                         exx
2E74 CB FA                      set 7,d
2E76 7D                         ld a,l
2E77 D9                         exx
2E78 D6 80                      sub $80
2E7A 47                         ld b,a
2E7B CB 23         L2E7B:       sla e
2E7D CB 12                      rl d
2E7F D9                         exx
2E80 CB 13                      rl e
2E82 CB 12                      rl d
2E84 D9                         exx
2E85 21 AA 5C                   ld hl,$5CAA
2E88 0E 05                      ld c,$05
2E8A 7E            L2E8A:       ld a,(hl)
2E8B 8F                         adc a,a
2E8C 27                         daa
2E8D 77                         ld (hl),a
2E8E 2B                         dec hl
2E8F 0D                         dec c
2E90 20 F8                      jr nz,L2E8A
2E92 10 E7                      djnz L2E7B
2E94 AF                         xor a
2E95 21 A6 5C                   ld hl,$5CA6
2E98 11 A1 5C                   ld de,$5CA1
2E9B 06 09                      ld b,$09
2E9D ED 6F                      rld
2E9F 0E FF                      ld c,$FF
2EA1 ED 6F         L2EA1:       rld
2EA3 20 04                      jr nz,L2EA9
2EA5 0D                         dec c
2EA6 0C                         inc c
2EA7 20 0A                      jr nz,L2EB3
2EA9 12            L2EA9:       ld (de),a
2EAA 13                         inc de
2EAB FD 34 71                   inc (iy+$71)
2EAE FD 34 72                   inc (iy+$72)
2EB1 0E 00                      ld c,$00
2EB3 CB 40         L2EB3:       bit 0,b
2EB5 28 01                      jr z,L2EB8
2EB7 23                         inc hl
2EB8 10 E7         L2EB8:       djnz L2EA1
2EBA 3A AB 5C                   ld a,($5CAB)
2EBD D6 09                      sub $09
2EBF 38 0A                      jr c,L2ECB
2EC1 FD 35 71                   dec (iy+$71)
2EC4 3E 04                      ld a,$04
2EC6 FD BE 6F                   cp (iy+$6F)
2EC9 18 41                      jr L2F0C
2ECB EF            L2ECB:       rst $28
2ECC 02                         ld (bc),a
2ECD E2 38 EB                   jp po,LEB38
2ED0 CD BA 2F                   call L2FBA
2ED3 D9                         exx
2ED4 3E 80                      ld a,$80
2ED6 95                         sub l
2ED7 2E 00                      ld l,$00
2ED9 CB FA                      set 7,d
2EDB D9                         exx
2EDC CD DD 2F                   call L2FDD
2EDF FD 7E 71      L2EDF:       ld a,(iy+$71)
2EE2 FE 08                      cp $08
2EE4 38 06                      jr c,L2EEC
2EE6 D9                         exx
2EE7 CB 12                      rl d
2EE9 D9                         exx
2EEA 18 20                      jr L2F0C
2EEC 01 00 02      L2EEC:       ld bc,$0200
2EEF 7B            L2EEF:       ld a,e
2EF0 CD 8B 2F                   call L2F8B
2EF3 5F                         ld e,a
2EF4 7A                         ld a,d
2EF5 CD 8B 2F                   call L2F8B
2EF8 57                         ld d,a
2EF9 C5                         push bc
2EFA D9                         exx
2EFB C1                         pop bc
2EFC 10 F1                      djnz L2EEF
2EFE 21 A1 5C                   ld hl,$5CA1
2F01 FD 7E 71                   ld a,(iy+$71)
2F04 ED 31                      add hl,a
2F06 71                         ld (hl),c
2F07 FD 34 71                   inc (iy+$71)
2F0A 18 D3                      jr L2EDF
2F0C F5            L2F0C:       push af
2F0D 21 A1 5C      L2F0D:       ld hl,$5CA1
2F10 FD 46 71                   ld b,(iy+$71)
2F13 78                         ld a,b
2F14 ED 31                      add hl,a
2F16 F1                         pop af
2F17 00                         nop
2F18 2B            L2F18:       dec hl
2F19 7E                         ld a,(hl)
2F1A CE 00                      adc a,$00
2F1C 77                         ld (hl),a
2F1D A7                         and a
2F1E 28 05                      jr z,L2F25
2F20 FE 0A                      cp $0A
2F22 3F                         ccf
2F23 30 08                      jr nc,L2F2D
2F25 10 F1         L2F25:       djnz L2F18
2F27 36 01                      ld (hl),$01
2F29 04                         inc b
2F2A FD 34 72                   inc (iy+$72)
2F2D FD 70 71      L2F2D:       ld (iy+$71),b
2F30 EF                         rst $28
2F31 02                         ld (bc),a
2F32 38 D9                      jr c,L2F0D
2F34 E1                         pop hl
2F35 D9                         exx
2F36 ED 4B AB 5C                ld bc,($5CAB)
2F3A 21 A1 5C                   ld hl,$5CA1
2F3D 78                         ld a,b
2F3E FE 09                      cp $09
2F40 38 04                      jr c,L2F46
2F42 FE FC                      cp $FC
2F44 38 26                      jr c,L2F6C
2F46 A7            L2F46:       and a
2F47 CC EF 15                   call z,L15EF
2F4A AF            L2F4A:       xor a
2F4B 90                         sub b
2F4C FA 52 2F                   jp m,L2F52
2F4F 47                         ld b,a
2F50 18 0C                      jr L2F5E
2F52 79            L2F52:       ld a,c
2F53 A7                         and a
2F54 28 03                      jr z,L2F59
2F56 7E                         ld a,(hl)
2F57 23                         inc hl
2F58 0D                         dec c
2F59 CD EF 15      L2F59:       call L15EF
2F5C 10 F4                      djnz L2F52
2F5E 79            L2F5E:       ld a,c
2F5F A7                         and a
2F60 C8                         ret z
2F61 04                         inc b
2F62 3E 2E                      ld a,$2E
2F64 D7            L2F64:       rst $10
2F65 3E 30                      ld a,$30
2F67 10 FB                      djnz L2F64
2F69 41                         ld b,c
2F6A 18 E6                      jr L2F52
2F6C 50            L2F6C:       ld d,b
2F6D 15                         dec d
2F6E 06 01                      ld b,$01
2F70 CD 4A 2F                   call L2F4A
2F73 3E 45                      ld a,$45
2F75 D7                         rst $10
2F76 4A                         ld c,d
2F77 79                         ld a,c
2F78 A7                         and a
2F79 F2 83 2F                   jp p,L2F83
2F7C ED 44                      neg
2F7E 4F                         ld c,a
2F7F 3E 2D                      ld a,$2D
2F81 18 02                      jr L2F85
2F83 3E 2B         L2F83:       ld a,$2B
2F85 D7            L2F85:       rst $10
2F86 06 00                      ld b,$00
2F88 C3 1B 1A                   jp L1A1B
2F8B D5            L2F8B:       push de
2F8C 6F                         ld l,a
2F8D 26 00                      ld h,$00
2F8F 5D                         ld e,l
2F90 54                         ld d,h
2F91 29                         add hl,hl
2F92 29                         add hl,hl
2F93 19                         add hl,de
2F94 29                         add hl,hl
2F95 59                         ld e,c
2F96 19                         add hl,de
2F97 4C                         ld c,h
2F98 7D                         ld a,l
2F99 D1                         pop de
2F9A C9                         ret
2F9B 7E            L2F9B:       ld a,(hl)
2F9C 36 00                      ld (hl),$00
2F9E A7                         and a
2F9F C8                         ret z
2FA0 23                         inc hl
2FA1 CB 7E                      bit 7,(hl)
2FA3 CB FE                      set 7,(hl)
2FA5 2B                         dec hl
2FA6 C8                         ret z
2FA7 C5                         push bc
2FA8 01 05 00                   ld bc,$0005
2FAB 09                         add hl,bc
2FAC 41                         ld b,c
2FAD 4F                         ld c,a
2FAE 37                         scf
2FAF 2B            L2FAF:       dec hl
2FB0 7E                         ld a,(hl)
2FB1 2F                         cpl
2FB2 CE 00                      adc a,$00
2FB4 77                         ld (hl),a
2FB5 10 F8                      djnz L2FAF
2FB7 79                         ld a,c
2FB8 C1                         pop bc
2FB9 C9                         ret
2FBA E5            L2FBA:       push hl
2FBB F5                         push af
2FBC 4E                         ld c,(hl)
2FBD 23                         inc hl
2FBE 46                         ld b,(hl)
2FBF 77                         ld (hl),a
2FC0 23                         inc hl
2FC1 79                         ld a,c
2FC2 4E                         ld c,(hl)
2FC3 C5                         push bc
2FC4 23                         inc hl
2FC5 4E                         ld c,(hl)
2FC6 23                         inc hl
2FC7 46                         ld b,(hl)
2FC8 EB                         ex de,hl
2FC9 57                         ld d,a
2FCA 5E                         ld e,(hl)
2FCB D5                         push de
2FCC 23                         inc hl
2FCD 56                         ld d,(hl)
2FCE 23                         inc hl
2FCF 5E                         ld e,(hl)
2FD0 D5                         push de
2FD1 D9                         exx
2FD2 D1                         pop de
2FD3 E1                         pop hl
2FD4 C1                         pop bc
2FD5 D9                         exx
2FD6 23                         inc hl
2FD7 56                         ld d,(hl)
2FD8 23                         inc hl
2FD9 5E                         ld e,(hl)
2FDA F1                         pop af
2FDB E1                         pop hl
2FDC C9                         ret
2FDD A7            L2FDD:       and a
2FDE C8                         ret z
2FDF FE 21                      cp $21
2FE1 30 16                      jr nc,L2FF9
2FE3 C5                         push bc
2FE4 47                         ld b,a
2FE5 D9            L2FE5:       exx
2FE6 CB 2D                      sra l
2FE8 CB 1A                      rr d
2FEA CB 1B                      rr e
2FEC D9                         exx
2FED CB 1A                      rr d
2FEF CB 1B                      rr e
2FF1 10 F2                      djnz L2FE5
2FF3 C1                         pop bc
2FF4 D0                         ret nc
2FF5 CD 04 30                   call L3004
2FF8 C0                         ret nz
2FF9 D9            L2FF9:       exx
2FFA AF                         xor a
2FFB 2E 00         L2FFB:       ld l,$00
2FFD 57                         ld d,a
2FFE 5D                         ld e,l
2FFF D9                         exx
3000 11 00 00                   ld de,$0000
3003 C9                         ret
3004 1C            L3004:       inc e
3005 C0                         ret nz
3006 14                         inc d
3007 C0                         ret nz
3008 D9                         exx
3009 1C                         inc e
300A 20 01                      jr nz,L300D
300C 14                         inc d
300D D9            L300D:       exx
300E C9                         ret
300F EB            L300F:       ex de,hl
3010 CD 6E 34                   call L346E
3013 EB                         ex de,hl
3014 1A                         ld a,(de)
3015 B6                         or (hl)
3016 20 26                      jr nz,L303E
3018 D5                         push de
3019 23                         inc hl
301A E5                         push hl
301B 23                         inc hl
301C 5E                         ld e,(hl)
301D 23                         inc hl
301E 56                         ld d,(hl)
301F 23                         inc hl
3020 23                         inc hl
3021 23                         inc hl
3022 7E                         ld a,(hl)
3023 23                         inc hl
3024 4E                         ld c,(hl)
3025 23                         inc hl
3026 46                         ld b,(hl)
3027 E1                         pop hl
3028 EB                         ex de,hl
3029 ED 4A                      adc hl,bc
302B EB                         ex de,hl
302C CA 26 32                   jp z,L3226
302F 8E                         adc a,(hl)
3030 0F                         rrca
3031 CE 00                      adc a,$00
3033 20 07                      jr nz,L303C
3035 9F                         sbc a,a
3036 77            L3036:       ld (hl),a
3037 23                         inc hl
3038 73                         ld (hl),e
3039 C3 37 32                   jp L3237
303C 2B            L303C:       dec hl
303D D1                         pop de
303E CD 93 32      L303E:       call L3293
3041 D9                         exx
3042 E5                         push hl
3043 D9                         exx
3044 D5                         push de
3045 E5                         push hl
3046 CD 9B 2F                   call L2F9B
3049 47                         ld b,a
304A EB                         ex de,hl
304B CD 9B 2F                   call L2F9B
304E 4F                         ld c,a
304F B8                         cp b
3050 30 03                      jr nc,L3055
3052 78                         ld a,b
3053 41                         ld b,c
3054 EB                         ex de,hl
3055 F5            L3055:       push af
3056 90                         sub b
3057 CD BA 2F                   call L2FBA
305A CD DD 2F                   call L2FDD
305D F1                         pop af
305E E1                         pop hl
305F 77                         ld (hl),a
3060 E5                         push hl
3061 68                         ld l,b
3062 61                         ld h,c
3063 19                         add hl,de
3064 D9                         exx
3065 EB                         ex de,hl
3066 ED 4A                      adc hl,bc
3068 EB                         ex de,hl
3069 7C                         ld a,h
306A 8D                         adc a,l
306B 6F                         ld l,a
306C 1F                         rra
306D AD                         xor l
306E D9                         exx
306F EB                         ex de,hl
3070 E1                         pop hl
3071 1F                         rra
3072 30 08                      jr nc,L307C
3074 3E 01                      ld a,$01
3076 CD DD 2F                   call L2FDD
3079 34                         inc (hl)
307A 28 23                      jr z,L309F
307C D9            L307C:       exx
307D 7D                         ld a,l
307E E6 80                      and $80
3080 D9                         exx
3081 23                         inc hl
3082 77                         ld (hl),a
3083 2B                         dec hl
3084 28 1F                      jr z,L30A5
3086 7B                         ld a,e
3087 ED 44                      neg
3089 3F                         ccf
308A 5F                         ld e,a
308B 7A                         ld a,d
308C 2F                         cpl
308D CE 00                      adc a,$00
308F 57                         ld d,a
3090 D9                         exx
3091 7B                         ld a,e
3092 2F                         cpl
3093 CE 00                      adc a,$00
3095 5F                         ld e,a
3096 7A                         ld a,d
3097 2F                         cpl
3098 CE 00                      adc a,$00
309A 30 07                      jr nc,L30A3
309C 1F                         rra
309D D9                         exx
309E 34                         inc (hl)
309F CA AD 31      L309F:       jp z,L31AD
30A2 D9                         exx
30A3 57            L30A3:       ld d,a
30A4 D9                         exx
30A5 AF            L30A5:       xor a
30A6 C3 55 31                   jp L3155
30A9 C5            L30A9:       push bc
30AA 06 10                      ld b,$10
30AC 7C                         ld a,h
30AD 4D                         ld c,l
30AE 21 00 00                   ld hl,$0000
30B1 29            L30B1:       add hl,hl
30B2 38 0A                      jr c,L30BE
30B4 CB 11                      rl c
30B6 17                         rla
30B7 30 03                      jr nc,L30BC
30B9 19                         add hl,de
30BA 38 02                      jr c,L30BE
30BC 10 F3         L30BC:       djnz L30B1
30BE C1            L30BE:       pop bc
30BF C9                         ret
30C0 CD E9 34      L30C0:       call L34E9
30C3 D8                         ret c
30C4 23                         inc hl
30C5 AE                         xor (hl)
30C6 CB FE                      set 7,(hl)
30C8 2B                         dec hl
30C9 C9                         ret
30CA 1A                         ld a,(de)
30CB B6                         or (hl)
30CC 20 22                      jr nz,L30F0
30CE D5                         push de
30CF E5                         push hl
30D0 D5                         push de
30D1 CD 7F 2D                   call L2D7F
30D4 EB                         ex de,hl
30D5 E3                         ex (sp),hl
30D6 41                         ld b,c
30D7 CD 7F 2D                   call L2D7F
30DA 78                         ld a,b
30DB A9                         xor c
30DC 4F                         ld c,a
30DD E1                         pop hl
30DE C5                         push bc
30DF CD 79 15                   call L1579
30E2 C1                         pop bc
30E3 EB                         ex de,hl
30E4 E1                         pop hl
30E5 38 08                      jr c,L30EF
30E7 20 01                      jr nz,L30EA
30E9 4F                         ld c,a
30EA CD 8E 2D      L30EA:       call L2D8E
30ED D1                         pop de
30EE C9                         ret
30EF D1            L30EF:       pop de
30F0 CD 93 32      L30F0:       call L3293
30F3 AF                         xor a
30F4 CD C0 30                   call L30C0
30F7 D8                         ret c
30F8 D9                         exx
30F9 E5                         push hl
30FA D9                         exx
30FB D5                         push de
30FC EB                         ex de,hl
30FD CD C0 30                   call L30C0
3100 EB                         ex de,hl
3101 38 5A                      jr c,L315D
3103 E5                         push hl
3104 CD BA 2F                   call L2FBA
3107 78                         ld a,b
3108 A7                         and a
3109 ED 62                      sbc hl,hl
310B D9                         exx
310C E5                         push hl
310D ED 62                      sbc hl,hl
310F D9                         exx
3110 06 21                      ld b,$21
3112 18 11                      jr L3125
3114 30 05         L3114:       jr nc,L311B
3116 19                         add hl,de
3117 D9                         exx
3118 ED 5A                      adc hl,de
311A D9                         exx
311B D9            L311B:       exx
311C CB 1C                      rr h
311E CB 1D                      rr l
3120 D9                         exx
3121 CB 1C                      rr h
3123 CB 1D                      rr l
3125 D9            L3125:       exx
3126 CB 18                      rr b
3128 CB 19                      rr c
312A D9                         exx
312B CB 19                      rr c
312D 1F                         rra
312E 10 E4                      djnz L3114
3130 EB                         ex de,hl
3131 D9                         exx
3132 EB                         ex de,hl
3133 D9                         exx
3134 C1                         pop bc
3135 E1                         pop hl
3136 78                         ld a,b
3137 81                         add a,c
3138 20 01                      jr nz,L313B
313A A7                         and a
313B 3D            L313B:       dec a
313C 3F                         ccf
313D 17            L313D:       rla
313E 3F                         ccf
313F 1F                         rra
3140 F2 46 31                   jp p,L3146
3143 30 68                      jr nc,L31AD
3145 A7                         and a
3146 3C            L3146:       inc a
3147 20 08                      jr nz,L3151
3149 38 06                      jr c,L3151
314B D9                         exx
314C CB 7A                      bit 7,d
314E D9                         exx
314F 20 5C                      jr nz,L31AD
3151 77            L3151:       ld (hl),a
3152 D9                         exx
3153 78                         ld a,b
3154 D9                         exx
3155 30 15         L3155:       jr nc,L316C
3157 7E                         ld a,(hl)
3158 A7                         and a
3159 3E 80         L3159:       ld a,$80
315B 28 01                      jr z,L315E
315D AF            L315D:       xor a
315E D9            L315E:       exx
315F A2                         and d
3160 CD FB 2F                   call L2FFB
3163 07                         rlca
3164 77                         ld (hl),a
3165 38 2E                      jr c,L3195
3167 23                         inc hl
3168 77                         ld (hl),a
3169 2B                         dec hl
316A 18 29                      jr L3195
316C 06 20         L316C:       ld b,$20
316E D9            L316E:       exx
316F CB 7A                      bit 7,d
3171 D9                         exx
3172 20 12                      jr nz,L3186
3174 07                         rlca
3175 CB 13                      rl e
3177 CB 12                      rl d
3179 D9                         exx
317A CB 13                      rl e
317C CB 12                      rl d
317E D9                         exx
317F 35                         dec (hl)
3180 28 D7                      jr z,L3159
3182 10 EA                      djnz L316E
3184 18 D7                      jr L315D
3186 17            L3186:       rla
3187 30 0C                      jr nc,L3195
3189 CD 04 30                   call L3004
318C 20 07                      jr nz,L3195
318E D9                         exx
318F 16 80                      ld d,$80
3191 D9                         exx
3192 34                         inc (hl)
3193 28 18                      jr z,L31AD
3195 E5            L3195:       push hl
3196 23                         inc hl
3197 D9                         exx
3198 D5                         push de
3199 D9                         exx
319A C1                         pop bc
319B 78                         ld a,b
319C 17                         rla
319D CB 16                      rl (hl)
319F 1F                         rra
31A0 77                         ld (hl),a
31A1 23                         inc hl
31A2 71                         ld (hl),c
31A3 23                         inc hl
31A4 72                         ld (hl),d
31A5 23                         inc hl
31A6 73                         ld (hl),e
31A7 E1                         pop hl
31A8 D1                         pop de
31A9 D9                         exx
31AA E1                         pop hl
31AB D9                         exx
31AC C9                         ret
31AD CF            L31AD:       rst $08
31AE 05                         dec b
31AF CD 93 32                   call L3293
31B2 EB                         ex de,hl
31B3 AF                         xor a
31B4 CD C0 30                   call L30C0
31B7 38 F4                      jr c,L31AD
31B9 EB                         ex de,hl
31BA CD C0 30                   call L30C0
31BD D8                         ret c
31BE D9                         exx
31BF E5                         push hl
31C0 D9                         exx
31C1 D5                         push de
31C2 E5                         push hl
31C3 CD BA 2F                   call L2FBA
31C6 D9                         exx
31C7 E5                         push hl
31C8 60                         ld h,b
31C9 69                         ld l,c
31CA D9                         exx
31CB 61                         ld h,c
31CC 68                         ld l,b
31CD AF                         xor a
31CE 06 DF                      ld b,$DF
31D0 18 10                      jr L31E2
31D2 17            L31D2:       rla
31D3 CB 11                      rl c
31D5 D9                         exx
31D6 CB 11                      rl c
31D8 CB 10                      rl b
31DA D9                         exx
31DB 29            L31DB:       add hl,hl
31DC D9                         exx
31DD ED 6A                      adc hl,hl
31DF D9                         exx
31E0 38 10                      jr c,L31F2
31E2 ED 52         L31E2:       sbc hl,de
31E4 D9                         exx
31E5 ED 52                      sbc hl,de
31E7 D9                         exx
31E8 30 0F                      jr nc,L31F9
31EA 19                         add hl,de
31EB D9                         exx
31EC ED 5A                      adc hl,de
31EE D9                         exx
31EF A7                         and a
31F0 18 08                      jr L31FA
31F2 A7            L31F2:       and a
31F3 ED 52                      sbc hl,de
31F5 D9                         exx
31F6 ED 52                      sbc hl,de
31F8 D9                         exx
31F9 37            L31F9:       scf
31FA 04            L31FA:       inc b
31FB FA D2 31                   jp m,L31D2
31FE F5                         push af
31FF 28 DA                      jr z,L31DB
3201 5F                         ld e,a
3202 51                         ld d,c
3203 D9                         exx
3204 59                         ld e,c
3205 50                         ld d,b
3206 F1                         pop af
3207 CB 18                      rr b
3209 F1                         pop af
320A CB 18                      rr b
320C D9                         exx
320D C1                         pop bc
320E E1                         pop hl
320F 78                         ld a,b
3210 91                         sub c
3211 C3 3D 31                   jp L313D
3214 7E                         ld a,(hl)
3215 A7                         and a
3216 C8                         ret z
3217 FE 81                      cp $81
3219 30 06                      jr nc,L3221
321B 36 00                      ld (hl),$00
321D 3E 20                      ld a,$20
321F 18 51                      jr L3272
3221 FE 91         L3221:       cp $91
3223 C3 3F 32                   jp L323F
3226 30 13         L3226:       jr nc,L323B
3228 AE                         xor (hl)
3229 7B                         ld a,e
322A C2 36 30                   jp nz,L3036
322D 7E                         ld a,(hl)
322E E6 80                      and $80
3230 2B                         dec hl
3231 36 91                      ld (hl),$91
3233 23                         inc hl
3234 C3 36 30                   jp L3036
3237 23            L3237:       inc hl
3238 72                         ld (hl),d
3239 2B                         dec hl
323A 2B                         dec hl
323B 2B            L323B:       dec hl
323C D1                         pop de
323D C9                         ret
323E FF                         rst $38
323F 30 2C         L323F:       jr nc,L326D
3241 D5                         push de
3242 2F                         cpl
3243 C6 91                      add a,$91
3245 23                         inc hl
3246 56                         ld d,(hl)
3247 23                         inc hl
3248 5E                         ld e,(hl)
3249 2B                         dec hl
324A 2B                         dec hl
324B 0E 00                      ld c,$00
324D CB 7A                      bit 7,d
324F 28 01                      jr z,L3252
3251 0D                         dec c
3252 CB FA         L3252:       set 7,d
3254 06 08                      ld b,$08
3256 90                         sub b
3257 80                         add a,b
3258 38 04                      jr c,L325E
325A 5A                         ld e,d
325B 16 00                      ld d,$00
325D 90                         sub b
325E 28 07         L325E:       jr z,L3267
3260 47                         ld b,a
3261 CB 3A         L3261:       srl d
3263 CB 1B                      rr e
3265 10 FA                      djnz L3261
3267 CD 8E 2D      L3267:       call L2D8E
326A D1                         pop de
326B C9                         ret
326C 7E                         ld a,(hl)
326D D6 A0         L326D:       sub $A0
326F F0                         ret p
3270 ED 44                      neg
3272 D5            L3272:       push de
3273 EB                         ex de,hl
3274 2B                         dec hl
3275 47                         ld b,a
3276 CB 38                      srl b
3278 CB 38                      srl b
327A CB 38                      srl b
327C 28 05                      jr z,L3283
327E 36 00         L327E:       ld (hl),$00
3280 2B                         dec hl
3281 10 FB                      djnz L327E
3283 E6 07         L3283:       and $07
3285 28 09                      jr z,L3290
3287 47                         ld b,a
3288 3E FF                      ld a,$FF
328A CB 27         L328A:       sla a
328C 10 FC                      djnz L328A
328E A6                         and (hl)
328F 77                         ld (hl),a
3290 EB            L3290:       ex de,hl
3291 D1            L3291:       pop de
3292 C9                         ret
3293 CD 96 32      L3293:       call L3296
3296 EB            L3296:       ex de,hl
3297 7E            L3297:       ld a,(hl)
3298 A7                         and a
3299 C0                         ret nz
329A D5                         push de
329B CD 7F 2D                   call L2D7F
329E AF                         xor a
329F 23                         inc hl
32A0 77                         ld (hl),a
32A1 2B                         dec hl
32A2 77                         ld (hl),a
32A3 06 91                      ld b,$91
32A5 7A                         ld a,d
32A6 A7                         and a
32A7 20 08                      jr nz,L32B1
32A9 B3                         or e
32AA 42            L32AA:       ld b,d
32AB 28 10                      jr z,L32BD
32AD 53                         ld d,e
32AE 58                         ld e,b
32AF 06 89                      ld b,$89
32B1 EB            L32B1:       ex de,hl
32B2 05            L32B2:       dec b
32B3 29                         add hl,hl
32B4 30 FC                      jr nc,L32B2
32B6 CB 09                      rrc c
32B8 CB 1C                      rr h
32BA CB 1D                      rr l
32BC EB            L32BC:       ex de,hl
32BD 2B            L32BD:       dec hl
32BE 73                         ld (hl),e
32BF 2B                         dec hl
32C0 72                         ld (hl),d
32C1 2B                         dec hl
32C2 70                         ld (hl),b
32C3 D1                         pop de
32C4 C9                         ret
32C5 ED 8A 5B 48   L32C5:       push $5B48
32C9 C5                         push bc
32CA C3 3E 5B                   jp L5B3E
32CD ED 8A 5B 48   L32CD:       push $5B48
32D1 E5                         push hl
32D2 C3 3E 5B                   jp L5B3E
32D5 FF                         rst $38
32D6 FF                         rst $38
32D7 00                         nop
32D8 00                         nop
32D9 4B                         ld c,e
32DA 3C                         inc a
32DB 5D                         ld e,l
32DC 3C                         inc a
32DD 0F                         rrca
32DE 30 CA                      jr nc,L32AA
32E0 30 AF                      jr nc,L3291
32E2 31 51 38                   ld sp,$3851
32E5 1B                         dec de
32E6 35                         dec (hl)
32E7 24                         inc h
32E8 35                         dec (hl)
32E9 3B                         dec sp
32EA 35                         dec (hl)
32EB 3B                         dec sp
32EC 35                         dec (hl)
32ED 3B                         dec sp
32EE 35                         dec (hl)
32EF 3B                         dec sp
32F0 35                         dec (hl)
32F1 3B                         dec sp
32F2 35                         dec (hl)
32F3 3B                         dec sp
32F4 35                         dec (hl)
32F5 14                         inc d
32F6 30 2D                      jr nc,L3325
32F8 35                         dec (hl)
32F9 3B                         dec sp
32FA 35                         dec (hl)
32FB 3B                         dec sp
32FC 35                         dec (hl)
32FD 3B                         dec sp
32FE 35                         dec (hl)
32FF 3B                         dec sp
3300 35                         dec (hl)
3301 3B                         dec sp
3302 35            L3302:       dec (hl)
3303 3B                         dec sp
3304 35                         dec (hl)
3305 9C                         sbc a,h
3306 35                         dec (hl)
3307 DE 35                      sbc a,$35
3309 BC                         cp h
330A 34                         inc (hl)
330B 45                         ld b,l
330C 36 6E                      ld (hl),$6E
330E 34                         inc (hl)
330F 69                         ld l,c
3310 36 DE                      ld (hl),$DE
3312 35                         dec (hl)
3313 74                         ld (hl),h
3314 36 B5                      ld (hl),$B5
3316 37                         scf
3317 AA                         xor d
3318 37                         scf
3319 DA 37 33                   jp c,L3337
331C 38 43                      jr c,L3361
331E 38 E2                      jr c,L3302
3320 37                         scf
3321 13                         inc de
3322 37                         scf
3323 C4 36 AF                   call nz,LAF36
3326 36 4A                      ld (hl),$4A
3328 38 92                      jr c,L32BC
332A 34                         inc (hl)
332B 6A                         ld l,d
332C 34                         inc (hl)
332D AC                         xor h
332E 34                         inc (hl)
332F A5                         and l
3330 34                         inc (hl)
3331 B3                         or e
3332 34                         inc (hl)
3333 1F                         rra
3334 36 C9                      ld (hl),$C9
3336 35                         dec (hl)
3337 01 35 71      L3337:       ld bc,$7135
333A 10 75                      djnz L33B1
333C 3C                         inc a
333D 46                         ld b,(hl)
333E 39                         add hl,sp
333F 02                         ld (bc),a
3340 39                         add hl,sp
3341 02                         ld (bc),a
3342 39                         add hl,sp
3343 02                         ld (bc),a
3344 39                         add hl,sp
3345 B9                         cp c
3346 34                         inc (hl)
3347 BA                         cp d
3348 38 00                      jr c,L334A
334A 00            L334A:       nop
334B 00                         nop
334C 00                         nop
334D 26 09                      ld h,$09
334F F7                         rst $30
3350 27                         daa
3351 8F                         adc a,a
3352 3C                         inc a
3353 89                         adc a,c
3354 3C                         inc a
3355 83                         add a,e
3356 3C                         inc a
3357 FF                         rst $38
3358 FF                         rst $38
3359 FF                         rst $38
335A FF                         rst $38
335B CD BF 35      L335B:       call L35BF
335E 78            L335E:       ld a,b
335F 32 67 5C                   ld ($5C67),a
3362 D9            L3362:       exx
3363 E3                         ex (sp),hl
3364 D9                         exx
3365 ED 53 65 5C                ld ($5C65),de
3369 D9                         exx
336A 7E                         ld a,(hl)
336B 23                         inc hl
336C E5            L336C:       push hl
336D A7                         and a
336E F2 80 33                   jp p,L3380
3371 57                         ld d,a
3372 E6 60                      and $60
3374 ED 23                      swapnib
3376 C6 7C                      add a,$7C
3378 6F                         ld l,a
3379 7A                         ld a,d
337A E6 1F                      and $1F
337C C3 8E 33                   jp L338E
337F 00                         nop
3380 FE 18         L3380:       cp $18
3382 30 08                      jr nc,L338C
3384 D9                         exx
3385 54                         ld d,h
3386 5D                         ld e,l
3387 ED 34 FB FF                add hl,$FFFB
338B D9                         exx
338C 07            L338C:       rlca
338D 6F                         ld l,a
338E 26 00         L338E:       ld h,$00
3390 ED 34 02 3B                add hl,$3B02
3394 5E                         ld e,(hl)
3395 23                         inc hl
3396 56                         ld d,(hl)
3397 21 65 33                   ld hl,$3365
339A E3                         ex (sp),hl
339B D5                         push de
339C D9                         exx
339D ED 4B 66 5C                ld bc,($5C66)
33A1 C9                         ret
33A2 F1                         pop af
33A3 3A 67 5C                   ld a,($5C67)
33A6 D9                         exx
33A7 18 C3                      jr L336C
33A9 D5            L33A9:       push de
33AA E5                         push hl
33AB 01 05 00                   ld bc,$0005
33AE CD 05 1F                   call L1F05
33B1 E1            L33B1:       pop hl
33B2 D1                         pop de
33B3 C9                         ret
33B4 ED 5B 65 5C   L33B4:       ld de,($5C65)
33B8 CD 2E 3C                   call L3C2E
33BB ED 53 65 5C                ld ($5C65),de
33BF C9                         ret
33C0 CD A9 33                   call L33A9
33C3 ED B0                      ldir
33C5 C9                         ret
33C6 62                         ld h,d
33C7 6B                         ld l,e
33C8 CD 1B 3C                   call L3C1B
33CB D9                         exx
33CC E5                         push hl
33CD D9                         exx
33CE E3                         ex (sp),hl
33CF 7E                         ld a,(hl)
33D0 E6 C0                      and $C0
33D2 07                         rlca
33D3 07                         rlca
33D4 4F                         ld c,a
33D5 0C                         inc c
33D6 7E                         ld a,(hl)
33D7 E6 3F                      and $3F
33D9 20 02                      jr nz,L33DD
33DB 23                         inc hl
33DC 7E                         ld a,(hl)
33DD C6 50         L33DD:       add a,$50
33DF 12                         ld (de),a
33E0 3E 05                      ld a,$05
33E2 91                         sub c
33E3 23                         inc hl
33E4 13                         inc de
33E5 06 00                      ld b,$00
33E7 ED B0                      ldir
33E9 E3                         ex (sp),hl
33EA D9                         exx
33EB E1                         pop hl
33EC D9                         exx
33ED 47                         ld b,a
33EE AF                         xor a
33EF 05            L33EF:       dec b
33F0 C8                         ret z
33F1 12                         ld (de),a
33F2 13                         inc de
33F3 18 FA                      jr L33EF
33F5 FF                         rst $38
33F6 FF                         rst $38
33F7 FF                         rst $38
33F8 FF                         rst $38
33F9 FF                         rst $38
33FA FF                         rst $38
33FB FF                         rst $38
33FC FF                         rst $38
33FD FF                         rst $38
33FE FF                         rst $38
33FF FF                         rst $38
3400 FF                         rst $38
3401 FF                         rst $38
3402 FF                         rst $38
3403 FF                         rst $38
3404 FF                         rst $38
3405 FF                         rst $38
3406 4F            L3406:       ld c,a
3407 07                         rlca
3408 07                         rlca
3409 81                         add a,c
340A ED 31                      add hl,a
340C C9                         ret
340D FF                         rst $38
340E FF                         rst $38
340F D5                         push de
3410 2A 68 5C                   ld hl,($5C68)
3413 CD 06 34                   call L3406
3416 CD 2E 3C                   call L3C2E
3419 E1                         pop hl
341A C9                         ret
341B 21 02 3C                   ld hl,$3C02
341E 4F                         ld c,a
341F 87                         add a,a
3420 87                         add a,a
3421 81                         add a,c
3422 ED 31                      add hl,a
3424 D5                         push de
3425 CD 2E 3C                   call L3C2E
3428 E1            L3428:       pop hl
3429 C9                         ret
342A FF                         rst $38
342B FF                         rst $38
342C FF                         rst $38
342D E5                         push hl
342E EB                         ex de,hl
342F 2A 68 5C                   ld hl,($5C68)
3432 CD 06 34                   call L3406
3435 EB                         ex de,hl
3436 CD 40 3C                   call L3C40
3439 EB                         ex de,hl
343A E1                         pop hl
343B C9                         ret
343C 06 05         L343C:       ld b,$05
343E 1A            L343E:       ld a,(de)
343F 4E                         ld c,(hl)
3440 EB                         ex de,hl
3441 12                         ld (de),a
3442 71                         ld (hl),c
3443 23                         inc hl
3444 13                         inc de
3445 10 F7                      djnz L343E
3447 EB                         ex de,hl
3448 C9                         ret
3449 47                         ld b,a
344A CD 5E 33                   call L335E
344D 31 0F C0                   ld sp,$C00F
3450 02                         ld (bc),a
3451 A0                         and b
3452 C2 31 E0                   jp nz,LE031
3455 04                         inc b
3456 E2 C1 03                   jp po,L03C1
3459 38 CD                      jr c,L3428
345B C6 33                      add a,$33
345D CD 62 33                   call L3362
3460 0F                         rrca
3461 01 C2 02                   ld bc,$02C2
3464 35                         dec (hl)
3465 EE E1                      xor $E1
3467 03                         inc bc
3468 38 C9                      jr c,L3433
346A 06 FF                      ld b,$FF
346C 18 06                      jr L3474
346E CD E9 34      L346E:       call L34E9
3471 D8                         ret c
3472 06 00                      ld b,$00
3474 7E            L3474:       ld a,(hl)
3475 A7                         and a
3476 28 0B                      jr z,L3483
3478 23                         inc hl
3479 78                         ld a,b
347A E6 80                      and $80
347C B6                         or (hl)
347D 17                         rla
347E 3F                         ccf
347F 1F                         rra
3480 77                         ld (hl),a
3481 2B                         dec hl
3482 C9                         ret
3483 D5            L3483:       push de
3484 E5                         push hl
3485 CD 7F 2D                   call L2D7F
3488 E1                         pop hl
3489 78                         ld a,b
348A B1                         or c
348B 2F                         cpl
348C 4F                         ld c,a
348D CD 8E 2D                   call L2D8E
3490 D1                         pop de
3491 C9                         ret
3492 CD E9 34                   call L34E9
3495 D8                         ret c
3496 D5                         push de
3497 11 01 00                   ld de,$0001
349A 23                         inc hl
349B CB 16                      rl (hl)
349D 2B                         dec hl
349E 9F                         sbc a,a
349F 4F                         ld c,a
34A0 CD 8E 2D                   call L2D8E
34A3 D1                         pop de
34A4 C9                         ret
34A5 CD 99 1E                   call L1E99
34A8 ED 78                      in a,(c)
34AA 18 04                      jr L34B0
34AC CD 99 1E                   call L1E99
34AF 0A                         ld a,(bc)
34B0 C3 28 2D      L34B0:       jp L2D28
34B3 37                         scf
34B4 16 FE         L34B4:       ld d,$FE
34B6 C3 8C 21                   jp L218C
34B9 A7                         and a
34BA 18 F8                      jr L34B4
34BC CD F1 2B                   call L2BF1
34BF 0B                         dec bc
34C0 78                         ld a,b
34C1 B1                         or c
34C2 20 23                      jr nz,L34E7
34C4 1A                         ld a,(de)
34C5 CD DF 3B                   call L3BDF
34C8 D6 90                      sub $90
34CA 38 1B                      jr c,L34E7
34CC 26 00                      ld h,$00
34CE 6F                         ld l,a
34CF 29                         add hl,hl
34D0 29                         add hl,hl
34D1 29                         add hl,hl
34D2 ED 4B 7B 5C                ld bc,($5C7B)
34D6 09                         add hl,bc
34D7 44                         ld b,h
34D8 4D                         ld c,l
34D9 30 04                      jr nc,L34DF
34DB FE 15                      cp $15
34DD 30 08                      jr nc,L34E7
34DF C3 2F 2D      L34DF:       jp L2D2F
34E2 E5            L34E2:       push hl
34E3 C3 01 16                   jp L1601
34E6 00                         nop
34E7 CF            L34E7:       rst $08
34E8 09                         add hl,bc
34E9 E5            L34E9:       push hl
34EA C5                         push bc
34EB 47                         ld b,a
34EC 7E                         ld a,(hl)
34ED 23                         inc hl
34EE B6                         or (hl)
34EF 23                         inc hl
34F0 B6                         or (hl)
34F1 23                         inc hl
34F2 B6                         or (hl)
34F3 78                         ld a,b
34F4 C1                         pop bc
34F5 E1                         pop hl
34F6 C0                         ret nz
34F7 37                         scf
34F8 C9                         ret
34F9 CD E9 34      L34F9:       call L34E9
34FC D8                         ret c
34FD 3E FF                      ld a,$FF
34FF 18 06                      jr L3507
3501 CD E9 34      L3501:       call L34E9
3504 18 05                      jr L350B
3506 AF                         xor a
3507 23            L3507:       inc hl
3508 AE                         xor (hl)
3509 2B                         dec hl
350A 07                         rlca
350B E5            L350B:       push hl
350C 3E 00                      ld a,$00
350E 77                         ld (hl),a
350F 23                         inc hl
3510 77                         ld (hl),a
3511 23                         inc hl
3512 17                         rla
3513 77                         ld (hl),a
3514 1F                         rra
3515 23                         inc hl
3516 77                         ld (hl),a
3517 23                         inc hl
3518 77                         ld (hl),a
3519 E1                         pop hl
351A C9                         ret
351B EB                         ex de,hl
351C CD E9 34                   call L34E9
351F EB                         ex de,hl
3520 D8                         ret c
3521 37                         scf
3522 18 E7                      jr L350B
3524 EB                         ex de,hl
3525 CD E9 34                   call L34E9
3528 EB                         ex de,hl
3529 D0                         ret nc
352A A7                         and a
352B 18 DE                      jr L350B
352D EB                         ex de,hl
352E CD E9 34                   call L34E9
3531 EB                         ex de,hl
3532 D0                         ret nc
3533 D5                         push de
3534 1B                         dec de
3535 AF                         xor a
3536 12                         ld (de),a
3537 1B                         dec de
3538 12                         ld (de),a
3539 D1                         pop de
353A C9                         ret
353B 78                         ld a,b
353C D6 08                      sub $08
353E CB 57                      bit 2,a
3540 20 01                      jr nz,L3543
3542 3D                         dec a
3543 0F            L3543:       rrca
3544 30 08                      jr nc,L354E
3546 F5                         push af
3547 E5                         push hl
3548 CD 3C 34                   call L343C
354B D1                         pop de
354C EB                         ex de,hl
354D F1                         pop af
354E CB 57         L354E:       bit 2,a
3550 20 07                      jr nz,L3559
3552 0F                         rrca
3553 F5                         push af
3554 CD 0F 30                   call L300F
3557 18 33                      jr L358C
3559 0F            L3559:       rrca
355A F5                         push af
355B CD F1 2B                   call L2BF1
355E D5                         push de
355F C5                         push bc
3560 CD F1 2B                   call L2BF1
3563 E1                         pop hl
3564 7C            L3564:       ld a,h
3565 B5                         or l
3566 E3                         ex (sp),hl
3567 78                         ld a,b
3568 20 0B                      jr nz,L3575
356A B1                         or c
356B C1            L356B:       pop bc
356C 28 04                      jr z,L3572
356E F1                         pop af
356F 3F                         ccf
3570 18 16                      jr L3588
3572 F1            L3572:       pop af
3573 18 13                      jr L3588
3575 B1            L3575:       or c
3576 28 0D                      jr z,L3585
3578 1A                         ld a,(de)
3579 96                         sub (hl)
357A 38 09                      jr c,L3585
357C 20 ED                      jr nz,L356B
357E 0B            L357E:       dec bc
357F 13                         inc de
3580 23                         inc hl
3581 E3                         ex (sp),hl
3582 2B                         dec hl
3583 18 DF                      jr L3564
3585 C1            L3585:       pop bc
3586 F1                         pop af
3587 A7                         and a
3588 F5            L3588:       push af
3589 EF                         rst $28
358A A0                         and b
358B 38 F1                      jr c,L357E
358D F5                         push af
358E DC 01 35                   call c,L3501
3591 F1                         pop af
3592 F5                         push af
3593 D4 F9 34                   call nc,L34F9
3596 F1                         pop af
3597 0F                         rrca
3598 D4 01 35                   call nc,L3501
359B C9                         ret
359C CD F1 2B                   call L2BF1
359F D5                         push de
35A0 C5                         push bc
35A1 CD F1 2B                   call L2BF1
35A4 E1                         pop hl
35A5 E5                         push hl
35A6 D5                         push de
35A7 C5                         push bc
35A8 09                         add hl,bc
35A9 44                         ld b,h
35AA 4D                         ld c,l
35AB F7                         rst $30
35AC CD B2 2A                   call L2AB2
35AF C1                         pop bc
35B0 E1                         pop hl
35B1 78                         ld a,b
35B2 B1                         or c
35B3 28 02                      jr z,L35B7
35B5 ED B0                      ldir
35B7 C1            L35B7:       pop bc
35B8 E1                         pop hl
35B9 78                         ld a,b
35BA B1                         or c
35BB 28 02                      jr z,L35BF
35BD ED B0                      ldir
35BF 2A 65 5C      L35BF:       ld hl,($5C65)
35C2 54                         ld d,h
35C3 5D                         ld e,l
35C4 ED 34 FB FF                add hl,$FFFB
35C8 C9                         ret
35C9 CD D5 2D                   call L2DD5
35CC 38 0E                      jr c,L35DC
35CE 20 0C                      jr nz,L35DC
35D0 F5                         push af
35D1 01 01 00                   ld bc,$0001
35D4 F7                         rst $30
35D5 F1                         pop af
35D6 12                         ld (de),a
35D7 CD B2 2A      L35D7:       call L2AB2
35DA EB                         ex de,hl
35DB C9                         ret
35DC CF            L35DC:       rst $08
35DD 0A                         ld a,(bc)
35DE 2A 5D 5C                   ld hl,($5C5D)
35E1 E5                         push hl
35E2 78                         ld a,b
35E3 C6 E3                      add a,$E3
35E5 9F                         sbc a,a
35E6 F5                         push af
35E7 CD F1 2B                   call L2BF1
35EA D5                         push de
35EB 03                         inc bc
35EC F7                         rst $30
35ED E1                         pop hl
35EE ED 53 5D 5C                ld ($5C5D),de
35F2 D5                         push de
35F3 ED B0                      ldir
35F5 EB                         ex de,hl
35F6 2B                         dec hl
35F7 36 0D                      ld (hl),$0D
35F9 FD CB 01 BE                res 7,(iy+$01)
35FD CD FB 24                   call L24FB
3600 DF                         rst $18
3601 FE 0D                      cp $0D
3603 20 07                      jr nz,L360C
3605 E1                         pop hl
3606 F1                         pop af
3607 FD AE 01                   xor (iy+$01)
360A E6 40                      and $40
360C C2 8A 1C      L360C:       jp nz,L1C8A
360F 22 5D 5C                   ld ($5C5D),hl
3612 FD CB 01 FE                set 7,(iy+$01)
3616 CD FB 24                   call L24FB
3619 E1                         pop hl
361A 22 5D 5C                   ld ($5C5D),hl
361D 18 A0                      jr L35BF
361F 11 E3 2D                   ld de,$2DE3
3622 D5            L3622:       push de
3623 01 01 00                   ld bc,$0001
3626 F7                         rst $30
3627 22 5B 5C                   ld ($5C5B),hl
362A E3                         ex (sp),hl
362B E5                         push hl
362C 2A 51 5C                   ld hl,($5C51)
362F E3                         ex (sp),hl
3630 3E FF                      ld a,$FF
3632 CD E2 34                   call L34E2
3635 E1                         pop hl
3636 CD 15 16                   call L1615
3639 D1                         pop de
363A 2A 5B 5C                   ld hl,($5C5B)
363D A7                         and a
363E ED 52                      sbc hl,de
3640 44                         ld b,h
3641 4D                         ld c,l
3642 C3 D7 35                   jp L35D7
3645 CD 94 1E                   call L1E94
3648 FE 10                      cp $10
364A D2 9F 1E                   jp nc,L1E9F
364D 2A 51 5C                   ld hl,($5C51)
3650 E5                         push hl
3651 CD 01 16                   call L1601
3654 CD E6 15                   call L15E6
3657 01 00 00                   ld bc,$0000
365A 30 03                      jr nc,L365F
365C 0C                         inc c
365D F7                         rst $30
365E 12                         ld (de),a
365F CD B2 2A      L365F:       call L2AB2
3662 E1                         pop hl
3663 CD 15 16                   call L1615
3666 C3 BF 35                   jp L35BF
3669 CD F1 2B                   call L2BF1
366C 78                         ld a,b
366D B1                         or c
366E 28 01                      jr z,L3671
3670 1A                         ld a,(de)
3671 C3 28 2D      L3671:       jp L2D28
3674 CD F1 2B      L3674:       call L2BF1
3677 C3 2F 2D                   jp L2D2F
367A D9                         exx
367B E5                         push hl
367C 21 67 5C                   ld hl,$5C67
367F 35                         dec (hl)
3680 E1                         pop hl
3681 20 04                      jr nz,L3687
3683 23                         inc hl
3684 D9                         exx
3685 C9                         ret
3686 D9            L3686:       exx
3687 5E            L3687:       ld e,(hl)
3688 7B                         ld a,e
3689 17                         rla
368A 9F                         sbc a,a
368B 57                         ld d,a
368C 19                         add hl,de
368D D9            L368D:       exx
368E C9                         ret
368F 13                         inc de
3690 13                         inc de
3691 1A                         ld a,(de)
3692 1B                         dec de
3693 1B                         dec de
3694 A7                         and a
3695 20 EF                      jr nz,L3686
3697 D9                         exx
3698 23                         inc hl
3699 D9                         exx
369A C9                         ret
369B F1                         pop af
369C D9                         exx
369D E3                         ex (sp),hl
369E D9                         exx
369F C9                         ret
36A0 EF                         rst $28
36A1 C0                         ret nz
36A2 02                         ld (bc),a
36A3 31 E0 05                   ld sp,$05E0
36A6 27                         daa
36A7 E0                         ret po
36A8 01 C0 04                   ld bc,$04C0
36AB 03                         inc bc
36AC E0                         ret po
36AD 38 C9                      jr c,L3678
36AF EF                         rst $28
36B0 31 36 00                   ld sp,$0036
36B3 04                         inc b
36B4 3A 38 C9                   ld a,($C938)
36B7 31 3A C0                   ld sp,$C03A
36BA 03                         inc bc
36BB E0                         ret po
36BC 01 30 00                   ld bc,$0030
36BF 03                         inc bc
36C0 A1                         and c
36C1 03                         inc bc
36C2 38 C9                      jr c,L368D
36C4 EF                         rst $28
36C5 3D                         dec a
36C6 34                         inc (hl)
36C7 F1            L36C7:       pop af
36C8 38 AA                      jr c,L3674
36CA 3B                         dec sp
36CB 29                         add hl,hl
36CC 04                         inc b
36CD 31 27 C3                   ld sp,$C327
36D0 03                         inc bc
36D1 31 0F A1                   ld sp,$A10F
36D4 03                         inc bc
36D5 88                         adc a,b
36D6 13                         inc de
36D7 36 58                      ld (hl),$58
36D9 65                         ld h,l
36DA 66                         ld h,(hl)
36DB 9D                         sbc a,l
36DC 78            L36DC:       ld a,b
36DD 65                         ld h,l
36DE 40                         ld b,b
36DF A2                         and d
36E0 60                         ld h,b
36E1 32 C9 E7                   ld ($E7C9),a
36E4 21 F7 AF                   ld hl,$AFF7
36E7 24                         inc h
36E8 EB                         ex de,hl
36E9 2F                         cpl
36EA B0            L36EA:       or b
36EB B0                         or b
36EC 14                         inc d
36ED EE 7E                      xor $7E
36EF BB                         cp e
36F0 94                         sub h
36F1 58                         ld e,b
36F2 F1                         pop af
36F3 3A 7E F8                   ld a,($F87E)
36F6 CF                         rst $08
36F7 E3                         ex (sp),hl
36F8 38 CD                      jr c,L36C7
36FA D5                         push de
36FB 2D                         dec l
36FC 20 07                      jr nz,L3705
36FE 38 03                      jr c,L3703
3700 86                         add a,(hl)
3701 30 09                      jr nc,L370C
3703 CF            L3703:       rst $08
3704 05                         dec b
3705 38 07         L3705:       jr c,L370E
3707 96                         sub (hl)
3708 30 04                      jr nc,L370E
370A ED 44                      neg
370C 77            L370C:       ld (hl),a
370D C9                         ret
370E EF            L370E:       rst $28
370F 02                         ld (bc),a
3710 A0                         and b
3711 38 C9                      jr c,L36DC
3713 EF                         rst $28
3714 3D                         dec a
3715 31 37 00                   ld sp,$0037
3718 04                         inc b
3719 38 CF                      jr c,L36EA
371B 09                         add hl,bc
371C A0                         and b
371D 02                         ld (bc),a
371E 38 7E                      jr c,L379E
3720 36 80                      ld (hl),$80
3722 CD 28 2D                   call L2D28
3725 EF                         rst $28
3726 34                         inc (hl)
3727 38 00                      jr c,L3729
3729 03            L3729:       inc bc
372A 01 31 34                   ld bc,$3431
372D F0                         ret p
372E 4C                         ld c,h
372F CC CC CD                   call z,LCDCC
3732 03                         inc bc
3733 37                         scf
3734 00                         nop
3735 08                         ex af,af'
3736 01 A1 03                   ld bc,$03A1
3739 01 38 34                   ld bc,$3438
373C EF                         rst $28
373D 01 34 F0                   ld bc,$F034
3740 31 72 17                   ld sp,$1772
3743 F8                         ret m
3744 04                         inc b
3745 01 A2 03                   ld bc,$03A2
3748 A2                         and d
3749 03                         inc bc
374A 31 34 32                   ld sp,$3234
374D 20 04                      jr nz,L3753
374F A2                         and d
3750 03                         inc bc
3751 8C                         adc a,h
3752 11 AC 14                   ld de,$14AC
3755 09                         add hl,bc
3756 56                         ld d,(hl)
3757 DA A5 59                   jp c,L59A5
375A 30 C5                      jr nc,L3721
375C 5C                         ld e,h
375D 90                         sub b
375E AA                         xor d
375F 9E                         sbc a,(hl)
3760 70                         ld (hl),b
3761 6F                         ld l,a
3762 61                         ld h,c
3763 A1                         and c
3764 CB DA                      set 3,d
3766 96                         sub (hl)
3767 A4                         and h
3768 31 9F B4                   ld sp,$B49F
376B E7                         rst $20
376C A0                         and b
376D FE 5C                      cp $5C
376F FC EA 1B                   call m,L1BEA
3772 43                         ld b,e
3773 CA 36 ED      L3773:       jp z,LED36
3776 A7                         and a
3777 9C                         sbc a,h
3778 7E                         ld a,(hl)
3779 5E                         ld e,(hl)
377A F0                         ret p
377B 6E                         ld l,(hl)
377C 23                         inc hl
377D 80                         add a,b
377E 93                         sub e
377F 04                         inc b
3780 0F                         rrca
3781 38 C9                      jr c,L374C
3783 EF                         rst $28
3784 3D                         dec a
3785 34                         inc (hl)
3786 EE 22                      xor $22
3788 F9                         ld sp,hl
3789 83                         add a,e
378A 6E                         ld l,(hl)
378B 04                         inc b
378C 31 A2 0F                   ld sp,$0FA2
378F 27                         daa
3790 03                         inc bc
3791 31 0F 31                   ld sp,$310F
3794 0F                         rrca
3795 31 2A A1                   ld sp,$A12A
3798 03                         inc bc
3799 31 37 C0                   ld sp,$C037
379C 00                         nop
379D 04                         inc b
379E 02            L379E:       ld (bc),a
379F 38 C9                      jr c,L376A
37A1 A1                         and c
37A2 03                         inc bc
37A3 01 36 00                   ld bc,$0036
37A6 02                         ld (bc),a
37A7 1B                         dec de
37A8 38 C9                      jr c,L3773
37AA EF                         rst $28
37AB 39            L37AB:       add hl,sp
37AC 2A A1 03                   ld hl,($03A1)
37AF E0                         ret po
37B0 00                         nop
37B1 06 1B                      ld b,$1B
37B3 33                         inc sp
37B4 03                         inc bc
37B5 EF                         rst $28
37B6 39            L37B6:       add hl,sp
37B7 31 31 04      L37B7:       ld sp,$0431
37BA 31 0F A1                   ld sp,$A10F
37BD 03                         inc bc
37BE 86                         add a,(hl)
37BF 14                         inc d
37C0 E6 5C                      and $5C
37C2 1F                         rra
37C3 0B                         dec bc
37C4 A3                         and e
37C5 8F                         adc a,a
37C6 38 EE                      jr c,L37B6
37C8 E9                         jp (hl)
37C9 15                         dec d
37CA 63                         ld h,e
37CB BB                         cp e
37CC 23                         inc hl
37CD EE 92                      xor $92
37CF 0D                         dec c
37D0 CD ED F1                   call LF1ED
37D3 23                         inc hl
37D4 5D                         ld e,l
37D5 1B                         dec de
37D6 EA 04 38                   jp pe,L3804
37D9 C9                         ret
37DA EF                         rst $28
37DB 31 1F 01                   ld sp,$011F
37DE 20 05                      jr nz,L37E5
37E0 38 C9                      jr c,L37AB
37E2 CD 97 32                   call L3297
37E5 7E            L37E5:       ld a,(hl)
37E6 FE 81                      cp $81
37E8 38 0E                      jr c,L37F8
37EA EF                         rst $28
37EB A1                         and c
37EC 1B                         dec de
37ED 01 05 31                   ld bc,$3105
37F0 36 A3                      ld (hl),$A3
37F2 01 00 06                   ld bc,$0600
37F5 1B                         dec de
37F6 33                         inc sp
37F7 03                         inc bc
37F8 EF            L37F8:       rst $28
37F9 A0                         and b
37FA 01 31 31                   ld bc,$3131
37FD 04                         inc b
37FE 31 0F A1                   ld sp,$A10F
3801 03                         inc bc
3802 8C            L3802:       adc a,h
3803 10 B2                      djnz L37B7
3805 13                         inc de
3806 0E 55                      ld c,$55
3808 E4 8D 58                   call po,L588D
380B 39                         add hl,sp
380C BC                         cp h
380D 5B                         ld e,e
380E 98                         sbc a,b
380F FD 9E 00                   sbc a,(iy)
3812 36 75                      ld (hl),$75
3814 A0                         and b
3815 DB E8                      in a,($E8)
3817 B4                         or h
3818 63                         ld h,e
3819 42                         ld b,d
381A C4 E6 B5                   call nz,LB5E6
381D 09                         add hl,bc
381E 36 BE         L381E:       ld (hl),$BE
3820 E9                         jp (hl)
3821 36 73                      ld (hl),$73
3823 1B                         dec de
3824 5D                         ld e,l
3825 EC D8 DE                   call pe,LDED8
3828 63                         ld h,e
3829 BE                         cp (hl)
382A F0                         ret p
382B 61                         ld h,c
382C A1                         and c
382D B3                         or e
382E 0C                         inc c
382F 04                         inc b
3830 0F                         rrca
3831 38 C9                      jr c,L37FC
3833 EF                         rst $28
3834 31 31 04                   ld sp,$0431
3837 A1            L3837:       and c
3838 03                         inc bc
3839 1B                         dec de
383A 28 A1                      jr z,L37DD
383C 0F                         rrca
383D 05                         dec b
383E 24                         inc h
383F 31 0F 38                   ld sp,$380F
3842 C9                         ret
3843 EF                         rst $28
3844 22 A3 03                   ld ($03A3),hl
3847 1B                         dec de
3848 38 C9                      jr c,L3813
384A EF                         rst $28
384B 31 30 00                   ld sp,$0030
384E 1E A2                      ld e,$A2
3850 38 EF                      jr c,L3841
3852 01 31 30                   ld bc,$3031
3855 00                         nop
3856 07                         rlca
3857 25                         dec h
3858 04                         inc b
3859 38 C3                      jr c,L381E
385B C4 36 02                   call nz,L0236
385E 31 30 00                   ld sp,$0030
3861 09                         add hl,bc
3862 A0                         and b
3863 01 37 00                   ld bc,$0037
3866 06 A1                      ld b,$A1
3868 01 05 02                   ld bc,$0205
386B A1                         and c
386C 38 C9                      jr c,L3837
386E C3 BF 02      L386E:       jp L02BF
3871 FF                         rst $38
3872 FF                         rst $38
3873 FF                         rst $38
3874 FF                         rst $38
3875 FF                         rst $38
3876 FF                         rst $38
3877 FF                         rst $38
3878 FF                         rst $38
3879 FF                         rst $38
387A FF                         rst $38
387B FF                         rst $38
387C FF                         rst $38
387D FF                         rst $38
387E D6 A5         L387E:       sub $A5
3880 D2 5F 0B                   jp nc,L0B5F
3883 C3 56 0B                   jp L0B56
3886 E1            L3886:       pop hl
3887 C1                         pop bc
3888 D1                         pop de
3889 C5                         push bc
388A E5                         push hl
388B CD 30 25                   call L2530
388E CA B9 27                   jp z,L27B9
3891 ED 8A 27 61                push $2761
3895 7B                         ld a,e
3896 FE 24                      cp $24
3898 CA 84 21                   jp z,L2184
389B D5                         push de
389C CD 99 1E                   call L1E99
389F D1                         pop de
38A0 7B                         ld a,e
38A1 FE 9E                      cp $9E
38A3 28 0C                      jr z,L38B1
38A5 FE E8                      cp $E8
38A7 28 08                      jr z,L38B1
38A9 60                         ld h,b
38AA 69                         ld l,c
38AB CD D3 38                   call L38D3
38AE C3 2F 2D                   jp L2D2F
38B1 59            L38B1:       ld e,c
38B2 6F                         ld l,a
38B3 04                         inc b
38B4 05                         dec b
38B5 CA A4 39                   jp z,L39A4
38B8 CF                         rst $08
38B9 0A                         ld a,(bc)
38BA CD A2 2D                   call L2DA2
38BD DA F9 24                   jp c,L24F9
38C0 28 07                      jr z,L38C9
38C2 78                         ld a,b
38C3 2F                         cpl
38C4 47                         ld b,a
38C5 79                         ld a,c
38C6 2F                         cpl
38C7 4F                         ld c,a
38C8 03                         inc bc
38C9 50            L38C9:       ld d,b
38CA 59                         ld e,c
38CB CD 05 27                   call L2705
38CE 82                         add a,d
38CF 2E EB                      ld l,$EB
38D1 18 7B                      jr L394E
38D3 D5            L38D3:       push de
38D4 7A                         ld a,d
38D5 01 08 33                   ld bc,$3308
38D8 CD C5 32                   call L32C5
38DB 08                         ex af,af'
38DC D1                         pop de
38DD 7B                         ld a,e
38DE FE C0                      cp $C0
38E0 28 0F                      jr z,L38F1
38E2 D5                         push de
38E3 CD FC 08                   call L08FC
38E6 23                         inc hl
38E7 4F                         ld c,a
38E8 D1                         pop de
38E9 7B                         ld a,e
38EA D6 BE                      sub $BE
38EC C4 FC 08                   call nz,L08FC
38EF 47                         ld b,a
38F0 C9                         ret
38F1 7A            L38F1:       ld a,d
38F2 E5                         push hl
38F3 44                         ld b,h
38F4 4D                         ld c,l
38F5 D9                         exx
38F6 57                         ld d,a
38F7 E1                         pop hl
38F8 AF                         xor a
38F9 FE 01                      cp $01
38FB C3 6A 1F                   jp L1F6A
38FE FF                         rst $38
38FF FF                         rst $38
3900 FF                         rst $38
3901 FF                         rst $38
3902 C5                         push bc
3903 2A 51 5C                   ld hl,($5C51)
3906 E5                         push hl
3907 C5                         push bc
3908 CD 94 1E                   call L1E94
390B CD 01 16                   call L1601
390E F1                         pop af
390F D6 34         L390F:       sub $34
3911 47                         ld b,a
3912 D9                         exx
3913 87                         add a,a
3914 20 02                      jr nz,L3918
3916 3E 04                      ld a,$04
3918 5F            L3918:       ld e,a
3919 16 00                      ld d,$00
391B 21 E5 03                   ld hl,$03E5
391E CD CE 19                   call L19CE
3921 E3                         ex (sp),hl
3922 D5                         push de
3923 F5                         push af
3924 CD 15 16                   call L1615
3927 F1                         pop af
3928 D1                         pop de
3929 E1                         pop hl
392A 4F                         ld c,a
392B 06 00                      ld b,$00
392D F1                         pop af
392E FE 35                      cp $35
3930 28 1E                      jr z,L3950
3932 D5            L3932:       push de
3933 44                         ld b,h
3934 4D                         ld c,l
3935 CD 2F 2D                   call L2D2F
3938 C1                         pop bc
3939 CD 2F 2D                   call L2D2F
393C EF                         rst $28
393D 34                         inc (hl)
393E 40                         ld b,b
393F 41                         ld b,c
3940 00                         nop
3941 00                         nop
3942 04                         inc b
3943 0F                         rrca
3944 38 C9                      jr c,L390F
3946 CD 99 1E                   call L1E99
3949 50                         ld d,b
394A 59                         ld e,c
394B CD 18 09                   call L0918
394E 44            L394E:       ld b,h
394F 4D                         ld c,l
3950 C3 2F 2D      L3950:       jp L2D2F
3953 CD 81 1C                   call L1C81
3956 CD 30 25                   call L2530
3959 C4 94 1E                   call nz,L1E94
395C 57                         ld d,a
395D DF                         rst $18
395E FE A8                      cp $A8
3960 CA 9C 08                   jp z,L089C
3963 FE 87                      cp $87
3965 CA 04 3A                   jp z,L3A04
3968 FE C0                      cp $C0
396A CA AF 17                   jp z,L17AF
396D FE BE                      cp $BE
396F 28 05                      jr z,L3976
3971 FE 8A                      cp $8A
3973 C2 0C 3A                   jp nz,L3A0C
3976 5F            L3976:       ld e,a
3977 D5            L3977:       push de
3978 01 C0 10                   ld bc,$10C0
397B C3 2F 08                   jp L082F
397E E7                         rst $20
397F FE E8                      cp $E8
3981 28 F3                      jr z,L3976
3983 FE AC                      cp $AC
3985 28 0C                      jr z,L3993
3987 FE DE                      cp $DE
3989 28 24                      jr z,L39AF
398B 2B                         dec hl
398C 22 5D 5C                   ld ($5C5D),hl
398F 3E 9E                      ld a,$9E
3991 18 E3                      jr L3976
3993 CD 22 25      L3993:       call L2522
3996 C4 9D 39                   call nz,L399D
3999 E7                         rst $20
399A C3 C3 26                   jp L26C3
399D CD 07 23      L399D:       call L2307
39A0 59                         ld e,c
39A1 50                         ld d,b
39A2 2E AC                      ld l,$AC
39A4 01 9B 09      L39A4:       ld bc,$099B
39A7 CD F2 1E                   call L1EF2
39AA 42                         ld b,d
39AB 4B                         ld c,e
39AC C3 2F 2D                   jp L2D2F
39AF E7            L39AF:       rst $20
39B0 FE 28                      cp $28
39B2 20 58                      jr nz,L3A0C
39B4 CD 79 1C                   call L1C79
39B7 FE CC                      cp $CC
39B9 CD F5 0F                   call L0FF5
39BC FE 2C                      cp $2C
39BE CD F5 0F                   call L0FF5
39C1 FE 2C                      cp $2C
39C3 CD F5 0F                   call L0FF5
39C6 FE 29                      cp $29
39C8 20 42                      jr nz,L3A0C
39CA E7                         rst $20
39CB CD 30 25                   call L2530
39CE 28 2B                      jr z,L39FB
39D0 CD 6F 1E                   call L1E6F
39D3 69                         ld l,c
39D4 E5                         push hl
39D5 CD 6F 1E                   call L1E6F
39D8 E1                         pop hl
39D9 61                         ld h,c
39DA E5                         push hl
39DB CD 6F 1E                   call L1E6F
39DE C5                         push bc
39DF CD 94 1E                   call L1E94
39E2 D1                         pop de
39E3 43                         ld b,e
39E4 04                         inc b
39E5 05                         dec b
39E6 20 01                      jr nz,L39E9
39E8 41                         ld b,c
39E9 C5            L39E9:       push bc
39EA CD 94 1E                   call L1E94
39ED 69                         ld l,c
39EE D1                         pop de
39EF 7B                         ld a,e
39F0 62                         ld h,d
39F1 D1                         pop de
39F2 01 34 09                   ld bc,$0934
39F5 CD F2 1E                   call L1EF2
39F8 CD 28 2D      L39F8:       call L2D28
39FB C3 C3 26      L39FB:       jp L26C3
39FE FF                         rst $38
39FF FF                         rst $38
3A00 FF                         rst $38
3A01 FF                         rst $38
3A02 16 FF                      ld d,$FF
3A04 ED 8A 25 DB   L3A04:       push $25DB
3A08 D5                         push de
3A09 E7                         rst $20
3A0A FE 28                      cp $28
3A0C C2 8A 1C      L3A0C:       jp nz,L1C8A
3A0F CD 81 1C                   call L1C81
3A12 FE 2C                      cp $2C
3A14 20 F6                      jr nz,L3A0C
3A16 E7                         rst $20
3A17 47                         ld b,a
3A18 4F                         ld c,a
3A19 FE 7E                      cp $7E
3A1B 20 06                      jr nz,L3A23
3A1D E7                         rst $20
3A1E 4F                         ld c,a
3A1F FE 29                      cp $29
3A21 28 09                      jr z,L3A2C
3A23 C5            L3A23:       push bc
3A24 CD 82 1C                   call L1C82
3A27 C1                         pop bc
3A28 FE 29                      cp $29
3A2A 20 E0                      jr nz,L3A0C
3A2C D1            L3A2C:       pop de
3A2D E7                         rst $20
3A2E CD 30 25                   call L2530
3A31 C8                         ret z
3A32 D5                         push de
3A33 C5                         push bc
3A34 79                         ld a,c
3A35 FE 29                      cp $29
3A37 C4 99 1E                   call nz,L1E99
3A3A C5                         push bc
3A3B CD 99 1E                   call L1E99
3A3E 50                         ld d,b
3A3F 59                         ld e,c
3A40 C1                         pop bc
3A41 E1                         pop hl
3A42 F1                         pop af
3A43 08                         ex af,af'
3A44 7C                         ld a,h
3A45 FE 7E                      cp $7E
3A47 C2 6F 3A                   jp nz,L3A6F
3A4A 7D                         ld a,l
3A4B FE 29                      cp $29
3A4D 21 80 80                   ld hl,$8080
3A50 28 08                      jr z,L3A5A
3A52 26 FF                      ld h,$FF
3A54 69                         ld l,c
3A55 78                         ld a,b
3A56 A7                         and a
3A57 C2 F9 24                   jp nz,L24F9
3A5A 01 FF FF      L3A5A:       ld bc,$FFFF
3A5D 08                         ex af,af'
3A5E 3C                         inc a
3A5F 20 14                      jr nz,L3A75
3A61 D5                         push de
3A62 1A            L3A62:       ld a,(de)
3A63 13                         inc de
3A64 03                         inc bc
3A65 A4                         and h
3A66 BD                         cp l
3A67 20 F9                      jr nz,L3A62
3A69 24                         inc h
3A6A 28 01                      jr z,L3A6D
3A6C 03                         inc bc
3A6D D1            L3A6D:       pop de
3A6E C9                         ret
3A6F 08            L3A6F:       ex af,af'
3A70 3C                         inc a
3A71 C8                         ret z
3A72 21 FF 00                   ld hl,$00FF
3A75 EB            L3A75:       ex de,hl
3A76 3D                         dec a
3A77 C5                         push bc
3A78 D5                         push de
3A79 01 08 33                   ld bc,$3308
3A7C CD C5 32                   call L32C5
3A7F 08                         ex af,af'
3A80 D1                         pop de
3A81 C1                         pop bc
3A82 D9                         exx
3A83 ED 5B 63 5C                ld de,($5C63)
3A87 21 00 60                   ld hl,$6000
3A8A A7                         and a
3A8B ED 52                      sbc hl,de
3A8D 44                         ld b,h
3A8E 4D                         ld c,l
3A8F D4 30 00                   call nc,L0030
3A92 2A 63 5C                   ld hl,($5C63)
3A95 E5                         push hl
3A96 01 00 00                   ld bc,$0000
3A99 D9                         exx
3A9A 78            L3A9A:       ld a,b
3A9B B1                         or c
3A9C 28 13                      jr z,L3AB1
3A9E 0B                         dec bc
3A9F CD FC 08                   call L08FC
3AA2 23                         inc hl
3AA3 D9                         exx
3AA4 C5                         push bc
3AA5 01 01 00                   ld bc,$0001
3AA8 F7                         rst $30
3AA9 C1                         pop bc
3AAA 12                         ld (de),a
3AAB 03                         inc bc
3AAC D9                         exx
3AAD A2                         and d
3AAE BB                         cp e
3AAF 20 E9                      jr nz,L3A9A
3AB1 14            L3AB1:       inc d
3AB2 D9                         exx
3AB3 20 01                      jr nz,L3AB6
3AB5 0B                         dec bc
3AB6 D1            L3AB6:       pop de
3AB7 C9                         ret
3AB8 ED 8A 25 DB                push $25DB
3ABC E7            L3ABC:       rst $20
3ABD CD 8C 1C                   call L1C8C
3AC0 FE 7D                      cp $7D
3AC2 C2 0C 3A                   jp nz,L3A0C
3AC5 E7                         rst $20
3AC6 CD 30 25                   call L2530
3AC9 C8                         ret z
3ACA CD F1 2B                   call L2BF1
3ACD 21 CF 17                   ld hl,$17CF
3AD0 CD 5F 1E                   call L1E5F
3AD3 C9                         ret
3AD4 E5            L3AD4:       push hl
3AD5 CD 05 1F      L3AD5:       call L1F05
3AD8 D1                         pop de
3AD9 2A 3D 5C                   ld hl,($5C3D)
3ADC A7                         and a
3ADD ED 42                      sbc hl,bc
3ADF 22 3D 5C                   ld ($5C3D),hl
3AE2 2A 0B 5C                   ld hl,($5C0B)
3AE5 ED 42                      sbc hl,bc
3AE7 22 0B 5C      L3AE7:       ld ($5C0B),hl
3AEA 21 00 00                   ld hl,$0000
3AED 39                         add hl,sp
3AEE EB                         ex de,hl
3AEF ED 52                      sbc hl,de
3AF1 E5                         push hl
3AF2 62                         ld h,d
3AF3 6B                         ld l,e
3AF4 ED 42                      sbc hl,bc
3AF6 C1                         pop bc
3AF7 F9                         ld sp,hl
3AF8 EB                         ex de,hl
3AF9 ED B0                      ldir
3AFB C9                         ret
3AFC FF                         rst $38
3AFD FF                         rst $38
3AFE FF                         rst $38
3AFF FF                         rst $38
3B00 FF                         rst $38
3B01 FF                         rst $38
3B02 8F                         adc a,a
3B03 36 3C                      ld (hl),$3C
3B05 34                         inc (hl)
3B06 A1                         and c
3B07 33                         inc sp
3B08 0F                         rrca
3B09 30 CA                      jr nc,L3AD5
3B0B 30 AF                      jr nc,L3ABC
3B0D 31 51 38                   ld sp,$3851
3B10 1B                         dec de
3B11 35                         dec (hl)
3B12 24                         inc h
3B13 35                         dec (hl)
3B14 3B                         dec sp
3B15 35                         dec (hl)
3B16 3B                         dec sp
3B17 35                         dec (hl)
3B18 3B                         dec sp
3B19 35                         dec (hl)
3B1A 3B                         dec sp
3B1B 35                         dec (hl)
3B1C 3B                         dec sp
3B1D 35                         dec (hl)
3B1E 3B                         dec sp
3B1F 35                         dec (hl)
3B20 14                         inc d
3B21 30 2D                      jr nc,L3B50
3B23 35                         dec (hl)
3B24 3B                         dec sp
3B25 35                         dec (hl)
3B26 3B                         dec sp
3B27 35                         dec (hl)
3B28 3B                         dec sp
3B29 35                         dec (hl)
3B2A 3B                         dec sp
3B2B 35                         dec (hl)
3B2C 3B                         dec sp
3B2D 35            L3B2D:       dec (hl)
3B2E 3B                         dec sp
3B2F 35                         dec (hl)
3B30 9C                         sbc a,h
3B31 35                         dec (hl)
3B32 DE 35                      sbc a,$35
3B34 BC                         cp h
3B35 34                         inc (hl)
3B36 45                         ld b,l
3B37 36 6E                      ld (hl),$6E
3B39 34                         inc (hl)
3B3A 69                         ld l,c
3B3B 36 DE                      ld (hl),$DE
3B3D 35                         dec (hl)
3B3E 74                         ld (hl),h
3B3F 36 B5                      ld (hl),$B5
3B41 37                         scf
3B42 AA                         xor d
3B43 37                         scf
3B44 DA 37 33                   jp c,L3337
3B47 38 43                      jr c,L3B8C
3B49 38 E2                      jr c,L3B2D
3B4B 37                         scf
3B4C 13                         inc de
3B4D 37                         scf
3B4E C4 36 AF                   call nz,LAF36
3B51 36 4A                      ld (hl),$4A
3B53 38 92                      jr c,L3AE7
3B55 34                         inc (hl)
3B56 6A                         ld l,d
3B57 34                         inc (hl)
3B58 AC                         xor h
3B59 34                         inc (hl)
3B5A A5                         and l
3B5B 34                         inc (hl)
3B5C B3                         or e
3B5D 34                         inc (hl)
3B5E 1F                         rra
3B5F 36 C9                      ld (hl),$C9
3B61 35                         dec (hl)
3B62 01 35 2E                   ld bc,$2E35
3B65 3C                         inc a
3B66 A0                         and b
3B67 36 86                      ld (hl),$86
3B69 36 C6                      ld (hl),$C6
3B6B 33                         inc sp
3B6C 7A                         ld a,d
3B6D 36 06                      ld (hl),$06
3B6F 35                         dec (hl)
3B70 F9                         ld sp,hl
3B71 34                         inc (hl)
3B72 9B                         sbc a,e
3B73 36 83                      ld (hl),$83
3B75 37                         scf
3B76 14                         inc d
3B77 32 00 00                   ld ($0000),a
3B7A 4F                         ld c,a
3B7B 2D                         dec l
3B7C 97                         sub a
3B7D 32 49 34                   ld ($3449),a
3B80 1B                         dec de
3B81 34                         inc (hl)
3B82 2D                         dec l
3B83 34                         inc (hl)
3B84 0F                         rrca
3B85 34                         inc (hl)
3B86 F5            L3B86:       push af
3B87 DD E5                      push ix
3B89 7C                         ld a,h
3B8A DD 67                      ld xh,a
3B8C 7D            L3B8C:       ld a,l
3B8D DD 6F                      ld xl,a
3B8F 2A 4B 5C                   ld hl,($5C4B)
3B92 95                         sub l
3B93 DD 7C                      ld a,xh
3B95 9C                         sbc a,h
3B96 30 04                      jr nc,L3B9C
3B98 09                         add hl,bc
3B99 22 4B 5C                   ld ($5C4B),hl
3B9C 2A 4D 5C      L3B9C:       ld hl,($5C4D)
3B9F ED 72                      sbc hl,sp
3BA1 30 0D                      jr nc,L3BB0
3BA3 39                         add hl,sp
3BA4 DD 7D                      ld a,xl
3BA6 95                         sub l
3BA7 DD 7C                      ld a,xh
3BA9 9C                         sbc a,h
3BAA 30 04                      jr nc,L3BB0
3BAC 09                         add hl,bc
3BAD 22 4D 5C                   ld ($5C4D),hl
3BB0 21 4F 5C      L3BB0:       ld hl,$5C4F
3BB3 5E            L3BB3:       ld e,(hl)
3BB4 23                         inc hl
3BB5 56                         ld d,(hl)
3BB6 DD 7D                      ld a,xl
3BB8 93                         sub e
3BB9 DD 7C                      ld a,xh
3BBB 9A                         sbc a,d
3BBC 30 07                      jr nc,L3BC5
3BBE EB                         ex de,hl
3BBF 09                         add hl,bc
3BC0 EB                         ex de,hl
3BC1 72                         ld (hl),d
3BC2 2B                         dec hl
3BC3 73                         ld (hl),e
3BC4 23                         inc hl
3BC5 23            L3BC5:       inc hl
3BC6 3E 65                      ld a,$65
3BC8 BD                         cp l
3BC9 D2 B3 3B                   jp nc,L3BB3
3BCC EB                         ex de,hl
3BCD DD 5D                      ld e,xl
3BCF DD 54         L3BCF:       ld d,xh
3BD1 DD E1                      pop ix
3BD3 F1                         pop af
3BD4 A7                         and a
3BD5 ED 42                      sbc hl,bc
3BD7 ED 52                      sbc hl,de
3BD9 44                         ld b,h
3BDA 4D                         ld c,l
3BDB 03                         inc bc
3BDC 19                         add hl,de
3BDD EB                         ex de,hl
3BDE C9                         ret
3BDF CD 8D 2C      L3BDF:       call L2C8D
3BE2 D0                         ret nc
3BE3 E6 1F                      and $1F
3BE5 C6 8F                      add a,$8F
3BE7 C9                         ret
3BE8 3E 02         L3BE8:       ld a,$02
3BEA ED 79                      out (c),a
3BEC 04                         inc b
3BED ED 78                      in a,(c)
3BEF E6 80                      and $80
3BF1 F6 01                      or $01
3BF3 ED 79                      out (c),a
3BF5 FF                         rst $38
3BF6 FF                         rst $38
3BF7 FF                         rst $38
3BF8 FF                         rst $38
3BF9 FF                         rst $38
3BFA FF                         rst $38
3BFB FF                         rst $38
3BFC FF                         rst $38
3BFD FF                         rst $38
3BFE FF                         rst $38
3BFF FF                         rst $38
3C00 FF                         rst $38
3C01 FF                         rst $38
3C02 00                         nop
3C03 00                         nop
3C04 00                         nop
3C05 00                         nop
3C06 00                         nop
3C07 00                         nop
3C08 00                         nop
3C09 01 00 00                   ld bc,$0000
3C0C 80                         add a,b
3C0D 00                         nop
3C0E 00                         nop
3C0F 00                         nop
3C10 00                         nop
3C11 81                         add a,c
3C12 49                         ld c,c
3C13 0F                         rrca
3C14 DA A2 00                   jp c,L00A2
3C17 00                         nop
3C18 0A                         ld a,(bc)
3C19 00                         nop
3C1A 00                         nop
3C1B E5            L3C1B:       push hl
3C1C 2A 65 5C                   ld hl,($5C65)
3C1F 01 55 00                   ld bc,$0055
3C22 09                         add hl,bc
3C23 38 06                      jr c,L3C2B
3C25 ED 72                      sbc hl,sp
3C27 30 02                      jr nc,L3C2B
3C29 E1                         pop hl
3C2A C9                         ret
3C2B C3 15 1F      L3C2B:       jp L1F15
3C2E E5            L3C2E:       push hl
3C2F 2A 65 5C                   ld hl,($5C65)
3C32 01 55 00                   ld bc,$0055
3C35 09                         add hl,bc
3C36 38 F3                      jr c,L3C2B
3C38 ED 72                      sbc hl,sp
3C3A 30 EF                      jr nc,L3C2B
3C3C E1                         pop hl
3C3D 01 05 00                   ld bc,$0005
3C40 ED A0         L3C40:       ldi
3C42 ED A0                      ldi
3C44 ED A0                      ldi
3C46 ED A0                      ldi
3C48 ED A0                      ldi
3C4A C9                         ret
3C4B CD 14 23                   call L2314
3C4E 20 12                      jr nz,L3C62
3C50 A7            L3C50:       and a
3C51 C8                         ret z
3C52 F5                         push af
3C53 CD 97 32                   call L3297
3C56 F1                         pop af
3C57 86                         add a,(hl)
3C58 DA AD 31                   jp c,L31AD
3C5B 77            L3C5B:       ld (hl),a
3C5C C9                         ret
3C5D CD 14 23                   call L2314
3C60 20 EE                      jr nz,L3C50
3C62 A7            L3C62:       and a
3C63 C8                         ret z
3C64 F5                         push af
3C65 CD 97 32                   call L3297
3C68 C1                         pop bc
3C69 7E                         ld a,(hl)
3C6A 90                         sub b
3C6B 30 EE                      jr nc,L3C5B
3C6D 06 05                      ld b,$05
3C6F 36 00         L3C6F:       ld (hl),$00
3C71 23                         inc hl
3C72 10 FB                      djnz L3C6F
3C74 C9                         ret
3C75 01 FF FF                   ld bc,$FFFF
3C78 CD 2F 2D                   call L2D2F
3C7B 54                         ld d,h
3C7C 5D                         ld e,l
3C7D 23                         inc hl
3C7E 35                         dec (hl)
3C7F ED 34 FA FF                add hl,$FFFA
3C83 DD 21 FB 3C                ld ix,$3CFB
3C87 18 0A                      jr L3C93
3C89 DD 21 F9 3C                ld ix,$3CF9
3C8D 18 04                      jr L3C93
3C8F DD 21 F7 3C                ld ix,$3CF7
3C93 1A            L3C93:       ld a,(de)
3C94 B6                         or (hl)
3C95 20 0E                      jr nz,L3CA5
3C97 D5                         push de
3C98 06 03                      ld b,$03
3C9A 23            L3C9A:       inc hl
3C9B 13                         inc de
3C9C 1A                         ld a,(de)
3C9D CD 13 00                   call L0013
3CA0 77                         ld (hl),a
3CA1 10 F7                      djnz L3C9A
3CA3 D1                         pop de
3CA4 C9                         ret
3CA5 CD 93 32      L3CA5:       call L3293
3CA8 D9                         exx
3CA9 E5                         push hl
3CAA D9                         exx
3CAB D5                         push de
3CAC E5                         push hl
3CAD CD 9B 2F                   call L2F9B
3CB0 47                         ld b,a
3CB1 EB                         ex de,hl
3CB2 CD 9B 2F                   call L2F9B
3CB5 4F                         ld c,a
3CB6 B8                         cp b
3CB7 30 03                      jr nc,L3CBC
3CB9 78                         ld a,b
3CBA 41                         ld b,c
3CBB EB                         ex de,hl
3CBC F5            L3CBC:       push af
3CBD 90                         sub b
3CBE CD BA 2F                   call L2FBA
3CC1 CD DD 2F                   call L2FDD
3CC4 F1                         pop af
3CC5 E1                         pop hl
3CC6 77                         ld (hl),a
3CC7 E5                         push hl
3CC8 D9                         exx
3CC9 7D                         ld a,l
3CCA 08                         ex af,af'
3CCB 7C                         ld a,h
3CCC 21 5E 5B                   ld hl,$5B5E
3CCF 77                         ld (hl),a
3CD0 08                         ex af,af'
3CD1 CD 13 00                   call L0013
3CD4 08                         ex af,af'
3CD5 70                         ld (hl),b
3CD6 7A                         ld a,d
3CD7 CD 13 00                   call L0013
3CDA 57                         ld d,a
3CDB 71                         ld (hl),c
3CDC 7B                         ld a,e
3CDD CD 13 00                   call L0013
3CE0 5F                         ld e,a
3CE1 08                         ex af,af'
3CE2 6F                         ld l,a
3CE3 D9                         exx
3CE4 21 5E 5B                   ld hl,$5B5E
3CE7 71                         ld (hl),c
3CE8 7A                         ld a,d
3CE9 CD 13 00                   call L0013
3CEC 57                         ld d,a
3CED 70                         ld (hl),b
3CEE 7B                         ld a,e
3CEF CD 13 00                   call L0013
3CF2 5F                         ld e,a
3CF3 E1                         pop hl
3CF4 C3 7C 30                   jp L307C
3CF7 A6                         and (hl)
3CF8 C9                         ret
3CF9 B6                         or (hl)
3CFA C9                         ret
3CFB AE                         xor (hl)
3CFC C9                         ret
3CFD FF                         rst $38
3CFE FF                         rst $38
3CFF FF                         rst $38
3D00 00                         nop
3D01 00                         nop
3D02 00                         nop
3D03 00                         nop
3D04 00                         nop
3D05 00                         nop
3D06 00                         nop
3D07 00                         nop
3D08 00                         nop
3D09 10 10                      djnz L3D1B
3D0B 10 10                      djnz L3D1D
3D0D 00                         nop
3D0E 10 00                      djnz L3D10
3D10 00            L3D10:       nop
3D11 24                         inc h
3D12 24                         inc h
3D13 00                         nop
3D14 00                         nop
3D15 00                         nop
3D16 00                         nop
3D17 00                         nop
3D18 00                         nop
3D19 24                         inc h
3D1A 7E                         ld a,(hl)
3D1B 24            L3D1B:       inc h
3D1C 24                         inc h
3D1D 7E            L3D1D:       ld a,(hl)
3D1E 24                         inc h
3D1F 00                         nop
3D20 00                         nop
3D21 08                         ex af,af'
3D22 3E 28                      ld a,$28
3D24 3E 0A                      ld a,$0A
3D26 3E 08                      ld a,$08
3D28 00                         nop
3D29 62                         ld h,d
3D2A 64                         ld h,h
3D2B 08                         ex af,af'
3D2C 10 26                      djnz L3D54
3D2E 46                         ld b,(hl)
3D2F 00                         nop
3D30 00                         nop
3D31 10 28                      djnz L3D5B
3D33 10 2A                      djnz L3D5F
3D35 44                         ld b,h
3D36 3A 00 00                   ld a,($0000)
3D39 08                         ex af,af'
3D3A 10 00                      djnz L3D3C
3D3C 00            L3D3C:       nop
3D3D 00                         nop
3D3E 00                         nop
3D3F 00                         nop
3D40 00                         nop
3D41 04                         inc b
3D42 08                         ex af,af'
3D43 08                         ex af,af'
3D44 08                         ex af,af'
3D45 08                         ex af,af'
3D46 04                         inc b
3D47 00                         nop
3D48 00                         nop
3D49 20 10                      jr nz,L3D5B
3D4B 10 10                      djnz L3D5D
3D4D 10 20                      djnz L3D6F
3D4F 00                         nop
3D50 00                         nop
3D51 00                         nop
3D52 14                         inc d
3D53 08                         ex af,af'
3D54 3E 08         L3D54:       ld a,$08
3D56 14                         inc d
3D57 00                         nop
3D58 00                         nop
3D59 00                         nop
3D5A 08                         ex af,af'
3D5B 08            L3D5B:       ex af,af'
3D5C 3E 08                      ld a,$08
3D5E 08                         ex af,af'
3D5F 00            L3D5F:       nop
3D60 00                         nop
3D61 00                         nop
3D62 00                         nop
3D63 00                         nop
3D64 00                         nop
3D65 08                         ex af,af'
3D66 08                         ex af,af'
3D67 10 00                      djnz L3D69
3D69 00            L3D69:       nop
3D6A 00                         nop
3D6B 00                         nop
3D6C 3E 00                      ld a,$00
3D6E 00                         nop
3D6F 00            L3D6F:       nop
3D70 00                         nop
3D71 00                         nop
3D72 00                         nop
3D73 00                         nop
3D74 00                         nop
3D75 18 18                      jr L3D8F
3D77 00                         nop
3D78 00                         nop
3D79 00                         nop
3D7A 02                         ld (bc),a
3D7B 04                         inc b
3D7C 08                         ex af,af'
3D7D 10 20                      djnz L3D9F
3D7F 00                         nop
3D80 00                         nop
3D81 3C                         inc a
3D82 46                         ld b,(hl)
3D83 4A                         ld c,d
3D84 52                         ld d,d
3D85 62                         ld h,d
3D86 3C                         inc a
3D87 00                         nop
3D88 00                         nop
3D89 18 28                      jr L3DB3
3D8B 08                         ex af,af'
3D8C 08                         ex af,af'
3D8D 08                         ex af,af'
3D8E 3E 00                      ld a,$00
3D90 00                         nop
3D91 3C                         inc a
3D92 42                         ld b,d
3D93 02                         ld (bc),a
3D94 3C                         inc a
3D95 40                         ld b,b
3D96 7E                         ld a,(hl)
3D97 00                         nop
3D98 00                         nop
3D99 3C                         inc a
3D9A 42                         ld b,d
3D9B 0C                         inc c
3D9C 02                         ld (bc),a
3D9D 42                         ld b,d
3D9E 3C                         inc a
3D9F 00            L3D9F:       nop
3DA0 00                         nop
3DA1 08                         ex af,af'
3DA2 18 28                      jr L3DCC
3DA4 48                         ld c,b
3DA5 7E                         ld a,(hl)
3DA6 08                         ex af,af'
3DA7 00                         nop
3DA8 00                         nop
3DA9 7E                         ld a,(hl)
3DAA 40                         ld b,b
3DAB 7C                         ld a,h
3DAC 02                         ld (bc),a
3DAD 42                         ld b,d
3DAE 3C                         inc a
3DAF 00                         nop
3DB0 00                         nop
3DB1 3C                         inc a
3DB2 40                         ld b,b
3DB3 7C            L3DB3:       ld a,h
3DB4 42                         ld b,d
3DB5 42                         ld b,d
3DB6 3C                         inc a
3DB7 00                         nop
3DB8 00                         nop
3DB9 7E                         ld a,(hl)
3DBA 02                         ld (bc),a
3DBB 04                         inc b
3DBC 08                         ex af,af'
3DBD 10 10                      djnz L3DCF
3DBF 00                         nop
3DC0 00                         nop
3DC1 3C                         inc a
3DC2 42                         ld b,d
3DC3 3C                         inc a
3DC4 42                         ld b,d
3DC5 42                         ld b,d
3DC6 3C                         inc a
3DC7 00                         nop
3DC8 00                         nop
3DC9 3C                         inc a
3DCA 42                         ld b,d
3DCB 42                         ld b,d
3DCC 3E 02         L3DCC:       ld a,$02
3DCE 3C                         inc a
3DCF 00            L3DCF:       nop
3DD0 00                         nop
3DD1 00                         nop
3DD2 00                         nop
3DD3 10 00                      djnz L3DD5
3DD5 00            L3DD5:       nop
3DD6 10 00                      djnz L3DD8
3DD8 00            L3DD8:       nop
3DD9 00                         nop
3DDA 10 00                      djnz L3DDC
3DDC 00            L3DDC:       nop
3DDD 10 10                      djnz L3DEF
3DDF 20 00                      jr nz,L3DE1
3DE1 00            L3DE1:       nop
3DE2 04                         inc b
3DE3 08                         ex af,af'
3DE4 10 08                      djnz L3DEE
3DE6 04                         inc b
3DE7 00                         nop
3DE8 00                         nop
3DE9 00                         nop
3DEA 00                         nop
3DEB 3E 00                      ld a,$00
3DED 3E 00                      ld a,$00
3DEF 00            L3DEF:       nop
3DF0 00                         nop
3DF1 00                         nop
3DF2 10 08                      djnz L3DFC
3DF4 04                         inc b
3DF5 08                         ex af,af'
3DF6 10 00                      djnz L3DF8
3DF8 00            L3DF8:       nop
3DF9 3C                         inc a
3DFA 42                         ld b,d
3DFB 04                         inc b
3DFC 08            L3DFC:       ex af,af'
3DFD 00                         nop
3DFE 08                         ex af,af'
3DFF 00                         nop
3E00 00                         nop
3E01 3C                         inc a
3E02 4A                         ld c,d
3E03 56                         ld d,(hl)
3E04 5E                         ld e,(hl)
3E05 40                         ld b,b
3E06 3C                         inc a
3E07 00                         nop
; 
; User defined characters
;
3E08 00 3C 42 42                .defb $00, $3C, $42, $42   ; "A"             
3E0C 7E 42 42 00                .defb $7E, $42, $42, $00
3E10 00 7C 42 7C                .defb $00, $7C, $42, $7C   ; "B"
3E14 42 42 7C 00                .defb $42, $42, $7C, $00
3E18 00 3C 42 40                .defb $00, $3C, $42, $40
3E1C 40 42 3C 00                .defb $40, $42, $3C, $00
3E20 00 78 44 42                .defb $00, $78, $44, $42
3E24 42 44 78 00                .defb $42, $44, $78, $00
3E28 00 7E 40 7C                .defb $00, $7E, $40, $7C
3E2C 40 40 7E 00                .defb $40, $40, $7E, $00
3E30 00 7E 40 7C                .defb $00, $7E, $40, $7C
3E34 40 40 40 00                .defb $40, $40, $40, $00
3E38 00 3C 42 40                .defb $00, $3C, $42, $40
3E3C 4E 42 3C 00                .defb $4E, $42, $3C, $00
3E40 00 42 42 7E                .defb $00, $42, $42, $7E
3E44 42 42 42 00                .defb $42, $42, $42, $00
3E48 00 3E 08 08                .defb $00, $3E, $08, $08
3E4C 08 08 3E 00                .defb $08, $08, $3E, $00
3E50 00 02 02 02                .defb $00, $02, $02, $02
3E54 42 42 3C 00                .defb $42, $42, $3C, $00
3E58 00 44 48 70                .defb $00, $44, $48, $70
3E5C 48 44 42 00                .defb $48, $44, $42, $00
3E60 00 40 40 40                .defb $00, $40, $40, $40
3E64 40 40 7E 00                .defb $40, $40, $7E, $00
3E68 00 42 66 5A                .defb $00, $42, $66, $5A
3E6C 42 42 42 00                .defb $42, $42, $42, $00
3E70 00 42 62 52                .defb $00, $42, $62, $52
3E74 4A 46 42 00                .defb $4A, $46, $42, $00
3E78 00 3C 42 42                .defb $00, $3C, $42, $42
3E7C 42 42 3C 00                .defb $42, $42, $3C, $00
3E80 00 7C 42 42                .defb $00, $7C, $42, $42
3E84 7C 40 40 00                .defb $7C, $40, $40, $00
3E88 00 3C 42 42                .defb $00, $3C, $42, $42
3E8C 52 4A 3C 00                .defb $52, $4A, $3C, $00
3E90 00 7C 42 42                .defb $00, $7C, $42, $42
3E94 7C 44 42 00                .defb $7C, $44, $42, $00
3E98 00 3C 40 3C                .defb $00, $3C, $40, $3C
3E9C 02 42 3C 00                .defb $02, $42, $3C, $00
3EA0 00 FE 10 10                .defb $00, $FE, $10, $10 
3EA4 10 10 10 00                .defb $10, $10, $10, $00
3EA8 00 42 42 42                .defb $00, $42, $42, $42
3EAC 42 42 3C 00                .defb $42, $42, $3C, $00
;
;
;
3EB0 00                         nop
3EB1 42                         ld b,d
3EB2 42                         ld b,d
3EB3 42                         ld b,d
3EB4 42                         ld b,d
3EB5 24            L3EB5:       inc h
3EB6 18 00                      jr L3EB8
3EB8 00            L3EB8:       nop
3EB9 42                         ld b,d
3EBA 42                         ld b,d
3EBB 42                         ld b,d
3EBC 42                         ld b,d
3EBD 5A                         ld e,d
3EBE 24                         inc h
3EBF 00                         nop
3EC0 00                         nop
3EC1 42                         ld b,d
3EC2 24                         inc h
3EC3 18 18                      jr L3EDD
3EC5 24                         inc h
3EC6 42                         ld b,d
3EC7 00                         nop
3EC8 00                         nop
3EC9 82                         add a,d
3ECA 44                         ld b,h
3ECB 28 10                      jr z,L3EDD
3ECD 10 10                      djnz L3EDF
3ECF 00                         nop
3ED0 00                         nop
3ED1 7E                         ld a,(hl)
3ED2 04                         inc b
3ED3 08                         ex af,af'
3ED4 10 20                      djnz L3EF6
3ED6 7E                         ld a,(hl)
3ED7 00                         nop
3ED8 00                         nop
3ED9 0E 08                      ld c,$08
3EDB 08                         ex af,af'
3EDC 08                         ex af,af'
3EDD 08            L3EDD:       ex af,af'
3EDE 0E 00                      ld c,$00
3EE0 00                         nop
3EE1 00                         nop
3EE2 40                         ld b,b
3EE3 20 10                      jr nz,L3EF5
3EE5 08                         ex af,af'
3EE6 04                         inc b
3EE7 00                         nop
3EE8 00                         nop
3EE9 70                         ld (hl),b
3EEA 10 10                      djnz L3EFC
3EEC 10 10                      djnz L3EFE
3EEE 70                         ld (hl),b
3EEF 00                         nop
3EF0 00                         nop
3EF1 10 38                      djnz L3F2B
3EF3 54                         ld d,h
3EF4 10 10                      djnz L3F06
3EF6 10 00         L3EF6:       djnz L3EF8
3EF8 00            L3EF8:       nop
3EF9 00                         nop
3EFA 00                         nop
3EFB 00                         nop
3EFC 00            L3EFC:       nop
3EFD 00                         nop
3EFE 00            L3EFE:       nop
3EFF FF                         rst $38
3F00 00                         nop
3F01 1C                         inc e
3F02 22 78 20                   ld ($2078),hl
3F05 20 7E                      jr nz,L3F85
3F07 00                         nop
3F08 00                         nop
3F09 00                         nop
3F0A 38 04                      jr c,L3F10
3F0C 3C                         inc a
3F0D 44                         ld b,h
3F0E 3C                         inc a
3F0F 00                         nop
3F10 00            L3F10:       nop
3F11 20 20                      jr nz,L3F33
3F13 3C                         inc a
3F14 22 22 3C                   ld ($3C22),hl
3F17 00                         nop
3F18 00                         nop
3F19 00                         nop
3F1A 1C                         inc e
3F1B 20 20                      jr nz,L3F3D
3F1D 20 1C                      jr nz,L3F3B
3F1F 00                         nop
3F20 00                         nop
3F21 04                         inc b
3F22 04                         inc b
3F23 3C                         inc a
3F24 44                         ld b,h
3F25 44                         ld b,h
3F26 3C                         inc a
3F27 00                         nop
3F28 00                         nop
3F29 00                         nop
3F2A 38 44         L3F2A:       jr c,L3F70
3F2C 78                         ld a,b
3F2D 40                         ld b,b
3F2E 3C                         inc a
3F2F 00                         nop
3F30 00                         nop
3F31 0C                         inc c
3F32 10 18                      djnz L3F4C
3F34 10 10                      djnz L3F46
3F36 10 00                      djnz L3F38
3F38 00            L3F38:       nop
3F39 00                         nop
3F3A 3C                         inc a
3F3B 44            L3F3B:       ld b,h
3F3C 44                         ld b,h
3F3D 3C            L3F3D:       inc a
3F3E 04                         inc b
3F3F 38 00                      jr c,L3F41
3F41 40            L3F41:       ld b,b
3F42 40                         ld b,b
3F43 78                         ld a,b
3F44 44                         ld b,h
3F45 44                         ld b,h
3F46 44            L3F46:       ld b,h
3F47 00                         nop
3F48 00                         nop
3F49 10 00                      djnz L3F4B
3F4B 30 10         L3F4B:       jr nc,L3F5D
3F4D 10 38                      djnz L3F87
3F4F 00                         nop
3F50 00                         nop
3F51 04                         inc b
3F52 00                         nop
3F53 04                         inc b
3F54 04                         inc b
3F55 04                         inc b
3F56 24                         inc h
3F57 18 00                      jr L3F59
3F59 20 28         L3F59:       jr nz,L3F83
3F5B 30 30                      jr nc,L3F8D
3F5D 28 24         L3F5D:       jr z,L3F83
3F5F 00                         nop
3F60 00                         nop
3F61 10 10                      djnz L3F73
3F63 10 10                      djnz L3F75
3F65 10 0C                      djnz L3F73
3F67 00                         nop
3F68 00                         nop
3F69 00                         nop
3F6A 68                         ld l,b
3F6B 54                         ld d,h
3F6C 54                         ld d,h
3F6D 54                         ld d,h
3F6E 54                         ld d,h
3F6F 00                         nop
3F70 00            L3F70:       nop
3F71 00                         nop
3F72 78                         ld a,b
3F73 44            L3F73:       ld b,h
3F74 44                         ld b,h
3F75 44            L3F75:       ld b,h
3F76 44                         ld b,h
3F77 00                         nop
3F78 00                         nop
3F79 00                         nop
3F7A 38 44                      jr c,L3FC0
3F7C 44                         ld b,h
3F7D 44                         ld b,h
3F7E 38 00                      jr c,L3F80
3F80 00            L3F80:       nop
3F81 00                         nop
3F82 78                         ld a,b
3F83 44            L3F83:       ld b,h
3F84 44                         ld b,h
3F85 78            L3F85:       ld a,b
3F86 40                         ld b,b
3F87 40            L3F87:       ld b,b
3F88 00                         nop
3F89 00                         nop
3F8A 3C                         inc a
3F8B 44                         ld b,h
3F8C 44                         ld b,h
3F8D 3C            L3F8D:       inc a
3F8E 04                         inc b
3F8F 06 00                      ld b,$00
3F91 00                         nop
3F92 1C                         inc e
3F93 20 20                      jr nz,L3FB5
3F95 20 20                      jr nz,L3FB7
3F97 00                         nop
3F98 00                         nop
3F99 00                         nop
3F9A 38 40                      jr c,L3FDC
3F9C 38 04                      jr c,L3FA2
3F9E 78                         ld a,b
3F9F 00                         nop
3FA0 00                         nop
3FA1 10 38                      djnz L3FDB
3FA3 10 10                      djnz L3FB5
3FA5 10 0C                      djnz L3FB3
3FA7 00                         nop
3FA8 00                         nop
3FA9 00                         nop
3FAA 44                         ld b,h
3FAB 44                         ld b,h
3FAC 44                         ld b,h
3FAD 44                         ld b,h
3FAE 38 00                      jr c,L3FB0
3FB0 00            L3FB0:       nop
3FB1 00                         nop
3FB2 44                         ld b,h
3FB3 44            L3FB3:       ld b,h
3FB4 28 28                      jr z,L3FDE
3FB6 10 00                      djnz L3FB8
3FB8 00            L3FB8:       nop
3FB9 00                         nop
3FBA 44                         ld b,h
3FBB 54                         ld d,h
3FBC 54                         ld d,h
3FBD 54                         ld d,h
3FBE 28 00                      jr z,L3FC0
3FC0 00            L3FC0:       nop
3FC1 00                         nop
3FC2 44                         ld b,h
3FC3 28 10                      jr z,L3FD5
3FC5 28 44                      jr z,L400B
3FC7 00                         nop
3FC8 00                         nop
3FC9 00                         nop
3FCA 44                         ld b,h
3FCB 44                         ld b,h
3FCC 44                         ld b,h
3FCD 3C                         inc a
3FCE 04                         inc b
3FCF 38 00                      jr c,L3FD1
3FD1 00            L3FD1:       nop
3FD2 7C                         ld a,h
3FD3 08                         ex af,af'
3FD4 10 20                      djnz L3FF6
3FD6 7C                         ld a,h
3FD7 00                         nop
3FD8 00                         nop
3FD9 0E 08                      ld c,$08
3FDB 30 08         L3FDB:       jr nc,L3FE5
3FDD 08                         ex af,af'
3FDE 0E 00         L3FDE:       ld c,$00
3FE0 00                         nop
3FE1 08                         ex af,af'
3FE2 08                         ex af,af'
3FE3 08                         ex af,af'
3FE4 08                         ex af,af'
3FE5 08            L3FE5:       ex af,af'
3FE6 08                         ex af,af'
3FE7 00                         nop
3FE8 00                         nop
3FE9 70                         ld (hl),b
3FEA 10 0C                      djnz L3FF8
3FEC 10 10                      djnz L3FFE
3FEE 70                         ld (hl),b
3FEF 00                         nop
3FF0 00                         nop
3FF1 14                         inc d
3FF2 28 00                      jr z,L3FF4
3FF4 00            L3FF4:       nop
3FF5 00                         nop
3FF6 00            L3FF6:       nop
3FF7 00                         nop
3FF8 3C            L3FF8:       inc a
3FF9 42                         ld b,d
3FFA 99                         sbc a,c
3FFB A1                         and c
3FFC A1                         and c
3FFD 99                         sbc a,c
3FFE 42            L3FFE:       ld b,d
3FFF 3C                         inc a
