ZX Spectrum Alt ROM Disassembly (ROM 1 - Second 16KB)
================================================================================
File: enAltZX.rom
Source ROM Block: ROM 1 (file bytes 0x4000-0x7FFF)
Disassembly Address Range: $0000 - $3FFF (0 - 16383)
Total Instructions: 10511
================================================================================

0000 00                         nop
0001 00                         nop
0002 00                         nop
0003 00                         nop
0004 00                         nop
0005 00                         nop
0006 00                         nop
0007 00                         nop
0008 00                         nop
0009 00                         nop
000A 00                         nop
000B 00                         nop
000C 00                         nop
000D 00                         nop
000E 00                         nop
000F 00                         nop
0010 C3 68 00                   jp L0068
0013 00                         nop
0014 00                         nop
0015 00                         nop
0016 00                         nop
0017 00                         nop
0018 C3 80 00                   jp L0080
001B 00                         nop
001C 00                         nop
001D 00                         nop
001E 00                         nop
001F 00                         nop
0020 C3 9D 00                   jp L009D
0023 00                         nop
0024 00                         nop
0025 00                         nop
0026 00                         nop
0027 00                         nop
0028 C3 16 01                   jp L0116
002B 00                         nop
002C 00                         nop
002D 00                         nop
002E 00                         nop
002F 00                         nop
0030 C3 1C 01                   jp L011C
0033 00                         nop
0034 00                         nop
0035 00                         nop
0036 00                         nop
0037 00                         nop
0038 F5                         push af
0039 00                         nop
003A 00                         nop
003B 00                         nop
003C 00                         nop
003D 00                         nop
003E 00                         nop
003F 00                         nop
0040 00                         nop
0041 00                         nop
0042 00                         nop
0043 00                         nop
0044 00                         nop
0045 00                         nop
0046 00                         nop
0047 00                         nop
0048 00                         nop
0049 00                         nop
004A 00                         nop
004B 00                         nop
004C 00                         nop
004D 00                         nop
004E 00                         nop
004F 00                         nop
0050 F1                         pop af
0051 FB                         ei
0052 C9                         ret
0053 00                         nop
0054 00                         nop
0055 00                         nop
0056 00                         nop
0057 00                         nop
0058 00                         nop
0059 00                         nop
005A 00                         nop
005B 00                         nop
005C 00                         nop
005D 00                         nop
005E 00                         nop
005F 00                         nop
0060 00                         nop
0061 00                         nop
0062 00                         nop
0063 00                         nop
0064 00                         nop
0065 00                         nop
0066 F5                         push af
0067 00                         nop
0068 ED 43 54 5B   L0068:       ld ($5B54),bc
006C E3                         ex (sp),hl
006D 4E                         ld c,(hl)
006E 23                         inc hl
006F 46                         ld b,(hl)
0070 23                         inc hl
0071 E3                         ex (sp),hl
0072 ED 8A 00 7B                push $007B
0076 C5                         push bc
0077 ED 4B 54 5B   L0077:       ld bc,($5B54)
007B ED 91 8C 00   L007B:       nextreg $8C,$00
007F C9                         ret
0080 ED 43 54 5B   L0080:       ld ($5B54),bc
0084 E3                         ex (sp),hl
0085 4E                         ld c,(hl)
0086 23                         inc hl
0087 46                         ld b,(hl)
0088 23                         inc hl
0089 E3                         ex (sp),hl
008A ED 8A 00 7B                push $007B
008E ED 8A 5B 3E                push $5B3E
0092 C5                         push bc
0093 ED 8A 5B 43                push $5B43
0097 ED 4B 54 5B                ld bc,($5B54)
009B 18 DE                      jr L007B
009D ED 43 54 5B   L009D:       ld ($5B54),bc
00A1 E3                         ex (sp),hl
00A2 4E                         ld c,(hl)
00A3 23                         inc hl
00A4 46                         ld b,(hl)
00A5 23                         inc hl
00A6 E3                         ex (sp),hl
00A7 ED 8A 00 7B   L00A7:       push $007B
00AB ED 8A 5B 3E                push $5B3E
00AF C5                         push bc
00B0 ED 8A 5B 48                push $5B48
00B4 ED 4B 54 5B                ld bc,($5B54)
00B8 18 C1                      jr L007B
00BA ED 43 54 5B   L00BA:       ld ($5B54),bc
00BE E3                         ex (sp),hl
00BF 4E                         ld c,(hl)
00C0 23                         inc hl
00C1 46                         ld b,(hl)
00C2 23                         inc hl
00C3 E3                         ex (sp),hl
00C4 ED 8A 00 7B                push $007B
00C8 ED 8A 5B 3E                push $5B3E
00CC C5                         push bc
00CD ED 8A 5B 4D                push $5B4D
00D1 ED 4B 54 5B                ld bc,($5B54)
00D5 18 A4                      jr L007B
00D7 ED 43 54 5B                ld ($5B54),bc
00DB E3                         ex (sp),hl
00DC 4E                         ld c,(hl)
00DD 23                         inc hl
00DE 46                         ld b,(hl)
00DF 23                         inc hl
00E0 E3                         ex (sp),hl
00E1 C5                         push bc
00E2 ED 8A 3E A0                push $3EA0
00E6 18 8F                      jr L0077
00E8 ED 91 8E 09   L00E8:       nextreg $8E,$09
00EC 08            L00EC:       ex af,af'
00ED F1                         pop af
00EE 22 52 5B                   ld ($5B52),hl
00F1 2A 6A 5B                   ld hl,($5B6A)
00F4 ED 73 6A 5B                ld ($5B6A),sp
00F8 F9                         ld sp,hl
00F9 2A 52 5B                   ld hl,($5B52)
00FC F5                         push af
00FD 08                         ex af,af'
00FE C9                         ret
00FF 08            L00FF:       ex af,af'
0100 F1                         pop af
0101 22 52 5B                   ld ($5B52),hl
0104 2A 6A 5B                   ld hl,($5B6A)
0107 ED 73 6A 5B                ld ($5B6A),sp
010B F9                         ld sp,hl
010C 2A 52 5B                   ld hl,($5B52)
010F F5                         push af
0110 08                         ex af,af'
0111 ED 91 8E 79                nextreg $8E,$79
0115 C9                         ret
0116 2A 5D 5C      L0116:       ld hl,($5C5D)
0119 C3 23 01                   jp L0123
011C 2A 5D 5C      L011C:       ld hl,($5C5D)
011F 23            L011F:       inc hl
0120 22 5D 5C      L0120:       ld ($5C5D),hl
0123 7E            L0123:       ld a,(hl)
0124 FE 21                      cp $21
0126 D0                         ret nc
0127 FE 0D                      cp $0D
0129 C8                         ret z
012A FE 0E                      cp $0E
012C C8                         ret z
012D 23                         inc hl
012E FE 18                      cp $18
0130 30 EE                      jr nc,L0120
0132 FE 10                      cp $10
0134 38 EA                      jr c,L0120
0136 FE 16                      cp $16
0138 38 E5                      jr c,L011F
013A 23                         inc hl
013B 18 E2                      jr L011F
013D 1A            L013D:       ld a,(de)
013E E6 7F                      and $7F
0140 E7                         rst $20
0141 10 00                      djnz L0143
0143 1A            L0143:       ld a,(de)
0144 13                         inc de
0145 87                         add a,a
0146 30 F5                      jr nc,L013D
0148 C9                         ret
0149 FD CB 01 7E   L0149:       bit 7,(iy+$01)
014D C0                         ret nz
014E C1                         pop bc
014F C1                         pop bc
0150 21 56 09                   ld hl,$0956
0153 E3                         ex (sp),hl
0154 C5                         push bc
0155 C9                         ret
0156 00                         nop
0157 00                         nop
0158 00                         nop
0159 00                         nop
015A 00                         nop
015B 00                         nop
015C 00                         nop
015D 00                         nop
015E 00                         nop
015F 00                         nop
0160 00                         nop
0161 00                         nop
0162 00                         nop
0163 00                         nop
0164 00                         nop
0165 00                         nop
0166 00                         nop
0167 00                         nop
0168 00                         nop
0169 00                         nop
016A 00                         nop
016B 00                         nop
016C 00                         nop
016D 00                         nop
016E 00                         nop
016F 00                         nop
0170 00                         nop
0171 00                         nop
0172 00                         nop
0173 00                         nop
0174 00                         nop
0175 00                         nop
0176 00                         nop
0177 00                         nop
0178 00                         nop
0179 00                         nop
017A 00                         nop
017B 00                         nop
017C 00                         nop
017D 00                         nop
017E 00                         nop
017F 00                         nop
0180 00                         nop
0181 00                         nop
0182 00                         nop
0183 00                         nop
0184 00                         nop
0185 00                         nop
0186 00                         nop
0187 00                         nop
0188 00                         nop
0189 00                         nop
018A 00                         nop
018B 00                         nop
018C 00                         nop
018D 00                         nop
018E 00                         nop
018F 00                         nop
0190 00                         nop
0191 00                         nop
0192 00                         nop
0193 00                         nop
0194 00                         nop
0195 00                         nop
0196 00                         nop
0197 00                         nop
0198 00                         nop
0199 00                         nop
019A 00                         nop
019B 00                         nop
019C 00                         nop
019D 00                         nop
019E 00                         nop
019F 00                         nop
01A0 00                         nop
01A1 00                         nop
01A2 00                         nop
01A3 00                         nop
01A4 00                         nop
01A5 00                         nop
01A6 00                         nop
01A7 00                         nop
01A8 00                         nop
01A9 00                         nop
01AA 00                         nop
01AB 00                         nop
01AC 00                         nop
01AD 00                         nop
01AE 00                         nop
01AF 00                         nop
01B0 00                         nop
01B1 00                         nop
01B2 00                         nop
01B3 00                         nop
01B4 00                         nop
01B5 00                         nop
01B6 00                         nop
01B7 00                         nop
01B8 00                         nop
01B9 00                         nop
01BA 00                         nop
01BB 00                         nop
01BC 00                         nop
01BD 00                         nop
01BE 00                         nop
01BF 00                         nop
01C0 00                         nop
01C1 00                         nop
01C2 00                         nop
01C3 00                         nop
01C4 00                         nop
01C5 00                         nop
01C6 00                         nop
01C7 00                         nop
01C8 00                         nop
01C9 00                         nop
01CA 00                         nop
01CB 00                         nop
01CC 00                         nop
01CD 00                         nop
01CE 00                         nop
01CF 00                         nop
01D0 00                         nop
01D1 00                         nop
01D2 00                         nop
01D3 00                         nop
01D4 00                         nop
01D5 00                         nop
01D6 00                         nop
01D7 00                         nop
01D8 00                         nop
01D9 00                         nop
01DA 00                         nop
01DB 00                         nop
01DC 00                         nop
01DD 00                         nop
01DE 00                         nop
01DF 00                         nop
01E0 00                         nop
01E1 00                         nop
01E2 00                         nop
01E3 00                         nop
01E4 00                         nop
01E5 00                         nop
01E6 00                         nop
01E7 00                         nop
01E8 00                         nop
01E9 00                         nop
01EA 00                         nop
01EB 00                         nop
01EC 00                         nop
01ED 00                         nop
01EE 00                         nop
01EF 00                         nop
01F0 00                         nop
01F1 00                         nop
01F2 00                         nop
01F3 00                         nop
01F4 00                         nop
01F5 00                         nop
01F6 00                         nop
01F7 00                         nop
01F8 00                         nop
01F9 00                         nop
01FA 00                         nop
01FB 00                         nop
01FC 00                         nop
01FD 00                         nop
01FE 00                         nop
01FF 00                         nop
0200 00                         nop
0201 00                         nop
0202 00                         nop
0203 00                         nop
0204 00                         nop
0205 00                         nop
0206 00                         nop
0207 00                         nop
0208 00                         nop
0209 00                         nop
020A 00                         nop
020B 00                         nop
020C 00                         nop
020D 00                         nop
020E 00                         nop
020F 00                         nop
0210 00                         nop
0211 00                         nop
0212 00                         nop
0213 00                         nop
0214 00                         nop
0215 00                         nop
0216 00                         nop
0217 00                         nop
0218 00                         nop
0219 00                         nop
021A 00                         nop
021B 00                         nop
021C 00                         nop
021D 00                         nop
021E 00                         nop
021F 00                         nop
0220 00                         nop
0221 00                         nop
0222 00                         nop
0223 00                         nop
0224 00                         nop
0225 00                         nop
0226 00                         nop
0227 00                         nop
0228 00                         nop
0229 00                         nop
022A 00                         nop
022B 00                         nop
022C 00                         nop
022D 00                         nop
022E 00                         nop
022F 00                         nop
0230 00                         nop
0231 00                         nop
0232 00                         nop
0233 00                         nop
0234 00                         nop
0235 00                         nop
0236 00                         nop
0237 00                         nop
0238 00                         nop
0239 00                         nop
023A 00                         nop
023B 00                         nop
023C 00                         nop
023D 00                         nop
023E 00                         nop
023F 00                         nop
0240 00                         nop
0241 00                         nop
0242 00                         nop
0243 00                         nop
0244 00                         nop
0245 00                         nop
0246 00                         nop
0247 00                         nop
0248 00                         nop
0249 00                         nop
024A 00                         nop
024B 00                         nop
024C 00                         nop
024D 00                         nop
024E 00                         nop
024F 00                         nop
0250 00                         nop
0251 00                         nop
0252 00                         nop
0253 00                         nop
0254 00                         nop
0255 00                         nop
0256 00                         nop
0257 00                         nop
0258 00                         nop
0259 00                         nop
025A 00                         nop
025B 00                         nop
025C 00                         nop
025D 00                         nop
025E 00                         nop
025F 00                         nop
0260 00                         nop
0261 00                         nop
0262 00                         nop
0263 00                         nop
0264 00                         nop
0265 00                         nop
0266 00                         nop
0267 00                         nop
0268 00                         nop
0269 00                         nop
026A 00                         nop
026B 00                         nop
026C 00                         nop
026D 00                         nop
026E 00                         nop
026F 00                         nop
0270 00                         nop
0271 00                         nop
0272 00                         nop
0273 00                         nop
0274 00                         nop
0275 00                         nop
0276 00                         nop
0277 00                         nop
0278 00                         nop
0279 00                         nop
027A 00                         nop
027B 00                         nop
027C 00                         nop
027D 00                         nop
027E 00                         nop
027F 00                         nop
0280 00                         nop
0281 00                         nop
0282 00                         nop
0283 00                         nop
0284 00                         nop
0285 00                         nop
0286 00                         nop
0287 00                         nop
0288 00                         nop
0289 00                         nop
028A 00                         nop
028B 00                         nop
028C 00                         nop
028D 00                         nop
028E 00                         nop
028F 00                         nop
0290 00                         nop
0291 00                         nop
0292 00                         nop
0293 00                         nop
0294 00                         nop
0295 00                         nop
0296 00                         nop
0297 00                         nop
0298 00                         nop
0299 00                         nop
029A 00                         nop
029B 00                         nop
029C 00                         nop
029D 00                         nop
029E 00                         nop
029F 00                         nop
02A0 00                         nop
02A1 00                         nop
02A2 00                         nop
02A3 00                         nop
02A4 00                         nop
02A5 00                         nop
02A6 00                         nop
02A7 00                         nop
02A8 00                         nop
02A9 00                         nop
02AA 00                         nop
02AB 00                         nop
02AC 00                         nop
02AD 00                         nop
02AE 00                         nop
02AF 00                         nop
02B0 00                         nop
02B1 00                         nop
02B2 00                         nop
02B3 00                         nop
02B4 00                         nop
02B5 00                         nop
02B6 00                         nop
02B7 00                         nop
02B8 00                         nop
02B9 00                         nop
02BA 00                         nop
02BB 00                         nop
02BC 00                         nop
02BD 00                         nop
02BE 00                         nop
02BF 00                         nop
02C0 00                         nop
02C1 00                         nop
02C2 00                         nop
02C3 00                         nop
02C4 00                         nop
02C5 00                         nop
02C6 00                         nop
02C7 00                         nop
02C8 00                         nop
02C9 00                         nop
02CA 00                         nop
02CB 00                         nop
02CC 00                         nop
02CD 00                         nop
02CE 00                         nop
02CF 00                         nop
02D0 00                         nop
02D1 00                         nop
02D2 00                         nop
02D3 00                         nop
02D4 00                         nop
02D5 00                         nop
02D6 00                         nop
02D7 00                         nop
02D8 00                         nop
02D9 00                         nop
02DA 00                         nop
02DB 00                         nop
02DC 00                         nop
02DD 00                         nop
02DE 00                         nop
02DF 00                         nop
02E0 00                         nop
02E1 00                         nop
02E2 00                         nop
02E3 00                         nop
02E4 00                         nop
02E5 00                         nop
02E6 00                         nop
02E7 00                         nop
02E8 00                         nop
02E9 00                         nop
02EA 00                         nop
02EB 00                         nop
02EC 00                         nop
02ED 00                         nop
02EE 00                         nop
02EF 00                         nop
02F0 00                         nop
02F1 00                         nop
02F2 00                         nop
02F3 00                         nop
02F4 00                         nop
02F5 00                         nop
02F6 00                         nop
02F7 00                         nop
02F8 00                         nop
02F9 00                         nop
02FA 00                         nop
02FB 00                         nop
02FC 00                         nop
02FD 00                         nop
02FE 00                         nop
02FF 00                         nop
0300 00                         nop
0301 00                         nop
0302 00                         nop
0303 00                         nop
0304 00                         nop
0305 00                         nop
0306 00                         nop
0307 00                         nop
0308 00                         nop
0309 00                         nop
030A 00                         nop
030B 00                         nop
030C 00                         nop
030D 00                         nop
030E 00                         nop
030F 00                         nop
0310 00                         nop
0311 00                         nop
0312 00                         nop
0313 00                         nop
0314 00                         nop
0315 00                         nop
0316 00                         nop
0317 00                         nop
0318 00                         nop
0319 00                         nop
031A 00                         nop
031B 00                         nop
031C 00                         nop
031D 00                         nop
031E 00                         nop
031F 00                         nop
0320 00                         nop
0321 00                         nop
0322 00                         nop
0323 00                         nop
0324 00                         nop
0325 00                         nop
0326 00                         nop
0327 00                         nop
0328 00                         nop
0329 00                         nop
032A 00                         nop
032B 00                         nop
032C 00                         nop
032D 00                         nop
032E 00                         nop
032F 00                         nop
0330 00                         nop
0331 00                         nop
0332 00                         nop
0333 00                         nop
0334 00                         nop
0335 00                         nop
0336 00                         nop
0337 00                         nop
0338 00                         nop
0339 00                         nop
033A 00                         nop
033B 00                         nop
033C 00                         nop
033D 00                         nop
033E 00                         nop
033F 00                         nop
0340 00                         nop
0341 00                         nop
0342 00                         nop
0343 00                         nop
0344 00                         nop
0345 00                         nop
0346 00                         nop
0347 00                         nop
0348 00                         nop
0349 00                         nop
034A 00                         nop
034B 00                         nop
034C 00                         nop
034D 00                         nop
034E 00                         nop
034F 00                         nop
0350 00                         nop
0351 00                         nop
0352 00                         nop
0353 00                         nop
0354 00                         nop
0355 00                         nop
0356 00                         nop
0357 00                         nop
0358 00                         nop
0359 00                         nop
035A 00                         nop
035B 00                         nop
035C 00                         nop
035D 00                         nop
035E 00                         nop
035F 00                         nop
0360 00                         nop
0361 00                         nop
0362 00                         nop
0363 00                         nop
0364 00                         nop
0365 00                         nop
0366 00                         nop
0367 00                         nop
0368 00                         nop
0369 00                         nop
036A 00                         nop
036B 00                         nop
036C 00                         nop
036D 00                         nop
036E 00                         nop
036F 00                         nop
0370 00                         nop
0371 00                         nop
0372 00                         nop
0373 00                         nop
0374 00                         nop
0375 00                         nop
0376 00                         nop
0377 00                         nop
0378 00                         nop
0379 00                         nop
037A 00                         nop
037B 00                         nop
037C 00                         nop
037D 00                         nop
037E 00                         nop
037F 00                         nop
0380 00                         nop
0381 00                         nop
0382 00                         nop
0383 00                         nop
0384 00                         nop
0385 00                         nop
0386 00                         nop
0387 00                         nop
0388 00                         nop
0389 00                         nop
038A 00                         nop
038B 00                         nop
038C 00                         nop
038D 00                         nop
038E 00                         nop
038F 00                         nop
0390 00                         nop
0391 00                         nop
0392 00                         nop
0393 00                         nop
0394 00                         nop
0395 00                         nop
0396 00                         nop
0397 00                         nop
0398 00                         nop
0399 00                         nop
039A 00                         nop
039B 00                         nop
039C 00                         nop
039D 00                         nop
039E 00                         nop
039F 00                         nop
03A0 00                         nop
03A1 00                         nop
03A2 00                         nop
03A3 00                         nop
03A4 00                         nop
03A5 00                         nop
03A6 00                         nop
03A7 00                         nop
03A8 00                         nop
03A9 00                         nop
03AA 00                         nop
03AB 00                         nop
03AC 00                         nop
03AD 00                         nop
03AE 00                         nop
03AF 00                         nop
03B0 00                         nop
03B1 00                         nop
03B2 00                         nop
03B3 00                         nop
03B4 00                         nop
03B5 00                         nop
03B6 00                         nop
03B7 00                         nop
03B8 00                         nop
03B9 00                         nop
03BA 00                         nop
03BB 00                         nop
03BC 00                         nop
03BD 00                         nop
03BE 00                         nop
03BF 00                         nop
03C0 00                         nop
03C1 00                         nop
03C2 00                         nop
03C3 00                         nop
03C4 00                         nop
03C5 00                         nop
03C6 00                         nop
03C7 00                         nop
03C8 00                         nop
03C9 00                         nop
03CA 00                         nop
03CB 00                         nop
03CC 00                         nop
03CD 00                         nop
03CE 00                         nop
03CF 00                         nop
03D0 00                         nop
03D1 00                         nop
03D2 00                         nop
03D3 00                         nop
03D4 00                         nop
03D5 00                         nop
03D6 00                         nop
03D7 00                         nop
03D8 00                         nop
03D9 00                         nop
03DA 00                         nop
03DB 00                         nop
03DC 00                         nop
03DD 00                         nop
03DE 00                         nop
03DF 00                         nop
03E0 00                         nop
03E1 00                         nop
03E2 00                         nop
03E3 00                         nop
03E4 00                         nop
03E5 00                         nop
03E6 00                         nop
03E7 00                         nop
03E8 00                         nop
03E9 00                         nop
03EA 00                         nop
03EB 00                         nop
03EC 00                         nop
03ED 00                         nop
03EE 00                         nop
03EF 00                         nop
03F0 00                         nop
03F1 00                         nop
03F2 00                         nop
03F3 00                         nop
03F4 00                         nop
03F5 00                         nop
03F6 00                         nop
03F7 00                         nop
03F8 00                         nop
03F9 00                         nop
03FA 00                         nop
03FB 00                         nop
03FC 00                         nop
03FD 00                         nop
03FE 00                         nop
03FF 00                         nop
0400 00                         nop
0401 00                         nop
0402 00                         nop
0403 00                         nop
0404 00                         nop
0405 00                         nop
0406 00                         nop
0407 00                         nop
0408 00                         nop
0409 00                         nop
040A 00                         nop
040B 00                         nop
040C 00                         nop
040D 00                         nop
040E 00                         nop
040F 00                         nop
0410 00                         nop
0411 00                         nop
0412 00                         nop
0413 00                         nop
0414 00                         nop
0415 00                         nop
0416 00                         nop
0417 00                         nop
0418 00                         nop
0419 00                         nop
041A 00                         nop
041B 00                         nop
041C 00                         nop
041D 00                         nop
041E 00                         nop
041F 00                         nop
0420 00                         nop
0421 00                         nop
0422 00                         nop
0423 00                         nop
0424 00                         nop
0425 00                         nop
0426 00                         nop
0427 00                         nop
0428 00                         nop
0429 00                         nop
042A 00                         nop
042B 00                         nop
042C 00                         nop
042D 00                         nop
042E 00                         nop
042F 00                         nop
0430 00                         nop
0431 00                         nop
0432 00                         nop
0433 00                         nop
0434 00                         nop
0435 00                         nop
0436 00                         nop
0437 00                         nop
0438 00                         nop
0439 00                         nop
043A 00                         nop
043B 00                         nop
043C 00                         nop
043D 00                         nop
043E 00                         nop
043F 00                         nop
0440 00                         nop
0441 00                         nop
0442 00                         nop
0443 00                         nop
0444 00                         nop
0445 00                         nop
0446 00                         nop
0447 00                         nop
0448 00                         nop
0449 00                         nop
044A 00                         nop
044B 00                         nop
044C 00                         nop
044D 00                         nop
044E 00                         nop
044F 00                         nop
0450 00                         nop
0451 00                         nop
0452 00                         nop
0453 00                         nop
0454 00                         nop
0455 00                         nop
0456 00                         nop
0457 00                         nop
0458 00                         nop
0459 00                         nop
045A 00                         nop
045B 00                         nop
045C 00                         nop
045D 00                         nop
045E 00                         nop
045F 00                         nop
0460 00                         nop
0461 00                         nop
0462 00                         nop
0463 00                         nop
0464 00                         nop
0465 00                         nop
0466 00                         nop
0467 00                         nop
0468 00                         nop
0469 00                         nop
046A 00                         nop
046B 00                         nop
046C 00                         nop
046D 00                         nop
046E 00                         nop
046F 00                         nop
0470 00                         nop
0471 00                         nop
0472 00                         nop
0473 00                         nop
0474 00                         nop
0475 00                         nop
0476 00                         nop
0477 00                         nop
0478 00                         nop
0479 00                         nop
047A 00                         nop
047B 00                         nop
047C 00                         nop
047D 00                         nop
047E 00                         nop
047F 00                         nop
0480 00                         nop
0481 00                         nop
0482 00                         nop
0483 00                         nop
0484 00                         nop
0485 00                         nop
0486 00                         nop
0487 00                         nop
0488 00                         nop
0489 00                         nop
048A 00                         nop
048B 00                         nop
048C 00                         nop
048D 00                         nop
048E 00                         nop
048F 00                         nop
0490 00                         nop
0491 00                         nop
0492 00                         nop
0493 00                         nop
0494 00                         nop
0495 00                         nop
0496 00                         nop
0497 00                         nop
0498 00                         nop
0499 00                         nop
049A 00                         nop
049B 00                         nop
049C 00                         nop
049D 00                         nop
049E 00                         nop
049F 00                         nop
04A0 00                         nop
04A1 00                         nop
04A2 00                         nop
04A3 00                         nop
04A4 00                         nop
04A5 00                         nop
04A6 00                         nop
04A7 00                         nop
04A8 00                         nop
04A9 00                         nop
04AA 00                         nop
04AB 00                         nop
04AC 00                         nop
04AD 00                         nop
04AE 00                         nop
04AF 00                         nop
04B0 00                         nop
04B1 00                         nop
04B2 00                         nop
04B3 00                         nop
04B4 00                         nop
04B5 00                         nop
04B6 00                         nop
04B7 00                         nop
04B8 00                         nop
04B9 00                         nop
04BA 00                         nop
04BB 00                         nop
04BC 00                         nop
04BD 00                         nop
04BE 00                         nop
04BF 00                         nop
04C0 00                         nop
04C1 00                         nop
04C2 00                         nop
04C3 00                         nop
04C4 00                         nop
04C5 00                         nop
04C6 00                         nop
04C7 00                         nop
04C8 00                         nop
04C9 00                         nop
04CA 00                         nop
04CB 00                         nop
04CC 00                         nop
04CD 00                         nop
04CE 00                         nop
04CF 00                         nop
04D0 00                         nop
04D1 00                         nop
04D2 00                         nop
04D3 00                         nop
04D4 00                         nop
04D5 00                         nop
04D6 00                         nop
04D7 00                         nop
04D8 00                         nop
04D9 00                         nop
04DA 00                         nop
04DB 00                         nop
04DC 00                         nop
04DD 00                         nop
04DE 00                         nop
04DF 00                         nop
04E0 00                         nop
04E1 00                         nop
04E2 00                         nop
04E3 00                         nop
04E4 00                         nop
04E5 00                         nop
04E6 00                         nop
04E7 00                         nop
04E8 00                         nop
04E9 00                         nop
04EA 00                         nop
04EB 00                         nop
04EC 00                         nop
04ED 00                         nop
04EE 00                         nop
04EF 00                         nop
04F0 00                         nop
04F1 00                         nop
04F2 00                         nop
04F3 00                         nop
04F4 00                         nop
04F5 00                         nop
04F6 00                         nop
04F7 00                         nop
04F8 00                         nop
04F9 00                         nop
04FA 00                         nop
04FB 00                         nop
04FC 00                         nop
04FD 00                         nop
04FE 00                         nop
04FF 00                         nop
0500 00                         nop
0501 00                         nop
0502 00                         nop
0503 00                         nop
0504 00                         nop
0505 00                         nop
0506 00                         nop
0507 00                         nop
0508 00                         nop
0509 00                         nop
050A 00                         nop
050B 00                         nop
050C 00                         nop
050D 00                         nop
050E 00                         nop
050F 00                         nop
0510 00                         nop
0511 00                         nop
0512 00                         nop
0513 00                         nop
0514 00                         nop
0515 00                         nop
0516 00                         nop
0517 00                         nop
0518 00                         nop
0519 00                         nop
051A 00                         nop
051B 00                         nop
051C 00                         nop
051D 00                         nop
051E 00                         nop
051F 00                         nop
0520 00                         nop
0521 00                         nop
0522 00                         nop
0523 00                         nop
0524 00                         nop
0525 00                         nop
0526 00                         nop
0527 00                         nop
0528 00                         nop
0529 00                         nop
052A 00                         nop
052B 00                         nop
052C 00                         nop
052D 00                         nop
052E 00                         nop
052F 00                         nop
0530 00                         nop
0531 00                         nop
0532 00                         nop
0533 00                         nop
0534 00                         nop
0535 00                         nop
0536 00                         nop
0537 00                         nop
0538 00                         nop
0539 00                         nop
053A 00                         nop
053B 00                         nop
053C 00                         nop
053D 00                         nop
053E 00                         nop
053F 00                         nop
0540 00                         nop
0541 00                         nop
0542 00                         nop
0543 00                         nop
0544 00                         nop
0545 00                         nop
0546 00                         nop
0547 00                         nop
0548 00                         nop
0549 00                         nop
054A 00                         nop
054B 00                         nop
054C 00                         nop
054D 00                         nop
054E 00                         nop
054F 00                         nop
0550 00                         nop
0551 00                         nop
0552 00                         nop
0553 00                         nop
0554 00                         nop
0555 00                         nop
0556 00                         nop
0557 00                         nop
0558 00                         nop
0559 00                         nop
055A 00                         nop
055B 00                         nop
055C 00                         nop
055D 00                         nop
055E 00                         nop
055F 00                         nop
0560 00                         nop
0561 00                         nop
0562 00                         nop
0563 00                         nop
0564 00                         nop
0565 00                         nop
0566 00                         nop
0567 00                         nop
0568 00                         nop
0569 00                         nop
056A 00                         nop
056B FE 81                      cp $81
056D DA 48 06                   jp c,L0648
0570 FE D1                      cp $D1
0572 CA 12 0D                   jp z,L0D12
0575 FE E8                      cp $E8
0577 CA AA 0B                   jp z,L0BAA
057A FE F2                      cp $F2
057C CA 89 0C                   jp z,L0C89
057F FE F7                      cp $F7
0581 28 68                      jr z,L05EB
0583 FE E2                      cp $E2
0585 28 6F                      jr z,L05F6
0587 FE F5                      cp $F5
0589 28 1A                      jr z,L05A5
058B FE E7                      cp $E7
058D 28 16                      jr z,L05A5
058F FE 9D                      cp $9D
0591 CA C9 14                   jp z,L14C9
0594 FE FD                      cp $FD
0596 28 71                      jr z,L0609
0598 FE E9                      cp $E9
059A CA 1D 06                   jp z,L061D
059D FE 9A                      cp $9A
059F CA E8 06                   jp z,L06E8
05A2 C3 48 06                   jp L0648
05A5 F5            L05A5:       push af
05A6 ED 8A 05 B5                push $05B5
05AA ED 8A 00 7B                push $007B
05AE ED 8A 06 34                push $0634
05B2 C3 7B 00                   jp L007B
05B5 F1                         pop af
05B6 CD 49 01                   call L0149
05B9 F5                         push af
05BA ED 8A 05 C9                push $05C9
05BE ED 8A 00 7B                push $007B
05C2 ED 8A 38 23                push $3823
05C6 C3 7B 00                   jp L007B
05C9 FE 02                      cp $02
05CB D2 22 12                   jp nc,L1222
05CE 5F                         ld e,a
05CF F1                         pop af
05D0 16 FE                      ld d,$FE
05D2 FE F5                      cp $F5
05D4 7B                         ld a,e
05D5 28 03                      jr z,L05DA
05D7 07                         rlca
05D8 16 FD                      ld d,$FD
05DA 5F            L05DA:       ld e,a
05DB ED 8A 05 EA                push $05EA
05DF ED 8A 00 7B                push $007B
05E3 ED 8A 14 6F                push $146F
05E7 C3 7B 00                   jp L007B
05EA C9                         ret
05EB FD CB 01 7E   L05EB:       bit 7,(iy+$01)
05EF C4 76 0D                   call nz,L0D76
05F2 1E 00                      ld e,$00
05F4 18 02                      jr L05F8
05F6 1E FF         L05F6:       ld e,$FF
05F8 F7            L05F8:       rst $30
05F9 CD 49 01                   call L0149
05FC ED 91 51 10                nextreg $51,$10
0600 21 FF 2C                   ld hl,$2CFF
0603 73                         ld (hl),e
0604 ED 91 51 FF                nextreg $51,$FF
0608 C9                         ret
0609 F7            L0609:       rst $30
060A CD 49 01                   call L0149
060D ED 8A 06 1C                push $061C
0611 ED 8A 00 7B                push $007B
0615 ED 8A 15 48                push $1548
0619 C3 7B 00                   jp L007B
061C C9                         ret
061D ED 8A 06 2C   L061D:       push $062C
0621 ED 8A 00 7B                push $007B
0625 ED 8A 06 3B                push $063B
0629 C3 7B 00                   jp L007B
062C FE 2C                      cp $2C
062E C2 D7 06                   jp nz,L06D7
0631 ED 8A 06 40                push $0640
0635 ED 8A 00 7B                push $007B
0639 ED 8A 06 3B                push $063B
063D C3 7B 00                   jp L007B
0640 CD 49 01                   call L0149
0643 2E 19                      ld l,$19
0645 C3 96 13                   jp L1396
0648 ED 8A 06 57   L0648:       push $0657
064C ED 8A 00 7B                push $007B
0650 ED 8A 06 35                push $0635
0654 C3 7B 00                   jp L007B
0657 01 00 00                   ld bc,$0000
065A 37            L065A:       scf
065B CB 11         L065B:       rl c
065D FA 9E 06                   jp m,L069E
0660 ED 8A 06 6F                push $066F
0664 ED 8A 00 7B                push $007B
0668 ED 8A 08 E9                push $08E9
066C C3 7B 00                   jp L007B
066F 28 05                      jr z,L0676
0671 FE 2C                      cp $2C
0673 20 62                      jr nz,L06D7
0675 F7                         rst $30
0676 ED 8A 06 85   L0676:       push $0685
067A ED 8A 00 7B                push $007B
067E ED 8A 08 E9                push $08E9
0682 C3 7B 00                   jp L007B
0685 28 D4                      jr z,L065B
0687 FE 2C                      cp $2C
0689 28 D0                      jr z,L065B
068B C5                         push bc
068C ED 8A 06 9B                push $069B
0690 ED 8A 00 7B                push $007B
0694 ED 8A 06 35                push $0635
0698 C3 7B 00                   jp L007B
069B C1                         pop bc
069C 18 BC                      jr L065A
069E CD 49 01      L069E:       call L0149
06A1 3E 08                      ld a,$08
06A3 CD 3C 08                   call L083C
06A6 21 01 08                   ld hl,$0801
06A9 CB 7A                      bit 7,d
06AB CB BA                      res 7,d
06AD 28 03                      jr z,L06B2
06AF 21 12 08                   ld hl,$0812
06B2 CD 76 08      L06B2:       call L0876
06B5 E5                         push hl
06B6 23                         inc hl
06B7 23                         inc hl
06B8 23                         inc hl
06B9 CB 7E                      bit 7,(hl)
06BB 20 0A                      jr nz,L06C7
06BD 3A 9A 5C                   ld a,($5C9A)
06C0 37                         scf
06C1 CD 5C 0C                   call L0C5C
06C4 2F                         cpl
06C5 A6                         and (hl)
06C6 77                         ld (hl),a
06C7 E1            L06C7:       pop hl
06C8 3A FF 2C                   ld a,($2CFF)
06CB A7                         and a
06CC C2 39 0C                   jp nz,L0C39
06CF CD C8 07                   call L07C8
06D2 ED 91 51 FF                nextreg $51,$FF
06D6 C9                         ret
06D7 3E 0B         L06D7:       ld a,$0B
06D9 ED 8A 06 E8                push $06E8
06DD ED 8A 00 7B                push $007B
06E1 ED 8A 0D A5                push $0DA5
06E5 C3 7B 00                   jp L007B
06E8 ED 8A 06 F7   L06E8:       push $06F7
06EC ED 8A 00 7B                push $007B
06F0 ED 8A 06 34                push $0634
06F4 C3 7B 00                   jp L007B
06F7 FE 2C                      cp $2C
06F9 20 73                      jr nz,L076E
06FB ED 8A 07 0A                push $070A
06FF ED 8A 00 7B                push $007B
0703 ED 8A 06 3B                push $063B
0707 C3 7B 00                   jp L007B
070A FE 2C                      cp $2C
070C 20 C9                      jr nz,L06D7
070E ED 8A 07 1D   L070E:       push $071D
0712 ED 8A 00 7B                push $007B
0716 ED 8A 06 34                push $0634
071A C3 7B 00                   jp L007B
071D CD 49 01                   call L0149
0720 ED 8A 07 2F                push $072F
0724 ED 8A 00 7B                push $007B
0728 ED 8A 38 23                push $3823
072C C3 7B 00                   jp L007B
072F A7                         and a
0730 CA 22 12                   jp z,L1222
0733 FE 41                      cp $41
0735 D2 22 12                   jp nc,L1222
0738 47                         ld b,a
0739 C5                         push bc
073A ED 8A 07 49                push $0749
073E ED 8A 00 7B                push $007B
0742 ED 8A 38 23                push $3823
0746 C3 7B 00                   jp L007B
0749 C1                         pop bc
074A FE 40                      cp $40
074C D2 22 12                   jp nc,L1222
074F 4F                         ld c,a
0750 80                         add a,b
0751 DA 22 12                   jp c,L1222
0754 FE 41                      cp $41
0756 D2 22 12                   jp nc,L1222
0759 C5                         push bc
075A ED 8A 07 69                push $0769
075E ED 8A 00 7B                push $007B
0762 ED 8A 38 1B                push $381B
0766 C3 7B 00                   jp L007B
0769 60                         ld h,b
076A 69                         ld l,c
076B C1                         pop bc
076C 18 08                      jr L0776
076E CD 49 01      L076E:       call L0149
0771 01 00 40                   ld bc,$4000
0774 61                         ld h,c
0775 69                         ld l,c
0776 C5            L0776:       push bc
0777 E5                         push hl
0778 ED 8A 07 87                push $0787
077C ED 8A 00 7B                push $007B
0780 ED 8A 38 23                push $3823
0784 C3 7B 00                   jp L007B
0787 E1                         pop hl
0788 C1                         pop bc
0789 ED 8A 07 98                push $0798
078D ED 8A 00 7B                push $007B
0791 ED 8A 33 08                push $3308
0795 C3 7B 00                   jp L007B
0798 CD EC 00                   call L00EC
079B CB FC                      set 7,h
079D CB F4                      set 6,h
079F ED 92 57                   nextreg $57,a
07A2 3D                         dec a
07A3 ED 92 56                   nextreg $56,a
07A6 C5                         push bc
07A7 E5                         push hl
07A8 0E 00                      ld c,$00
07AA 0B                         dec bc
07AB 09                         add hl,bc
07AC E1                         pop hl
07AD C1                         pop bc
07AE DA 33 12                   jp c,L1233
07B1 79                         ld a,c
07B2 C5                         push bc
07B3 CD 86 0A                   call L0A86
07B6 C1                         pop bc
07B7 C5            L07B7:       push bc
07B8 01 5B 00                   ld bc,$005B
07BB ED B3                      otir
07BD C1                         pop bc
07BE 10 F7                      djnz L07B7
07C0 ED 91 51 FF                nextreg $51,$FF
07C4 CD E8 00                   call L00E8
07C7 C9                         ret
07C8 01 57 00      L07C8:       ld bc,$0057
07CB 7E                         ld a,(hl)
07CC 23                         inc hl
07CD ED 79                      out (c),a
07CF 7E                         ld a,(hl)
07D0 23                         inc hl
07D1 ED 79                      out (c),a
07D3 7E                         ld a,(hl)
07D4 23                         inc hl
07D5 5E                         ld e,(hl)
07D6 23                         inc hl
07D7 56                         ld d,(hl)
07D8 CB 73                      bit 6,e
07DA 28 08                      jr z,L07E4
07DC E6 FE                      and $FE
07DE CB 7A                      bit 7,d
07E0 28 02                      jr z,L07E4
07E2 F6 01                      or $01
07E4 ED 79         L07E4:       out (c),a
07E6 7B                         ld a,e
07E7 F6 40                      or $40
07E9 ED 79                      out (c),a
07EB 7A                         ld a,d
07EC CB 73                      bit 6,e
07EE 28 0C                      jr z,L07FC
07F0 E6 1E                      and $1E
07F2 F6 40                      or $40
07F4 CB 12                      rl d
07F6 CB 12                      rl d
07F8 CE 00                      adc a,$00
07FA 18 02                      jr L07FE
07FC E6 3E         L07FC:       and $3E
07FE ED 79         L07FE:       out (c),a
0800 C9                         ret
0801 00                         nop
0802 07                         rlca
0803 01 09 00                   ld bc,$0009
0806 08                         ex af,af'
0807 10 06                      djnz L080F
0809 30 08                      jr nc,L0813
080B FF                         rst $38
080C 03                         inc bc
080D FE 02                      cp $02
080F 43            L080F:       ld b,e
0810 02                         ld (bc),a
0811 41                         ld b,c
0812 40                         ld b,b
0813 07            L0813:       rlca
0814 01 87 00                   ld bc,$0087
0817 87                         add a,a
0818 10 06                      djnz L0820
081A 30 08                      jr nc,L0824
081C FF                         rst $38
081D 03                         inc bc
081E FE 02                      cp $02
0820 43            L0820:       ld b,e
0821 02                         ld (bc),a
0822 41                         ld b,c
0823 80                         add a,b
0824 07            L0824:       rlca
0825 01 09 60                   ld bc,$6009
0828 09                         add hl,bc
0829 70                         ld (hl),b
082A 87                         add a,a
082B A0                         and b
082C 08                         ex af,af'
082D B0                         or b
082E 08                         ex af,af'
082F C0                         ret nz
0830 87                         add a,a
0831 D0                         ret nc
0832 06 81                      ld b,$81
0834 06 91                      ld b,$91
0836 08                         ex af,af'
0837 FD 08                      ex af,af'
0839 E0                         ret po
083A 08                         ex af,af'
083B F0                         ret p
083C F5            L083C:       push af
083D 21 9A 5C                   ld hl,$5C9A
0840 ED 31                      add hl,a
0842 ED 31                      add hl,a
0844 F5            L0844:       push af
0845 79                         ld a,c
0846 1F                         rra
0847 CB 18                      rr b
0849 CB 19                      rr c
084B C5                         push bc
084C D5                         push de
084D E5                         push hl
084E 30 0F                      jr nc,L085F
0850 ED 8A 08 5F                push $085F
0854 ED 8A 00 7B                push $007B
0858 ED 8A 37 EF                push $37EF
085C C3 7B 00                   jp L007B
085F E1            L085F:       pop hl
0860 D1                         pop de
0861 DA DC 08                   jp c,L08DC
0864 28 01                      jr z,L0867
0866 37                         scf
0867 CB 1A         L0867:       rr d
0869 CB 1B                      rr e
086B 2B                         dec hl
086C 70                         ld (hl),b
086D 2B                         dec hl
086E 71                         ld (hl),c
086F C1                         pop bc
0870 F1                         pop af
0871 3D                         dec a
0872 20 D0                      jr nz,L0844
0874 F1                         pop af
0875 C9                         ret
0876 D9            L0876:       exx
0877 3A 9A 5C                   ld a,($5C9A)
087A CD 86 0A                   call L0A86
087D 62                         ld h,d
087E 6B                         ld l,e
087F 13                         inc de
0880 13                         inc de
0881 13                         inc de
0882 1A                         ld a,(de)
0883 CB B7                      res 6,a
0885 D9                         exx
0886 B6                         or (hl)
0887 CB 7E                      bit 7,(hl)
0889 23                         inc hl
088A 20 03                      jr nz,L088F
088C D9                         exx
088D 12                         ld (de),a
088E D9                         exx
088F AF            L088F:       xor a
0890 08                         ex af,af'
0891 CB 21         L0891:       sla c
0893 CB 10                      rl b
0895 C5                         push bc
0896 E5                         push hl
0897 21 9A 5C                   ld hl,$5C9A
089A 08                         ex af,af'
089B ED 31                      add hl,a
089D 3C                         inc a
089E 3C                         inc a
089F 08                         ex af,af'
08A0 4E                         ld c,(hl)
08A1 23                         inc hl
08A2 46                         ld b,(hl)
08A3 E1                         pop hl
08A4 DC B4 08                   call c,L08B4
08A7 23                         inc hl
08A8 23                         inc hl
08A9 CB 23                      sla e
08AB CB 12                      rl d
08AD C1                         pop bc
08AE 78                         ld a,b
08AF B1                         or c
08B0 20 DF                      jr nz,L0891
08B2 D9                         exx
08B3 C9                         ret
08B4 7E            L08B4:       ld a,(hl)
08B5 E6 3F                      and $3F
08B7 C5                         push bc
08B8 D9                         exx
08B9 11 FF FF                   ld de,$FFFF
08BC 47                         ld b,a
08BD ED 28                      bsla de,b
08BF C1                         pop bc
08C0 78                         ld a,b
08C1 A2                         and d
08C2 20 18                      jr nz,L08DC
08C4 79                         ld a,c
08C5 A3                         and e
08C6 28 0B                      jr z,L08D3
08C8 79                         ld a,c
08C9 FE 80                      cp $80
08CB 20 0F                      jr nz,L08DC
08CD D9                         exx
08CE CB 7A                      bit 7,d
08D0 D9                         exx
08D1 28 09                      jr z,L08DC
08D3 D9            L08D3:       exx
08D4 CB 7E                      bit 7,(hl)
08D6 20 18                      jr nz,L08F0
08D8 CB 7A                      bit 7,d
08DA 28 21                      jr z,L08FD
08DC CD 4B 09      L08DC:       call L094B
08DF 3E 0A                      ld a,$0A
08E1 ED 8A 08 F0                push $08F0
08E5 ED 8A 00 7B                push $007B
08E9 ED 8A 0D A5                push $0DA5
08ED C3 7B 00                   jp L007B
08F0 CB 7A         L08F0:       bit 7,d
08F2 D9                         exx
08F3 28 04                      jr z,L08F9
08F5 79                         ld a,c
08F6 ED 44                      neg
08F8 4F                         ld c,a
08F9 EB            L08F9:       ex de,hl
08FA 29                         add hl,hl
08FB EB                         ex de,hl
08FC D9                         exx
08FD 23            L08FD:       inc hl
08FE 7E                         ld a,(hl)
08FF 2B                         dec hl
0900 FE 01                      cp $01
0902 C8                         ret z
0903 D9                         exx
0904 E5                         push hl
0905 FE FD                      cp $FD
0907 30 4B                      jr nc,L0954
0909 F5                         push af
090A ED 23                      swapnib
090C E6 0F                      and $0F
090E ED 31                      add hl,a
0910 F1                         pop af
0911 E6 0F                      and $0F
0913 28 07                      jr z,L091C
0915 CB 03         L0915:       rlc e
0917 CB 01                      rlc c
0919 3D                         dec a
091A 20 F9                      jr nz,L0915
091C 7E            L091C:       ld a,(hl)
091D A3                         and e
091E B1                         or c
091F 77                         ld (hl),a
0920 14                         inc d
0921 28 0E                      jr z,L0931
0923 23                         inc hl
0924 23                         inc hl
0925 7E                         ld a,(hl)
0926 E6 FE                      and $FE
0928 B0                         or b
0929 77                         ld (hl),a
092A 21 3F 01                   ld hl,$013F
092D ED 42                      sbc hl,bc
092F 38 AB                      jr c,L08DC
0931 E1            L0931:       pop hl
0932 D9                         exx
0933 C9                         ret
0934 FD CB 01 7E                bit 7,(iy+$01)
0938 C8                         ret z
0939 4F                         ld c,a
093A 7D                         ld a,l
093B B1                         or c
093C B4                         or h
093D E6 80                      and $80
093F 20 9B         L093F:       jr nz,L08DC
0941 7C                         ld a,h
0942 91                         sub c
0943 38 97                      jr c,L08DC
0945 47                         ld b,a
0946 04                         inc b
0947 7D                         ld a,l
0948 CD 1F 0A                   call L0A1F
094B ED 91 51 FF   L094B:       nextreg $51,$FF
094F FD 21 3A 5C                ld iy,$5C3A
0953 C9                         ret
0954 23            L0954:       inc hl
0955 23                         inc hl
0956 3C                         inc a
0957 20 12                      jr nz,L096B
0959 7E                         ld a,(hl)
095A E6 01                      and $01
095C 47                         ld b,a
095D 79                         ld a,c
095E E6 FE                      and $FE
0960 B0                         or b
0961 77                         ld (hl),a
0962 23                         inc hl
0963 CB 16                      rl (hl)
0965 CB 19                      rr c
0967 CB 1E                      rr (hl)
0969 18 C6                      jr L0931
096B 23            L096B:       inc hl
096C 23                         inc hl
096D 3C                         inc a
096E 20 0C                      jr nz,L097C
0970 7E                         ld a,(hl)
0971 E6 1F                      and $1F
0973 47                         ld b,a
0974 79                         ld a,c
0975 87                         add a,a
0976 ED 23                      swapnib
0978 B0                         or b
0979 77                         ld (hl),a
097A 18 B5                      jr L0931
097C CB 86         L097C:       res 0,(hl)
097E CB 79                      bit 7,c
0980 28 02                      jr z,L0984
0982 CB C6                      set 0,(hl)
0984 23            L0984:       inc hl
0985 7E                         ld a,(hl)
0986 E6 C0                      and $C0
0988 47                         ld b,a
0989 79                         ld a,c
098A E6 3F                      and $3F
098C B0                         or b
098D 77                         ld (hl),a
098E 23                         inc hl
098F 23                         inc hl
0990 23                         inc hl
0991 CB BE                      res 7,(hl)
0993 CB 71                      bit 6,c
0995 28 9A                      jr z,L0931
0997 CB FE                      set 7,(hl)
0999 18 96                      jr L0931
099B FD CB 01 7E                bit 7,(iy+$01)
099F C8                         ret z
09A0 4D                         ld c,l
09A1 CB 7B                      bit 7,e
09A3 20 9A         L09A3:       jr nz,L093F
09A5 D5                         push de
09A6 7B                         ld a,e
09A7 CD D0 0A                   call L0AD0
09AA D1                         pop de
09AB 79                         ld a,c
09AC FE E8                      cp $E8
09AE 28 16                      jr z,L09C6
09B0 FE AC                      cp $AC
09B2 28 28                      jr z,L09DC
09B4 DD CB 03 7E                bit 7,(ix+$03)
09B8 28 04                      jr z,L09BE
09BA FD CB 03 7E                bit 7,(iy+$03)
09BE 11 01 00      L09BE:       ld de,$0001
09C1 20 88                      jr nz,L094B
09C3 1B                         dec de
09C4 18 85         L09C4:       jr L094B
09C6 7B            L09C6:       ld a,e
09C7 37                         scf
09C8 CD 5C 0C                   call L0C5C
09CB A6                         and (hl)
09CC 28 F0                      jr z,L09BE
09CE FD 7E 05                   ld a,(iy+$05)
09D1 07                         rlca
09D2 07                         rlca
09D3 37                         scf
09D4 17                         rla
09D5 E6 07                      and $07
09D7 5F                         ld e,a
09D8 16 00                      ld d,$00
09DA 18 E8                      jr L09C4
09DC D5            L09DC:       push de
09DD CD E5 0A                   call L0AE5
09E0 C1                         pop bc
09E1 28 DB                      jr z,L09BE
09E3 EB                         ex de,hl
09E4 04                         inc b
09E5 05                         dec b
09E6 28 DC                      jr z,L09C4
09E8 EB                         ex de,hl
09E9 05                         dec b
09EA 28 D8                      jr z,L09C4
09EC 10 17                      djnz L0A05
09EE FD 7E 03                   ld a,(iy+$03)
09F1 CB 77                      bit 6,a
09F3 28 09                      jr z,L09FE
09F5 FD CB 04 76                bit 6,(iy+$04)
09F9 28 03                      jr z,L09FE
09FB DD 86 03                   add a,(ix+$03)
09FE E6 3F         L09FE:       and $3F
0A00 5F                         ld e,a
0A01 16 00                      ld d,$00
0A03 18 BF                      jr L09C4
0A05 FD 7E 0A      L0A05:       ld a,(iy+$0A)
0A08 05                         dec b
0A09 28 05                      jr z,L0A10
0A0B FD 7E 0D                   ld a,(iy+$0D)
0A0E 10 06                      djnz L0A16
0A10 5F            L0A10:       ld e,a
0A11 87                         add a,a
0A12 9F                         sbc a,a
0A13 57                         ld d,a
0A14 18 AE                      jr L09C4
0A16 10 8B         L0A16:       djnz L09A3
0A18 FD 5E 0F                   ld e,(iy+$0F)
0A1B 16 00                      ld d,$00
0A1D 18 A5                      jr L09C4
0A1F D9            L0A1F:       exx
0A20 CD D0 0A                   call L0AD0
0A23 CD E5 0A                   call L0AE5
0A26 28 5C                      jr z,L0A84
0A28 D9                         exx
0A29 7A                         ld a,d
0A2A D9                         exx
0A2B ED 31                      add hl,a
0A2D 87                         add a,a
0A2E 90                         sub b
0A2F D2 DC 08      L0A2F:       jp nc,L08DC
0A32 ED 44                      neg
0A34 47                         ld b,a
0A35 D9                         exx
0A36 7B                         ld a,e
0A37 D9                         exx
0A38 ED 32                      add de,a
0A3A 87                         add a,a
0A3B 91                         sub c
0A3C 30 F1                      jr nc,L0A2F
0A3E ED 44                      neg
0A40 4F                         ld c,a
0A41 D9                         exx
0A42 79                         ld a,c
0A43 CD D0 0A                   call L0AD0
0A46 C5            L0A46:       push bc
0A47 CD E5 0A                   call L0AE5
0A4A 28 19                      jr z,L0A65
0A4C CD A4 0A                   call L0AA4
0A4F 38 14                      jr c,L0A65
0A51 CD C5 0A                   call L0AC5
0A54 CD A4 0A                   call L0AA4
0A57 F5                         push af
0A58 CD C5 0A                   call L0AC5
0A5B F1                         pop af
0A5C 38 07                      jr c,L0A65
0A5E C1                         pop bc
0A5F 79                         ld a,c
0A60 A7                         and a
0A61 C0                         ret nz
0A62 3E 80                      ld a,$80
0A64 C9                         ret
0A65 FD CB 03 76   L0A65:       bit 6,(iy+$03)
0A69 20 04                      jr nz,L0A6F
0A6B FD E5                      push iy
0A6D DD E1                      pop ix
0A6F 01 10 00      L0A6F:       ld bc,$0010
0A72 FD 09                      add iy,bc
0A74 C1                         pop bc
0A75 0C                         inc c
0A76 10 CE                      djnz L0A46
0A78 79                         ld a,c
0A79 D6 80                      sub $80
0A7B C8                         ret z
0A7C 06 01                      ld b,$01
0A7E FD CB 03 76                bit 6,(iy+$03)
0A82 20 C2                      jr nz,L0A46
0A84 AF            L0A84:       xor a
0A85 C9                         ret
0A86 01 3B 30      L0A86:       ld bc,$303B
0A89 ED 79                      out (c),a
0A8B ED 91 51 10   L0A8B:       nextreg $51,$10
0A8F 57            L0A8F:       ld d,a
0A90 1E 10                      ld e,$10
0A92 ED 30                      mul d,e
0A94 ED 35 DF 24                add de,$24DF
0A98 C9                         ret
0A99 3E 14         L0A99:       ld a,$14
0A9B 01 3B 24      L0A9B:       ld bc,$243B
0A9E ED 79                      out (c),a
0AA0 04                         inc b
0AA1 ED 78                      in a,(c)
0AA3 C9                         ret
0AA4 D5            L0AA4:       push de
0AA5 D9                         exx
0AA6 E3                         ex (sp),hl
0AA7 A7                         and a
0AA8 ED 52                      sbc hl,de
0AAA E1                         pop hl
0AAB 30 01                      jr nc,L0AAE
0AAD D9                         exx
0AAE 08            L0AAE:       ex af,af'
0AAF D5                         push de
0AB0 C5                         push bc
0AB1 EB                         ex de,hl
0AB2 06 00                      ld b,$00
0AB4 09                         add hl,bc
0AB5 2B                         dec hl
0AB6 C1                         pop bc
0AB7 E3                         ex (sp),hl
0AB8 EB                         ex de,hl
0AB9 D9                         exx
0ABA E3                         ex (sp),hl
0ABB A7                         and a
0ABC ED 52                      sbc hl,de
0ABE E1                         pop hl
0ABF 08                         ex af,af'
0AC0 30 01                      jr nc,L0AC3
0AC2 D9                         exx
0AC3 08            L0AC3:       ex af,af'
0AC4 C9                         ret
0AC5 EB            L0AC5:       ex de,hl
0AC6 78                         ld a,b
0AC7 41                         ld b,c
0AC8 4F                         ld c,a
0AC9 D9                         exx
0ACA EB                         ex de,hl
0ACB 78                         ld a,b
0ACC 41                         ld b,c
0ACD 4F                         ld c,a
0ACE D9                         exx
0ACF C9                         ret
0AD0 CD 8B 0A      L0AD0:       call L0A8B
0AD3 D5                         push de
0AD4 D5                         push de
0AD5 FD E1                      pop iy
0AD7 DD E1                      pop ix
0AD9 11 F0 FF                   ld de,$FFF0
0ADC DD CB 03 76   L0ADC:       bit 6,(ix+$03)
0AE0 C8                         ret z
0AE1 DD 19                      add ix,de
0AE3 18 F7                      jr L0ADC
0AE5 FD CB 03 7E   L0AE5:       bit 7,(iy+$03)
0AE9 C8                         ret z
0AEA FD CB 03 76                bit 6,(iy+$03)
0AEE 20 2E                      jr nz,L0B1E
0AF0 FD 6E 00                   ld l,(iy)
0AF3 FD 7E 02                   ld a,(iy+$02)
0AF6 E6 01                      and $01
0AF8 67                         ld h,a
0AF9 FD 5E 01                   ld e,(iy+$01)
0AFC 16 00                      ld d,$00
0AFE FD 7E 04                   ld a,(iy+$04)
0B01 1F                         rra
0B02 F5            L0B02:       push af
0B03 E6 03                      and $03
0B05 0E 10                      ld c,$10
0B07 28 05                      jr z,L0B0E
0B09 CB 21         L0B09:       sla c
0B0B 3D                         dec a
0B0C 20 FB                      jr nz,L0B09
0B0E F1            L0B0E:       pop af
0B0F 1F                         rra
0B10 1F                         rra
0B11 E6 03                      and $03
0B13 06 10                      ld b,$10
0B15 28 05                      jr z,L0B1C
0B17 CB 20         L0B17:       sla b
0B19 3D                         dec a
0B1A 20 FB                      jr nz,L0B17
0B1C 3C            L0B1C:       inc a
0B1D C9                         ret
0B1E DD CB 03 7E   L0B1E:       bit 7,(ix+$03)
0B22 C8                         ret z
0B23 DD 6E 00                   ld l,(ix)
0B26 DD 7E 02                   ld a,(ix+$02)
0B29 E6 01                      and $01
0B2B 67                         ld h,a
0B2C DD 5E 01                   ld e,(ix+$01)
0B2F 16 00                      ld d,$00
0B31 FD 7E 04                   ld a,(iy+$04)
0B34 1F                         rra
0B35 E6 0F                      and $0F
0B37 ED 23                      swapnib
0B39 FD 4E 00                   ld c,(iy)
0B3C FD 46 01                   ld b,(iy+$01)
0B3F DD CB 04 6E                bit 5,(ix+$04)
0B43 28 31                      jr z,L0B76
0B45 DD CB 02 4E                bit 1,(ix+$02)
0B49 28 0B                      jr z,L0B56
0B4B 78                         ld a,b
0B4C 41                         ld b,c
0B4D 4F                         ld c,a
0B4E DD CB 02 5E                bit 3,(ix+$02)
0B52 28 08                      jr z,L0B5C
0B54 18 0A                      jr L0B60
0B56 DD CB 02 5E   L0B56:       bit 3,(ix+$02)
0B5A 28 04                      jr z,L0B60
0B5C 79            L0B5C:       ld a,c
0B5D ED 44                      neg
0B5F 4F                         ld c,a
0B60 DD CB 02 56   L0B60:       bit 2,(ix+$02)
0B64 28 04                      jr z,L0B6A
0B66 78                         ld a,b
0B67 ED 44                      neg
0B69 47                         ld b,a
0B6A DD 7E 04      L0B6A:       ld a,(ix+$04)
0B6D 1F                         rra
0B6E E6 0F                      and $0F
0B70 C5                         push bc
0B71 47                         ld b,a
0B72 ED 23                      swapnib
0B74 B0                         or b
0B75 C1                         pop bc
0B76 C5            L0B76:       push bc
0B77 F5                         push af
0B78 78                         ld a,b
0B79 87                         add a,a
0B7A 9F                         sbc a,a
0B7B 48                         ld c,b
0B7C 47                         ld b,a
0B7D F1                         pop af
0B7E F5                         push af
0B7F E6 03                      and $03
0B81 28 07                      jr z,L0B8A
0B83 CB 21         L0B83:       sla c
0B85 CB 10                      rl b
0B87 3D                         dec a
0B88 20 F9                      jr nz,L0B83
0B8A EB            L0B8A:       ex de,hl
0B8B 09                         add hl,bc
0B8C EB                         ex de,hl
0B8D F1                         pop af
0B8E C1                         pop bc
0B8F F5                         push af
0B90 79                         ld a,c
0B91 87                         add a,a
0B92 9F                         sbc a,a
0B93 47                         ld b,a
0B94 F1                         pop af
0B95 1F                         rra
0B96 1F                         rra
0B97 F5                         push af
0B98 E6 03                      and $03
0B9A 28 07                      jr z,L0BA3
0B9C CB 21         L0B9C:       sla c
0B9E CB 10                      rl b
0BA0 3D                         dec a
0BA1 20 F9                      jr nz,L0B9C
0BA3 09            L0BA3:       add hl,bc
0BA4 F1                         pop af
0BA5 1F                         rra
0BA6 1F                         rra
0BA7 C3 02 0B                   jp L0B02
0BAA ED 8A 0B B9   L0BAA:       push $0BB9
0BAE ED 8A 00 7B                push $007B
0BB2 ED 8A 06 34                push $0634
0BB6 C3 7B 00                   jp L007B
0BB9 21 01 00                   ld hl,$0001
0BBC 54                         ld d,h
0BBD 5C                         ld e,h
0BBE ED 8A 0B CD                push $0BCD
0BC2 ED 8A 00 7B                push $007B
0BC6 ED 8A 0E 02                push $0E02
0BCA C3 7B 00                   jp L007B
0BCD ED 8A 0B DC                push $0BDC
0BD1 ED 8A 00 7B                push $007B
0BD5 ED 8A 0E 02                push $0E02
0BD9 C3 7B 00                   jp L007B
0BDC 06 06                      ld b,$06
0BDE ED 28                      bsla de,b
0BE0 D5                         push de
0BE1 ED 8A 0B F0                push $0BF0
0BE5 ED 8A 00 7B                push $007B
0BE9 ED 8A 0E 35                push $0E35
0BED C3 7B 00                   jp L007B
0BF0 06 03                      ld b,$03
0BF2 C5            L0BF2:       push bc
0BF3 E5                         push hl
0BF4 CD 41 0C                   call L0C41
0BF7 E1                         pop hl
0BF8 06 01                      ld b,$01
0BFA ED 8A 0C 09                push $0C09
0BFE ED 8A 00 7B                push $007B
0C02 ED 8A 0E 6E                push $0E6E
0C06 C3 7B 00                   jp L007B
0C09 C1                         pop bc
0C0A 10 E6                      djnz L0BF2
0C0C D1                         pop de
0C0D CD 49 01                   call L0149
0C10 D5                         push de
0C11 E5                         push hl
0C12 3E 0C                      ld a,$0C
0C14 44                         ld b,h
0C15 4D                         ld c,l
0C16 CD 3C 08                   call L083C
0C19 21 23 08                   ld hl,$0823
0C1C CD 76 08                   call L0876
0C1F E5                         push hl
0C20 DD E1                      pop ix
0C22 E1                         pop hl
0C23 CB 5D                      bit 3,l
0C25 28 04                      jr z,L0C2B
0C27 DD CB 09 BE                res 7,(ix+$09)
0C2B D1            L0C2B:       pop de
0C2C 7B                         ld a,e
0C2D A2                         and d
0C2E 5F                         ld e,a
0C2F 7A                         ld a,d
0C30 2F                         cpl
0C31 DD A6 05                   and (ix+$05)
0C34 B3                         or e
0C35 DD 77 05                   ld (ix+$05),a
0C38 37                         scf
0C39 CD 6C 0C      L0C39:       call L0C6C
0C3C ED 91 51 FF                nextreg $51,$FF
0C40 C9                         ret
0C41 EF            L0C41:       rst $28
0C42 FE 2C                      cp $2C
0C44 37                         scf
0C45 3F                         ccf
0C46 C0                         ret nz
0C47 F7                         rst $30
0C48 FE 2C                      cp $2C
0C4A C8                         ret z
0C4B ED 8A 0C 5A                push $0C5A
0C4F ED 8A 00 7B                push $007B
0C53 ED 8A 06 35                push $0635
0C57 C3 7B 00                   jp L007B
0C5A 37                         scf
0C5B C9                         ret
0C5C 21 DF 2C      L0C5C:       ld hl,$2CDF
0C5F 30 01                      jr nc,L0C62
0C61 23                         inc hl
0C62 5F            L0C62:       ld e,a
0C63 1F                         rra
0C64 1F                         rra
0C65 E6 1E                      and $1E
0C67 ED 31                      add hl,a
0C69 ED 95                      setae
0C6B C9                         ret
0C6C 3A 9A 5C      L0C6C:       ld a,($5C9A)
0C6F CD 5C 0C      L0C6F:       call L0C5C
0C72 B6                         or (hl)
0C73 77                         ld (hl),a
0C74 C9                         ret
0C75 CD AF 0C                   call L0CAF
0C78 C5            L0C78:       push bc
0C79 79                         ld a,c
0C7A 37                         scf
0C7B CD 6F 0C                   call L0C6F
0C7E C1                         pop bc
0C7F 0C                         inc c
0C80 78                         ld a,b
0C81 B9                         cp c
0C82 30 F4                      jr nc,L0C78
0C84 ED 91 51 FF                nextreg $51,$FF
0C88 C9                         ret
0C89 ED 8A 0C 98   L0C89:       push $0C98
0C8D ED 8A 00 7B                push $007B
0C91 ED 8A 06 34                push $0634
0C95 C3 7B 00                   jp L007B
0C98 CD AF 0C                   call L0CAF
0C9B C5            L0C9B:       push bc
0C9C 79                         ld a,c
0C9D 37                         scf
0C9E CD 5C 0C                   call L0C5C
0CA1 2F                         cpl
0CA2 A6                         and (hl)
0CA3 77                         ld (hl),a
0CA4 C1                         pop bc
0CA5 0C                         inc c
0CA6 78                         ld a,b
0CA7 B9                         cp c
0CA8 30 F1                      jr nc,L0C9B
0CAA ED 91 51 FF                nextreg $51,$FF
0CAE C9                         ret
0CAF FE CC         L0CAF:       cp $CC
0CB1 28 18                      jr z,L0CCB
0CB3 D1                         pop de
0CB4 CD 49 01                   call L0149
0CB7 D5                         push de
0CB8 ED 8A 0C C7                push $0CC7
0CBC ED 8A 00 7B                push $007B
0CC0 ED 8A 38 23                push $3823
0CC4 C3 7B 00                   jp L007B
0CC7 47                         ld b,a
0CC8 4F                         ld c,a
0CC9 18 36                      jr L0D01
0CCB ED 8A 0C DA   L0CCB:       push $0CDA
0CCF ED 8A 00 7B                push $007B
0CD3 ED 8A 06 34                push $0634
0CD7 C3 7B 00                   jp L007B
0CDA D1                         pop de
0CDB CD 49 01                   call L0149
0CDE D5                         push de
0CDF ED 8A 0C EE                push $0CEE
0CE3 ED 8A 00 7B                push $007B
0CE7 ED 8A 38 23                push $3823
0CEB C3 7B 00                   jp L007B
0CEE 47                         ld b,a
0CEF C5                         push bc
0CF0 ED 8A 0C FF                push $0CFF
0CF4 ED 8A 00 7B                push $007B
0CF8 ED 8A 38 23                push $3823
0CFC C3 7B 00                   jp L007B
0CFF C1                         pop bc
0D00 4F                         ld c,a
0D01 78            L0D01:       ld a,b
0D02 B1                         or c
0D03 E6 80                      and $80
0D05 C2 DC 08                   jp nz,L08DC
0D08 78                         ld a,b
0D09 B9                         cp c
0D0A DA DC 08                   jp c,L08DC
0D0D ED 91 51 10                nextreg $51,$10
0D11 C9                         ret
0D12 F7            L0D12:       rst $30
0D13 FE BA                      cp $BA
0D15 20 5C                      jr nz,L0D73
0D17 F7                         rst $30
0D18 ED 8A 0D 27                push $0D27
0D1C ED 8A 00 7B                push $007B
0D20 ED 8A 08 E9                push $08E9
0D24 C3 7B 00                   jp L007B
0D27 28 49                      jr z,L0D72
0D29 ED 8A 0D 38                push $0D38
0D2D ED 8A 00 7B                push $007B
0D31 ED 8A 06 35                push $0635
0D35 C3 7B 00                   jp L007B
0D38 CD 49 01                   call L0149
0D3B ED 8A 0D 4A                push $0D4A
0D3F ED 8A 00 7B                push $007B
0D43 ED 8A 38 23                push $3823
0D47 C3 7B 00                   jp L007B
0D4A 2E 00                      ld l,$00
0D4C D6 20                      sub $20
0D4E 38 01                      jr c,L0D51
0D50 6F                         ld l,a
0D51 3E 07         L0D51:       ld a,$07
0D53 CD 9B 0A                   call L0A9B
0D56 67                         ld h,a
0D57 3E 03                      ld a,$03
0D59 ED 79                      out (c),a
0D5B 3E 1E         L0D5B:       ld a,$1E
0D5D CD 9B 0A                   call L0A9B
0D60 E6 01                      and $01
0D62 20 F7                      jr nz,L0D5B
0D64 3E 1F                      ld a,$1F
0D66 CD 9B 0A                   call L0A9B
0D69 BD                         cp l
0D6A 20 EF                      jr nz,L0D5B
0D6C 7C                         ld a,h
0D6D ED 92 07                   nextreg $07,a
0D70 18 01                      jr L0D73
0D72 76            L0D72:       halt
0D73 CD 49 01      L0D73:       call L0149
0D76 ED 91 51 10   L0D76:       nextreg $51,$10
0D7A 21 DE 2C                   ld hl,$2CDE
0D7D 06 FF                      ld b,$FF
0D7F 23            L0D7F:       inc hl
0D80 5E                         ld e,(hl)
0D81 36 00                      ld (hl),$00
0D83 23                         inc hl
0D84 56                         ld d,(hl)
0D85 7A                         ld a,d
0D86 B3                         or e
0D87 28 0D                      jr z,L0D96
0D89 5F                         ld e,a
0D8A 78                         ld a,b
0D8B 3C            L0D8B:       inc a
0D8C CB 22                      sla d
0D8E 38 13                      jr c,L0DA3
0D90 CB 23                      sla e
0D92 38 43                      jr c,L0DD7
0D94 20 F5         L0D94:       jr nz,L0D8B
0D96 78            L0D96:       ld a,b
0D97 C6 08                      add a,$08
0D99 47                         ld b,a
0D9A FE 7F                      cp $7F
0D9C 20 E1                      jr nz,L0D7F
0D9E ED 91 51 FF                nextreg $51,$FF
0DA2 C9                         ret
0DA3 D9            L0DA3:       exx
0DA4 CD 8F 0A                   call L0A8F
0DA7 D5                         push de
0DA8 DD E1                      pop ix
0DAA 08                         ex af,af'
0DAB CD E8 0D                   call L0DE8
0DAE DD CB 04 46                bit 0,(ix+$04)
0DB2 28 1F                      jr z,L0DD3
0DB4 DD 7E 0A                   ld a,(ix+$0A)
0DB7 17                         rla
0DB8 DD 7E 0D                   ld a,(ix+$0D)
0DBB 17                         rla
0DBC 1F                         rra
0DBD 1F                         rra
0DBE DD AE 05                   xor (ix+$05)
0DC1 07                         rlca
0DC2 07                         rlca
0DC3 E6 03                      and $03
0DC5 21 E4 0D                   ld hl,$0DE4
0DC8 ED 31                      add hl,a
0DCA DD 7E 02                   ld a,(ix+$02)
0DCD E6 F1                      and $F1
0DCF B6                         or (hl)
0DD0 DD 77 02                   ld (ix+$02),a
0DD3 08            L0DD3:       ex af,af'
0DD4 D9                         exx
0DD5 CB 23                      sla e
0DD7 D9            L0DD7:       exx
0DD8 CD 86 0A                   call L0A86
0DDB EB                         ex de,hl
0DDC 08                         ex af,af'
0DDD CD C8 07                   call L07C8
0DE0 08                         ex af,af'
0DE1 D9                         exx
0DE2 18 B0                      jr L0D94
0DE4 06 08                      ld b,$08
0DE6 00                         nop
0DE7 02                         ld (bc),a
0DE8 DD 7E 0F      L0DE8:       ld a,(ix+$0F)
0DEB A7                         and a
0DEC 28 04                      jr z,L0DF2
0DEE DD 35 0F                   dec (ix+$0F)
0DF1 C9                         ret
0DF2 DD 7E 0E      L0DF2:       ld a,(ix+$0E)
0DF5 DD 77 0F                   ld (ix+$0F),a
0DF8 DD 7E 03                   ld a,(ix+$03)
0DFB 47                         ld b,a
0DFC E6 C0                      and $C0
0DFE 4F                         ld c,a
0DFF 78                         ld a,b
0E00 E6 3F                      and $3F
0E02 DD 5E 08                   ld e,(ix+$08)
0E05 CB 7B                      bit 7,e
0E07 20 09                      jr nz,L0E12
0E09 57                         ld d,a
0E0A DD 7E 05                   ld a,(ix+$05)
0E0D E6 C0                      and $C0
0E0F 7A                         ld a,d
0E10 28 3E                      jr z,L0E50
0E12 CB BB         L0E12:       res 7,e
0E14 CB 3B                      srl e
0E16 DD 56 09                   ld d,(ix+$09)
0E19 42                         ld b,d
0E1A CB BA                      res 7,d
0E1C CB 3A                      srl d
0E1E CB 78                      bit 7,b
0E20 28 0E                      jr z,L0E30
0E22 3D                         dec a
0E23 FA 29 0E                   jp m,L0E29
0E26 BB                         cp e
0E27 30 23                      jr nc,L0E4C
0E29 7B            L0E29:       ld a,e
0E2A DD CB 09 BE                res 7,(ix+$09)
0E2E 18 0F                      jr L0E3F
0E30 BA            L0E30:       cp d
0E31 38 18                      jr c,L0E4B
0E33 DD CB 05 66                bit 4,(ix+$05)
0E37 7B                         ld a,e
0E38 28 05                      jr z,L0E3F
0E3A DD CB 09 FE                set 7,(ix+$09)
0E3E 7A                         ld a,d
0E3F 3D            L0E3F:       dec a
0E40 DD CB 05 6E                bit 5,(ix+$05)
0E44 28 05                      jr z,L0E4B
0E46 CD 24 0F                   call L0F24
0E49 CB B9                      res 7,c
0E4B 3C            L0E4B:       inc a
0E4C B1            L0E4C:       or c
0E4D DD 77 03                   ld (ix+$03),a
0E50 DD E5         L0E50:       push ix
0E52 E1                         pop hl
0E53 DD 4E 05                   ld c,(ix+$05)
0E56 C5                         push bc
0E57 23                         inc hl
0E58 7E                         ld a,(hl)
0E59 CB 71                      bit 6,c
0E5B 28 46                      jr z,L0EA3
0E5D DD 5E 0D                   ld e,(ix+$0D)
0E60 83                         add a,e
0E61 CB 7B                      bit 7,e
0E63 28 0C                      jr z,L0E71
0E65 DD 56 0B                   ld d,(ix+$0B)
0E68 30 05                      jr nc,L0E6F
0E6A BA                         cp d
0E6B 38 02                      jr c,L0E6F
0E6D 20 33                      jr nz,L0EA2
0E6F 18 08         L0E6F:       jr L0E79
0E71 DD 56 0C      L0E71:       ld d,(ix+$0C)
0E74 38 03                      jr c,L0E79
0E76 BA                         cp d
0E77 38 29                      jr c,L0EA2
0E79 7B            L0E79:       ld a,e
0E7A ED 44                      neg
0E7C DD 77 0D                   ld (ix+$0D),a
0E7F 79                         ld a,c
0E80 E6 04                      and $04
0E82 DD AE 02                   xor (ix+$02)
0E85 DD 77 02                   ld (ix+$02),a
0E88 79                         ld a,c
0E89 E6 03                      and $03
0E8B 28 14                      jr z,L0EA1
0E8D FE 03                      cp $03
0E8F 28 0D                      jr z,L0E9E
0E91 DD CB 05 B6                res 6,(ix+$05)
0E95 3D                         dec a
0E96 20 09                      jr nz,L0EA1
0E98 DD CB 05 FE                set 7,(ix+$05)
0E9C 18 03                      jr L0EA1
0E9E CD 24 0F      L0E9E:       call L0F24
0EA1 7A            L0EA1:       ld a,d
0EA2 77            L0EA2:       ld (hl),a
0EA3 2B            L0EA3:       dec hl
0EA4 C1                         pop bc
0EA5 CB 79                      bit 7,c
0EA7 C8                         ret z
0EA8 4E                         ld c,(hl)
0EA9 23                         inc hl
0EAA 23                         inc hl
0EAB 7E                         ld a,(hl)
0EAC E6 01                      and $01
0EAE 47                         ld b,a
0EAF ED 34 04 00                add hl,$0004
0EB3 5E                         ld e,(hl)
0EB4 23                         inc hl
0EB5 23                         inc hl
0EB6 7E                         ld a,(hl)
0EB7 E6 01                      and $01
0EB9 57                         ld d,a
0EBA 2B                         dec hl
0EBB 7E                         ld a,(hl)
0EBC 23                         inc hl
0EBD 23                         inc hl
0EBE 66                         ld h,(hl)
0EBF 6F                         ld l,a
0EC0 7C                         ld a,h
0EC1 E6 01                      and $01
0EC3 67                         ld h,a
0EC4 E5                         push hl
0EC5 DD 6E 0A                   ld l,(ix+$0A)
0EC8 7D                         ld a,l
0EC9 87                         add a,a
0ECA 9F                         sbc a,a
0ECB 67                         ld h,a
0ECC 09                         add hl,bc
0ECD 44                         ld b,h
0ECE 4D                         ld c,l
0ECF E1                         pop hl
0ED0 CB 7F                      bit 7,a
0ED2 28 0B                      jr z,L0EDF
0ED4 30 07                      jr nc,L0EDD
0ED6 EB                         ex de,hl
0ED7 A7                         and a
0ED8 ED 42                      sbc hl,bc
0EDA 38 3B                      jr c,L0F17
0EDC 09                         add hl,bc
0EDD 18 09         L0EDD:       jr L0EE8
0EDF 38 07         L0EDF:       jr c,L0EE8
0EE1 ED 42                      sbc hl,bc
0EE3 28 02                      jr z,L0EE7
0EE5 30 30                      jr nc,L0F17
0EE7 09            L0EE7:       add hl,bc
0EE8 DD 7E 0A      L0EE8:       ld a,(ix+$0A)
0EEB ED 44                      neg
0EED DD 77 0A                   ld (ix+$0A),a
0EF0 DD 4E 05                   ld c,(ix+$05)
0EF3 79                         ld a,c
0EF4 E6 08                      and $08
0EF6 DD AE 02                   xor (ix+$02)
0EF9 DD 77 02                   ld (ix+$02),a
0EFC 79                         ld a,c
0EFD E6 03                      and $03
0EFF 28 14                      jr z,L0F15
0F01 FE 03                      cp $03
0F03 28 0D                      jr z,L0F12
0F05 DD CB 05 BE                res 7,(ix+$05)
0F09 3D                         dec a
0F0A 20 09                      jr nz,L0F15
0F0C DD CB 05 F6                set 6,(ix+$05)
0F10 18 03                      jr L0F15
0F12 CD 24 0F      L0F12:       call L0F24
0F15 44            L0F15:       ld b,h
0F16 4D                         ld c,l
0F17 DD 71 00      L0F17:       ld (ix),c
0F1A DD 7E 02                   ld a,(ix+$02)
0F1D E6 FE                      and $FE
0F1F B0                         or b
0F20 DD 77 02                   ld (ix+$02),a
0F23 C9                         ret
0F24 DD CB 03 BE   L0F24:       res 7,(ix+$03)
0F28 08                         ex af,af'
0F29 F5                         push af
0F2A 5F                         ld e,a
0F2B ED 95                      setae
0F2D 2F                         cpl
0F2E D9                         exx
0F2F A6                         and (hl)
0F30 77                         ld (hl),a
0F31 D9                         exx
0F32 F1                         pop af
0F33 08                         ex af,af'
0F34 C9                         ret
0F35 FD 7E 45                   ld a,(iy+$45)
0F38 CB 4F                      bit 1,a
0F3A 28 01                      jr z,L0F3D
0F3C 0F                         rrca
0F3D CB 77         L0F3D:       bit 6,a
0F3F 3E 08                      ld a,$08
0F41 01 20 18                   ld bc,$1820
0F44 28 04                      jr z,L0F4A
0F46 87                         add a,a
0F47 01 10 0C                   ld bc,$0C10
0F4A 32 BE 5B      L0F4A:       ld ($5BBE),a
0F4D ED 43 BF 5B                ld ($5BBF),bc
0F51 EF                         rst $28
0F52 FE AC                      cp $AC
0F54 CA 71 11                   jp z,L1171
0F57 ED 8A 0F 66                push $0F66
0F5B ED 8A 00 7B                push $007B
0F5F ED 8A 08 E9                push $08E9
0F63 C3 7B 00                   jp L007B
0F66 CA 66 11                   jp z,L1166
0F69 ED 8A 0F 78                push $0F78
0F6D ED 8A 00 7B                push $007B
0F71 ED 8A 06 3C                push $063C
0F75 C3 7B 00                   jp L007B
0F78 21 66 5B                   ld hl,$5B66
0F7B CB BE                      res 7,(hl)
0F7D CB B6                      res 6,(hl)
0F7F FE AC                      cp $AC
0F81 20 14                      jr nz,L0F97
0F83 CB FE                      set 7,(hl)
0F85 ED 8A 0F 94                push $0F94
0F89 ED 8A 00 7B                push $007B
0F8D ED 8A 06 3B                push $063B
0F91 C3 7B 00                   jp L007B
0F94 21 66 5B                   ld hl,$5B66
0F97 FE CC         L0F97:       cp $CC
0F99 20 11                      jr nz,L0FAC
0F9B CB F6                      set 6,(hl)
0F9D ED 8A 0F AC                push $0FAC
0FA1 ED 8A 00 7B                push $007B
0FA5 ED 8A 06 3B                push $063B
0FA9 C3 7B 00                   jp L007B
0FAC CD B9 11      L0FAC:       call L11B9
0FAF 21 66 5B                   ld hl,$5B66
0FB2 CB 76                      bit 6,(hl)
0FB4 11 00 00                   ld de,$0000
0FB7 28 34                      jr z,L0FED
0FB9 ED 8A 0F C8                push $0FC8
0FBD ED 8A 00 7B                push $007B
0FC1 ED 8A 38 23                push $3823
0FC5 C3 7B 00                   jp L007B
0FC8 FD BE 86                   cp (iy-$7A)
0FCB D2 22 12                   jp nc,L1222
0FCE CD D3 11                   call L11D3
0FD1 57                         ld d,a
0FD2 D5                         push de
0FD3 ED 8A 0F E2                push $0FE2
0FD7 ED 8A 00 7B                push $007B
0FDB ED 8A 38 23                push $3823
0FDF C3 7B 00                   jp L007B
0FE2 D1                         pop de
0FE3 FD BE 85                   cp (iy-$7B)
0FE6 D2 22 12                   jp nc,L1222
0FE9 CD D3 11                   call L11D3
0FEC 5F                         ld e,a
0FED D5            L0FED:       push de
0FEE 21 66 5B                   ld hl,$5B66
0FF1 CB 7E                      bit 7,(hl)
0FF3 11 00 00                   ld de,$0000
0FF6 42                         ld b,d
0FF7 4B                         ld c,e
0FF8 28 20                      jr z,L101A
0FFA ED 8A 10 09                push $1009
0FFE ED 8A 00 7B                push $007B
1002 ED 8A 38 1B                push $381B
1006 C3 7B 00                   jp L007B
1009 C5                         push bc
100A ED 8A 10 19                push $1019
100E ED 8A 00 7B                push $007B
1012 ED 8A 38 1B                push $381B
1016 C3 7B 00                   jp L007B
1019 D1                         pop de
101A D5            L101A:       push de
101B C5                         push bc
101C ED 8A 10 2B                push $102B
1020 ED 8A 00 7B                push $007B
1024 ED 8A 38 23                push $3823
1028 C3 7B 00                   jp L007B
102B 67                         ld h,a
102C E5                         push hl
102D ED 8A 10 3C                push $103C
1031 ED 8A 00 7B                push $007B
1035 ED 8A 38 23                push $3823
1039 C3 7B 00                   jp L007B
103C E1                         pop hl
103D 6F                         ld l,a
103E DD E1         L103E:       pop ix
1040 C1                         pop bc
1041 D1                         pop de
1042 CD EC 00                   call L00EC
1045 E5                         push hl
1046 DD E5                      push ix
1048 C5                         push bc
1049 7C                         ld a,h
104A A7                         and a
104B CA 1F 12                   jp z,L121F
104E FD BE 86                   cp (iy-$7A)
1051 38 03                      jr c,L1056
1053 C2 1F 12                   jp nz,L121F
1056 CD D3 11      L1056:       call L11D3
1059 47                         ld b,a
105A 7D                         ld a,l
105B A7                         and a
105C CA 1F 12                   jp z,L121F
105F FD BE 85                   cp (iy-$7B)
1062 38 03                      jr c,L1067
1064 C2 1F 12                   jp nz,L121F
1067 CD D3 11      L1067:       call L11D3
106A 3D                         dec a
106B 4F                         ld c,a
106C CD D2 2C                   call L2CD2
106F 2A 73 5B                   ld hl,($5B73)
1072 CB 79                      bit 7,c
1074 28 03                      jr z,L1079
1076 2A 75 5B                   ld hl,($5B75)
1079 F3            L1079:       di
107A C5                         push bc
107B 22 BC 5B                   ld ($5BBC),hl
107E CD DD 11                   call L11DD
1081 E1                         pop hl
1082 C1                         pop bc
1083 DD E1                      pop ix
1085 E5                         push hl
1086 CB 7D                      bit 7,l
1088 D5                         push de
1089 ED 5B 7C 5B                ld de,($5B7C)
108D 2A 80 5B                   ld hl,($5B80)
1090 28 07                      jr z,L1099
1092 ED 5B 7E 5B                ld de,($5B7E)
1096 2A 82 5B                   ld hl,($5B82)
1099 18 02         L1099:       jr L109D
109B 19            L109B:       add hl,de
109C 0B                         dec bc
109D 78            L109D:       ld a,b
109E B1                         or c
109F 20 FA                      jr nz,L109B
10A1 DD E5                      push ix
10A3 C1                         pop bc
10A4 09                         add hl,bc
10A5 CB FC                      set 7,h
10A7 CB F4                      set 6,h
10A9 E5                         push hl
10AA DD E1                      pop ix
10AC CD 99 0A                   call L0A99
10AF 08                         ex af,af'
10B0 D1                         pop de
10B1 C1                         pop bc
10B2 E1                         pop hl
10B3 E5            L10B3:       push hl
10B4 DD E5                      push ix
10B6 D5                         push de
10B7 C5                         push bc
10B8 06 00                      ld b,$00
10BA 79                         ld a,c
10BB FD 96 84                   sub (iy-$7C)
10BE 3C                         inc a
10BF 4F                         ld c,a
10C0 E5            L10C0:       push hl
10C1 D5                         push de
10C2 DD 66 00                   ld h,(ix)
10C5 DD 23                      inc ix
10C7 FD CB 84 66                bit 4,(iy-$7C)
10CB 20 0D                      jr nz,L10DA
10CD 2E 00                      ld l,$00
10CF CB 3C                      srl h
10D1 CB 1D                      rr l
10D3 37                         scf
10D4 CB 1C                      rr h
10D6 CB 1D                      rr l
10D8 18 16                      jr L10F0
10DA 7C            L10DA:       ld a,h
10DB 07                         rlca
10DC 07                         rlca
10DD E6 03                      and $03
10DF CB FC                      set 7,h
10E1 CB B4                      res 6,h
10E3 FD 86 82                   add a,(iy-$7E)
10E6 87                         add a,a
10E7 ED 92 54                   nextreg $54,a
10EA 3C                         inc a
10EB ED 92 55                   nextreg $55,a
10EE 2E 00                      ld l,$00
10F0 FD 7E 84      L10F0:       ld a,(iy-$7C)
10F3 C5            L10F3:       push bc
10F4 08                         ex af,af'
10F5 FD CB 84 66                bit 4,(iy-$7C)
10F9 28 10                      jr z,L110B
10FB ED A4                      ldix
10FD ED A4                      ldix
10FF ED A4                      ldix
1101 ED A4                      ldix
1103 ED A4                      ldix
1105 ED A4                      ldix
1107 ED A4                      ldix
1109 ED A4                      ldix
110B ED A4         L110B:       ldix
110D ED A4                      ldix
110F ED A4                      ldix
1111 ED A4                      ldix
1113 ED A4                      ldix
1115 ED A4                      ldix
1117 ED A4                      ldix
1119 ED A4                      ldix
111B 08                         ex af,af'
111C C1                         pop bc
111D EB                         ex de,hl
111E 09                         add hl,bc
111F EB                         ex de,hl
1120 3D                         dec a
1121 20 D0                      jr nz,L10F3
1123 E1                         pop hl
1124 79                         ld a,c
1125 FD 4E 84                   ld c,(iy-$7C)
1128 09                         add hl,bc
1129 4F                         ld c,a
112A EB                         ex de,hl
112B E1                         pop hl
112C 2D                         dec l
112D 20 91                      jr nz,L10C0
112F C1                         pop bc
1130 D1                         pop de
1131 CB 79                      bit 7,c
1133 FD 7E 84                   ld a,(iy-$7C)
1136 28 0C                      jr z,L1144
1138 82                         add a,d
1139 57                         ld d,a
113A CB 72                      bit 6,d
113C C4 5E 2D                   call nz,L2D5E
113F 2A 7E 5B                   ld hl,($5B7E)
1142 18 0A                      jr L114E
1144 0F            L1144:       rrca
1145 82                         add a,d
1146 57                         ld d,a
1147 B8                         cp b
1148 D4 67 2D                   call nc,L2D67
114B 2A 7C 5B                   ld hl,($5B7C)
114E DD E1         L114E:       pop ix
1150 EB                         ex de,hl
1151 DD 19                      add ix,de
1153 EB                         ex de,hl
1154 E1                         pop hl
1155 25                         dec h
1156 C2 B3 10                   jp nz,L10B3
1159 CD 6E 2D                   call L2D6E
115C 21 02 00                   ld hl,$0002
115F CD DD 11                   call L11DD
1162 FB                         ei
1163 C3 95 14                   jp L1495
1166 CD B9 11      L1166:       call L11B9
1169 11 00 00                   ld de,$0000
116C D5                         push de
116D 42                         ld b,d
116E 4B                         ld c,e
116F 18 36                      jr L11A7
1171 ED 8A 11 80   L1171:       push $1180
1175 ED 8A 00 7B                push $007B
1179 ED 8A 06 3B                push $063B
117D C3 7B 00                   jp L007B
1180 CD B9 11                   call L11B9
1183 11 00 00                   ld de,$0000
1186 D5                         push de
1187 ED 8A 11 96                push $1196
118B ED 8A 00 7B                push $007B
118F ED 8A 38 1B                push $381B
1193 C3 7B 00                   jp L007B
1196 C5                         push bc
1197 ED 8A 11 A6                push $11A6
119B ED 8A 00 7B                push $007B
119F ED 8A 38 1B                push $381B
11A3 C3 7B 00                   jp L007B
11A6 D1                         pop de
11A7 D5            L11A7:       push de
11A8 C5                         push bc
11A9 2A BF 5B                   ld hl,($5BBF)
11AC FD CB 45 4E                bit 1,(iy+$45)
11B0 20 04                      jr nz,L11B6
11B2 CB 3C                      srl h
11B4 CB 3D                      srl l
11B6 C3 3E 10      L11B6:       jp L103E
11B9 E1            L11B9:       pop hl
11BA CD 49 01                   call L0149
11BD CD 78 2D                   call L2D78
11C0 E5                         push hl
11C1 D8                         ret c
11C2 3E 5E                      ld a,$5E
11C4 ED 8A 11 D3                push $11D3
11C8 ED 8A 00 7B                push $007B
11CC ED 8A 0D A5                push $0DA5
11D0 C3 7B 00                   jp L007B
11D3 87            L11D3:       add a,a
11D4 87                         add a,a
11D5 87                         add a,a
11D6 FD CB 84 66                bit 4,(iy-$7C)
11DA C8                         ret z
11DB 87                         add a,a
11DC C9                         ret
11DD 29            L11DD:       add hl,hl
11DE 7D                         ld a,l
11DF ED 92 54                   nextreg $54,a
11E2 3C                         inc a
11E3 ED 92 55                   nextreg $55,a
11E6 7C                         ld a,h
11E7 ED 92 56                   nextreg $56,a
11EA 3C                         inc a
11EB ED 92 57                   nextreg $57,a
11EE C9                         ret
11EF CD B9 11                   call L11B9
11F2 F5                         push af
11F3 ED 8A 12 02                push $1202
11F7 ED 8A 00 7B                push $007B
11FB ED 8A 38 23                push $3823
11FF C3 7B 00                   jp L007B
1202 5F                         ld e,a
1203 ED 8A 12 12                push $1212
1207 ED 8A 00 7B                push $007B
120B ED 8A 33 0F                push $330F
120F C3 7B 00                   jp L007B
1212 F1                         pop af
1213 3D                         dec a
1214 7B                         ld a,e
1215 28 04                      jr z,L121B
1217 32 75 5B                   ld ($5B75),a
121A C9                         ret
121B 32 73 5B      L121B:       ld ($5B73),a
121E C9                         ret
121F CD EC 00      L121F:       call L00EC
1222 3E 0A         L1222:       ld a,$0A
1224 ED 8A 12 33                push $1233
1228 ED 8A 00 7B                push $007B
122C ED 8A 0D A5                push $0DA5
1230 C3 7B 00                   jp L007B
1233 CD E8 00      L1233:       call L00E8
1236 18 EA                      jr L1222
1238 CD B9 11                   call L11B9
123B F5                         push af
123C ED 8A 12 4B                push $124B
1240 ED 8A 00 7B                push $007B
1244 ED 8A 38 23                push $3823
1248 C3 7B 00                   jp L007B
124B FE 08                      cp $08
124D 28 04                      jr z,L1253
124F FE 10                      cp $10
1251 20 CF                      jr nz,L1222
1253 FD 77 84      L1253:       ld (iy-$7C),a
1256 ED 8A 12 65                push $1265
125A ED 8A 00 7B                push $007B
125E ED 8A 38 1B                push $381B
1262 C3 7B 00                   jp L007B
1265 78                         ld a,b
1266 B1                         or c
1267 28 B9                      jr z,L1222
1269 0B                         dec bc
126A 78                         ld a,b
126B E6 F8                      and $F8
126D 20 B3                      jr nz,L1222
126F 03                         inc bc
1270 C5                         push bc
1271 ED 8A 12 80                push $1280
1275 ED 8A 00 7B                push $007B
1279 ED 8A 38 1B                push $381B
127D C3 7B 00                   jp L007B
1280 C5                         push bc
1281 ED 8A 12 90                push $1290
1285 ED 8A 00 7B                push $007B
1289 ED 8A 38 23                push $3823
128D C3 7B 00                   jp L007B
1290 E1                         pop hl
1291 C1                         pop bc
1292 57                         ld d,a
1293 ED 8A 12 A2                push $12A2
1297 ED 8A 00 7B                push $007B
129B ED 8A 33 08                push $3308
129F C3 7B 00                   jp L007B
12A2 F1                         pop af
12A3 3D                         dec a
12A4 7A                         ld a,d
12A5 28 18                      jr z,L12BF
12A7 ED 43 7E 5B                ld ($5B7E),bc
12AB 32 76 5B                   ld ($5B76),a
12AE 22 82 5B                   ld ($5B82),hl
12B1 FD CB 45 BE                res 7,(iy+$45)
12B5 FD CB 84 66                bit 4,(iy-$7C)
12B9 C8                         ret z
12BA FD CB 45 FE                set 7,(iy+$45)
12BE C9                         ret
12BF ED 43 7C 5B   L12BF:       ld ($5B7C),bc
12C3 32 74 5B                   ld ($5B74),a
12C6 22 80 5B                   ld ($5B80),hl
12C9 FD CB 45 B6                res 6,(iy+$45)
12CD FD CB 84 66                bit 4,(iy-$7C)
12D1 C8                         ret z
12D2 FD CB 45 F6                set 6,(iy+$45)
12D6 C9                         ret
12D7 ED 8A 12 E6                push $12E6
12DB ED 8A 00 7B                push $007B
12DF ED 8A 38 23                push $3823
12E3 C3 7B 00                   jp L007B
12E6 FE 08                      cp $08
12E8 30 71                      jr nc,L135B
12EA 07                         rlca
12EB 07                         rlca
12EC 16 E3                      ld d,$E3
12EE C3 DA 05                   jp L05DA
12F1 CD B9 11                   call L11B9
12F4 ED 8A 13 03                push $1303
12F8 ED 8A 00 7B                push $007B
12FC ED 8A 38 23                push $3823
1300 C3 7B 00                   jp L007B
1303 FE C0                      cp $C0
1305 30 54                      jr nc,L135B
1307 F5                         push af
1308 ED 8A 13 17                push $1317
130C ED 8A 00 7B                push $007B
1310 ED 8A 38 23                push $3823
1314 C3 7B 00                   jp L007B
1317 D1                         pop de
1318 5F                         ld e,a
1319 CD 78 2D                   call L2D78
131C 2E 32                      ld l,$32
131E 3D                         dec a
131F 28 02                      jr z,L1323
1321 2E 16                      ld l,$16
1323 ED 8A 13 32   L1323:       push $1332
1327 ED 8A 00 7B                push $007B
132B ED 8A 15 01                push $1501
132F C3 7B 00                   jp L007B
1332 C9                         ret
1333 ED 8A 13 42                push $1342
1337 ED 8A 00 7B                push $007B
133B ED 8A 38 23                push $3823
133F C3 7B 00                   jp L007B
1342 F5                         push af
1343 ED 8A 13 52                push $1352
1347 ED 8A 00 7B                push $007B
134B ED 8A 38 23                push $3823
134F C3 7B 00                   jp L007B
1352 D1                         pop de
1353 5F                         ld e,a
1354 D5                         push de
1355 3E 08                      ld a,$08
1357 BA                         cp d
1358 30 01                      jr nc,L135B
135A BB                         cp e
135B D2 99 14      L135B:       jp nc,L1499
135E 06 03                      ld b,$03
1360 7A            L1360:       ld a,d
1361 ED 8A 13 70                push $1370
1365 ED 8A 00 7B                push $007B
1369 ED 8A 33 0F                push $330F
136D C3 7B 00                   jp L007B
1370 7B                         ld a,e
1371 BA                         cp d
1372 28 0F                      jr z,L1383
1374 ED 8A 13 83                push $1383
1378 ED 8A 00 7B                push $007B
137C ED 8A 33 0F                push $330F
1380 C3 7B 00                   jp L007B
1383 14            L1383:       inc d
1384 1C                         inc e
1385 10 D9                      djnz L1360
1387 D1                         pop de
1388 2E 12                      ld l,$12
138A 18 97                      jr L1323
138C FD CB 45 4E                bit 1,(iy+$45)
1390 2E 18                      ld l,$18
1392 20 02                      jr nz,L1396
1394 2E 1A                      ld l,$1A
1396 E5            L1396:       push hl
1397 ED 8A 13 A6                push $13A6
139B ED 8A 00 7B                push $007B
139F ED 8A 38 23                push $3823
13A3 C3 7B 00                   jp L007B
13A6 FE C0                      cp $C0
13A8 D2 22 12                   jp nc,L1222
13AB 5F                         ld e,a
13AC D5                         push de
13AD ED 8A 13 BC                push $13BC
13B1 ED 8A 00 7B                push $007B
13B5 ED 8A 38 23                push $3823
13B9 C3 7B 00                   jp L007B
13BC D1                         pop de
13BD 57                         ld d,a
13BE D5                         push de
13BF ED 8A 13 CE                push $13CE
13C3 ED 8A 00 7B                push $007B
13C7 ED 8A 38 23                push $3823
13CB C3 7B 00                   jp L007B
13CE FE C0                      cp $C0
13D0 D2 22 12                   jp nc,L1222
13D3 4F                         ld c,a
13D4 C5                         push bc
13D5 ED 8A 13 E4                push $13E4
13D9 ED 8A 00 7B                push $007B
13DD ED 8A 38 23                push $3823
13E1 C3 7B 00                   jp L007B
13E4 C1                         pop bc
13E5 47                         ld b,a
13E6 D1                         pop de
13E7 E1                         pop hl
13E8 ED 8A 13 F7                push $13F7
13EC ED 8A 00 7B                push $007B
13F0 ED 8A 15 2D                push $152D
13F4 C3 7B 00                   jp L007B
13F7 C9                         ret
13F8 FE 2C                      cp $2C
13FA 20 23                      jr nz,L141F
13FC ED 8A 14 0B                push $140B
1400 ED 8A 00 7B                push $007B
1404 ED 8A 06 34                push $0634
1408 C3 7B 00                   jp L007B
140B CD B9 11                   call L11B9
140E ED 8A 14 1D                push $141D
1412 ED 8A 00 7B                push $007B
1416 ED 8A 38 23                push $3823
141A C3 7B 00                   jp L007B
141D 18 06                      jr L1425
141F CD B9 11      L141F:       call L11B9
1422 CD 99 0A                   call L0A99
1425 32 8A 5B      L1425:       ld ($5B8A),a
1428 ED 8A 14 37                push $1437
142C ED 8A 00 7B                push $007B
1430 ED 8A 38 23                push $3823
1434 C3 7B 00                   jp L007B
1437 57                         ld d,a
1438 D5                         push de
1439 ED 8A 14 48                push $1448
143D ED 8A 00 7B                push $007B
1441 ED 8A 38 1B                push $381B
1445 C3 7B 00                   jp L007B
1448 78                         ld a,b
1449 B1                         or c
144A 28 4D                      jr z,L1499
144C 0B                         dec bc
144D 78                         ld a,b
144E A7                         and a
144F 20 48                      jr nz,L1499
1451 D1                         pop de
1452 59                         ld e,c
1453 D5                         push de
1454 ED 8A 14 63                push $1463
1458 ED 8A 00 7B                push $007B
145C ED 8A 38 23                push $3823
1460 C3 7B 00                   jp L007B
1463 57                         ld d,a
1464 D5                         push de
1465 ED 8A 14 74                push $1474
1469 ED 8A 00 7B                push $007B
146D ED 8A 38 23                push $3823
1471 C3 7B 00                   jp L007B
1474 D1                         pop de
1475 5F                         ld e,a
1476 C1                         pop bc
1477 CD EC 00                   call L00EC
147A 60                         ld h,b
147B 69                         ld l,c
147C 2C                         inc l
147D CD D2 2C                   call L2CD2
1480 E5            L1480:       push hl
1481 D5                         push de
1482 3A 8A 5B                   ld a,($5B8A)
1485 12            L1485:       ld (de),a
1486 13                         inc de
1487 2D                         dec l
1488 20 FB                      jr nz,L1485
148A E1                         pop hl
148B CD 51 2D                   call L2D51
148E E1                         pop hl
148F 25                         dec h
1490 20 EE                      jr nz,L1480
1492 CD 6E 2D                   call L2D6E
1495 CD EC 00      L1495:       call L00EC
1498 C9                         ret
1499 3E 0A         L1499:       ld a,$0A
149B ED 8A 14 AA                push $14AA
149F ED 8A 00 7B                push $007B
14A3 ED 8A 0D A5                push $0DA5
14A7 C3 7B 00                   jp L007B
14AA ED 8A 14 B9                push $14B9
14AE ED 8A 00 7B                push $007B
14B2 ED 8A 38 23                push $3823
14B6 C3 7B 00                   jp L007B
14B9 ED 8A 14 C8                push $14C8
14BD ED 8A 00 7B                push $007B
14C1 ED 8A 15 C5                push $15C5
14C5 C3 7B 00                   jp L007B
14C8 C9                         ret
14C9 ED 8A 14 D8   L14C9:       push $14D8
14CD ED 8A 00 7B                push $007B
14D1 ED 8A 06 34                push $0634
14D5 C3 7B 00                   jp L007B
14D8 3E 28                      ld a,$28
14DA 18 0A                      jr L14E6
14DC 3E 14                      ld a,$14
14DE FD CB 45 4E                bit 1,(iy+$45)
14E2 20 02                      jr nz,L14E6
14E4 3E 02                      ld a,$02
14E6 32 8A 5B      L14E6:       ld ($5B8A),a
14E9 EF                         rst $28
14EA ED 8A 14 F9                push $14F9
14EE ED 8A 00 7B                push $007B
14F2 ED 8A 08 E9                push $08E9
14F6 C3 7B 00                   jp L007B
14F9 28 68                      jr z,L1563
14FB FE 9A                      cp $9A
14FD CA 8C 15                   jp z,L158C
1500 FE 2C                      cp $2C
1502 C2 D7 06                   jp nz,L06D7
1505 ED 8A 15 14                push $1514
1509 ED 8A 00 7B                push $007B
150D ED 8A 06 3B                push $063B
1511 C3 7B 00                   jp L007B
1514 CD 49 01                   call L0149
1517 ED 8A 15 26                push $1526
151B ED 8A 00 7B                push $007B
151F ED 8A 38 1B                push $381B
1523 C3 7B 00                   jp L007B
1526 78                         ld a,b
1527 E6 FE                      and $FE
1529 C2 22 12                   jp nz,L1222
152C C5                         push bc
152D ED 8A 15 3C                push $153C
1531 ED 8A 00 7B                push $007B
1535 ED 8A 38 23                push $3823
1539 C3 7B 00                   jp L007B
153C F5                         push af
153D ED 8A 15 4C                push $154C
1541 ED 8A 00 7B                push $007B
1545 ED 8A 38 23                push $3823
1549 C3 7B 00                   jp L007B
154C CD 21 16                   call L1621
154F F1                         pop af
1550 ED 92 40                   nextreg $40,a
1553 D1                         pop de
1554 CB 3A                      srl d
1556 CB 1B                      rr e
1558 CB 12                      rl d
155A 7B                         ld a,e
155B ED 92 44                   nextreg $44,a
155E 7A                         ld a,d
155F ED 92 44                   nextreg $44,a
1562 C9                         ret
1563 CD 49 01      L1563:       call L0149
1566 ED 8A 15 75                push $1575
156A ED 8A 00 7B                push $007B
156E ED 8A 38 23                push $3823
1572 C3 7B 00                   jp L007B
1575 FE 02                      cp $02
1577 D2 22 12                   jp nc,L1222
157A 6F                         ld l,a
157B 3A 8A 5B                   ld a,($5B8A)
157E E6 0E                      and $0E
1580 57                         ld d,a
1581 2F                         cpl
1582 5F                         ld e,a
1583 CB 45                      bit 0,l
1585 20 02                      jr nz,L1589
1587 16 00                      ld d,$00
1589 C3 32 16      L1589:       jp L1632
158C ED 8A 15 9B   L158C:       push $159B
1590 ED 8A 00 7B                push $007B
1594 ED 8A 06 3B                push $063B
1598 C3 7B 00                   jp L007B
159B CD 49 01                   call L0149
159E ED 8A 15 AD                push $15AD
15A2 ED 8A 00 7B                push $007B
15A6 ED 8A 38 1B                push $381B
15AA C3 7B 00                   jp L007B
15AD C5                         push bc
15AE ED 8A 15 BD                push $15BD
15B2 ED 8A 00 7B                push $007B
15B6 ED 8A 38 23                push $3823
15BA C3 7B 00                   jp L007B
15BD F5                         push af
15BE ED 8A 15 CD                push $15CD
15C2 ED 8A 00 7B                push $007B
15C6 ED 8A 38 23                push $3823
15CA C3 7B 00                   jp L007B
15CD CD 21 16                   call L1621
15D0 AF                         xor a
15D1 ED 92 40                   nextreg $40,a
15D4 F1                         pop af
15D5 E1                         pop hl
15D6 ED 8A 15 E5                push $15E5
15DA ED 8A 00 7B                push $007B
15DE ED 8A 33 08                push $3308
15E2 C3 7B 00                   jp L007B
15E5 CD EC 00                   call L00EC
15E8 CB FC                      set 7,h
15EA CB F4                      set 6,h
15EC ED 92 57                   nextreg $57,a
15EF 3D                         dec a
15F0 ED 92 56                   nextreg $56,a
15F3 E5                         push hl
15F4 01 FF 00                   ld bc,$00FF
15F7 FD CB 45 66                bit 4,(iy+$45)
15FB 28 01                      jr z,L15FE
15FD 04                         inc b
15FE 09            L15FE:       add hl,bc
15FF D1                         pop de
1600 DA 33 12                   jp c,L1233
1603 26 00                      ld h,$00
1605 1A            L1605:       ld a,(de)
1606 13                         inc de
1607 FD CB 45 66                bit 4,(iy+$45)
160B 28 0A                      jr z,L1617
160D ED 92 44                   nextreg $44,a
1610 1A                         ld a,(de)
1611 13                         inc de
1612 ED 92 44                   nextreg $44,a
1615 18 03                      jr L161A
1617 ED 92 41      L1617:       nextreg $41,a
161A 25            L161A:       dec h
161B 20 E8                      jr nz,L1605
161D CD E8 00                   call L00E8
1620 C9                         ret
1621 FE 02         L1621:       cp $02
1623 D2 22 12                   jp nc,L1222
1626 0F                         rrca
1627 0F                         rrca
1628 57                         ld d,a
1629 3A 8A 5B                   ld a,($5B8A)
162C E6 30                      and $30
162E B2                         or d
162F 57                         ld d,a
1630 1E 8F                      ld e,$8F
1632 3E 43         L1632:       ld a,$43
1634 CD 9B 0A                   call L0A9B
1637 A3                         and e
1638 B2                         or d
1639 ED 79                      out (c),a
163B C9                         ret
163C ED 8A 16 4B                push $164B
1640 ED 8A 00 7B                push $007B
1644 ED 8A 38 23                push $3823
1648 C3 7B 00                   jp L007B
164B D6 08                      sub $08
164D DA 22 12                   jp c,L1222
1650 FE 02                      cp $02
1652 D2 22 12                   jp nc,L1222
1655 FD CB 45 A6                res 4,(iy+$45)
1659 A7                         and a
165A C8                         ret z
165B FD CB 45 E6                set 4,(iy+$45)
165F C9                         ret
1660 ED 8A 16 6F                push $166F
1664 ED 8A 00 7B                push $007B
1668 ED 8A 38 23                push $3823
166C C3 7B 00                   jp L007B
166F ED 8A 16 7E                push $167E
1673 ED 8A 00 7B                push $007B
1677 ED 8A 15 BE                push $15BE
167B C3 7B 00                   jp L007B
167E C9                         ret
167F 06 00                      ld b,$00
1681 C5            L1681:       push bc
1682 E7                         rst $20
1683 8C                         adc a,h
1684 1C                         inc e
1685 C1                         pop bc
1686 04                         inc b
1687 FE 2C                      cp $2C
1689 20 03                      jr nz,L168E
168B F7                         rst $30
168C 18 F3                      jr L1681
168E 78            L168E:       ld a,b
168F FE 0A                      cp $0A
1691 38 11                      jr c,L16A4
1693 3E 0B                      ld a,$0B
1695 ED 8A 16 A4                push $16A4
1699 ED 8A 00 7B                push $007B
169D ED 8A 0D A5                push $0DA5
16A1 C3 7B 00                   jp L007B
16A4 CD 49 01      L16A4:       call L0149
16A7 48                         ld c,b
16A8 C5                         push bc
16A9 11 37 00                   ld de,$0037
16AC 21 37 00                   ld hl,$0037
16AF 19            L16AF:       add hl,de
16B0 10 FD                      djnz L16AF
16B2 4D                         ld c,l
16B3 44                         ld b,h
16B4 E7                         rst $20
16B5 30 00                      jr nc,L16B7
16B7 F3            L16B7:       di
16B8 D5                         push de
16B9 FD E1                      pop iy
16BB 23                         inc hl
16BC E5                         push hl
16BD DD E1                      pop ix
16BF 21 FF FF                   ld hl,$FFFF
16C2 22 AE 5C                   ld ($5CAE),hl
16C5 01 C9 FF      L16C5:       ld bc,$FFC9
16C8 DD 09                      add ix,bc
16CA C1                         pop bc
16CB C5                         push bc
16CC 06 0F                      ld b,$0F
16CE DD 36 03 3C                ld (ix+$03),$3C
16D2 DD 36 01 FF                ld (ix+$01),$FF
16D6 DD 70 04                   ld (ix+$04),b
16D9 DD 36 05 05                ld (ix+$05),$05
16DD DD 36 21 00                ld (ix+$21),$00
16E1 DD 36 0A 00                ld (ix+$0A),$00
16E5 DD 36 0B 00                ld (ix+$0B),$00
16E9 DD 36 16 FF                ld (ix+$16),$FF
16ED DD 36 17 00                ld (ix+$17),$00
16F1 DD 36 18 00                ld (ix+$18),$00
16F5 ED 8A 17 04                push $1704
16F9 ED 8A 00 7B                push $007B
16FD ED 8A 38 42                push $3842
1701 C3 7B 00                   jp L007B
1704 DD 73 06                   ld (ix+$06),e
1707 DD 72 07                   ld (ix+$07),d
170A DD 73 0C                   ld (ix+$0C),e
170D DD 72 0D                   ld (ix+$0D),d
1710 EB                         ex de,hl
1711 09                         add hl,bc
1712 DD 75 08                   ld (ix+$08),l
1715 DD 74 09                   ld (ix+$09),h
1718 C1                         pop bc
1719 C5                         push bc
171A 05                         dec b
171B 48                         ld c,b
171C 06 00                      ld b,$00
171E CB 21                      sla c
1720 FD E5                      push iy
1722 E1                         pop hl
1723 09                         add hl,bc
1724 DD E5                      push ix
1726 C1                         pop bc
1727 71                         ld (hl),c
1728 23                         inc hl
1729 70                         ld (hl),b
172A 2A AE 5C                   ld hl,($5CAE)
172D 29                         add hl,hl
172E 22 AE 5C                   ld ($5CAE),hl
1731 C1                         pop bc
1732 05                         dec b
1733 C5                         push bc
1734 DD 70 02                   ld (ix+$02),b
1737 20 8C                      jr nz,L16C5
1739 C1                         pop bc
173A FD 36 28 1A                ld (iy+$28),$1A
173E FD 36 29 0B                ld (iy+$29),$0B
1742 FD E5                      push iy
1744 E1                         pop hl
1745 01 2A 00                   ld bc,$002A
1748 09                         add hl,bc
1749 EB                         ex de,hl
174A 21 A3 17                   ld hl,$17A3
174D 01 0D 00                   ld bc,$000D
1750 ED B0                      ldir
1752 16 07                      ld d,$07
1754 1E F8                      ld e,$F8
1756 CD 50 1C                   call L1C50
1759 16 0B                      ld d,$0B
175B 1E FF                      ld e,$FF
175D CD 50 1C                   call L1C50
1760 14                         inc d
1761 CD 50 1C                   call L1C50
1764 21 A6 5C                   ld hl,$5CA6
1767 36 FF                      ld (hl),$FF
1769 23                         inc hl
176A 36 FE                      ld (hl),$FE
176C 23                         inc hl
176D 36 FD                      ld (hl),$FD
176F CD D4 17                   call L17D4
1772 CD 22 18      L1772:       call L1822
1775 20 06                      jr nz,L177D
1777 CD E8 17                   call L17E8
177A CD EC 18                   call L18EC
177D CD 32 18      L177D:       call L1832
1780 28 F0                      jr z,L1772
1782 CD 87 1D                   call L1D87
1785 D5                         push de
1786 CD 41 1D                   call L1D41
1789 D1                         pop de
178A 2A AE 5C      L178A:       ld hl,($5CAE)
178D 7C                         ld a,h
178E A5                         and l
178F 3C                         inc a
1790 20 05                      jr nz,L1797
1792 CD 5E 1C                   call L1C5E
1795 FB                         ei
1796 C9                         ret
1797 1B            L1797:       dec de
1798 CD 6C 1D                   call L1D6C
179B CD B0 1D                   call L1DB0
179E CD 87 1D                   call L1D87
17A1 18 E7                      jr L178A
17A3 EF                         rst $28
17A4 A4                         and h
17A5 01 05 34                   ld bc,$3405
17A8 DF                         rst $18
17A9 75                         ld (hl),l
17AA F4 38 75                   call p,L7538
17AD 05                         dec b
17AE 38 C9                      jr c,L1779
17B0 3E 7F         L17B0:       ld a,$7F
17B2 DB FE                      in a,($FE)
17B4 1F                         rra
17B5 D8                         ret c
17B6 3E FE                      ld a,$FE
17B8 DB FE                      in a,($FE)
17BA 1F                         rra
17BB D8                         ret c
17BC ED 8A 17 CB                push $17CB
17C0 ED 8A 00 7B                push $007B
17C4 ED 8A 3E 75                push $3E75
17C8 C3 7B 00                   jp L007B
17CB 37                         scf
17CC C0                         ret nz
17CD A7                         and a
17CE C9                         ret
17CF 01 12 00      L17CF:       ld bc,$0012
17D2 18 03                      jr L17D7
17D4 01 00 00      L17D4:       ld bc,$0000
17D7 21 01 00      L17D7:       ld hl,$0001
17DA 22 AC 5C                   ld ($5CAC),hl
17DD FD E5                      push iy
17DF E1                         pop hl
17E0 09                         add hl,bc
17E1 FD 75 24                   ld (iy+$24),l
17E4 FD 74 25                   ld (iy+$25),h
17E7 C9                         ret
17E8 5E            L17E8:       ld e,(hl)
17E9 23                         inc hl
17EA 56                         ld d,(hl)
17EB D5                         push de
17EC DD E1                      pop ix
17EE DD 7E 02      L17EE:       ld a,(ix+$02)
17F1 21 A6 5C                   ld hl,$5CA6
17F4 FE 03                      cp $03
17F6 38 06                      jr c,L17FE
17F8 23                         inc hl
17F9 FE 06                      cp $06
17FB 38 01                      jr c,L17FE
17FD 23                         inc hl
17FE 7E            L17FE:       ld a,(hl)
17FF 01 FD FF                   ld bc,$FFFD
1802 ED 79                      out (c),a
1804 C9                         ret
1805 DD 7E 02      L1805:       ld a,(ix+$02)
1808 21 A9 5C                   ld hl,$5CA9
180B FE 03                      cp $03
180D D8                         ret c
180E 23                         inc hl
180F FE 06                      cp $06
1811 D8                         ret c
1812 23                         inc hl
1813 C9                         ret
1814 DD 7E 02      L1814:       ld a,(ix+$02)
1817 FE 03                      cp $03
1819 D8                         ret c
181A D6 03                      sub $03
181C FE 03                      cp $03
181E D8                         ret c
181F D6 03                      sub $03
1821 C9                         ret
1822 D9            L1822:       exx
1823 2A AE 5C                   ld hl,($5CAE)
1826 ED 5B AC 5C                ld de,($5CAC)
182A 7C                         ld a,h
182B A2                         and d
182C 67                         ld h,a
182D 7D                         ld a,l
182E A3                         and e
182F B4                         or h
1830 D9                         exx
1831 C9                         ret
1832 2A AC 5C      L1832:       ld hl,($5CAC)
1835 29                         add hl,hl
1836 22 AC 5C                   ld ($5CAC),hl
1839 CB 4C                      bit 1,h
183B FD 6E 24      L183B:       ld l,(iy+$24)
183E FD 66 25                   ld h,(iy+$25)
1841 23                         inc hl
1842 23                         inc hl
1843 FD 75 24                   ld (iy+$24),l
1846 FD 74 25                   ld (iy+$25),h
1849 C9                         ret
184A 53                         ld d,e
184B 52                         ld d,d
184C 4C                         ld c,h
184D 48                         ld c,b
184E 5A                         ld e,d
184F 59                         ld e,c
1850 58                         ld e,b
1851 57                         ld d,a
1852 55                         ld d,l
1853 56                         ld d,(hl)
1854 4D                         ld c,l
1855 54                         ld d,h
1856 29                         add hl,hl
1857 28 4E                      jr z,L18A7
1859 4F                         ld c,a
185A 21 CD 94                   ld hl,$94CD
185D 1C                         inc e
185E D8                         ret c
185F DD 34 06                   inc (ix+$06)
1862 C0                         ret nz
1863 DD 34 07                   inc (ix+$07)
1866 C9                         ret
1867 E5            L1867:       push hl
1868 0E 00                      ld c,$00
186A CD 5B 18      L186A:       call L185B
186D 38 08                      jr c,L1877
186F FE 26                      cp $26
1871 20 09                      jr nz,L187C
1873 3E 80                      ld a,$80
1875 E1            L1875:       pop hl
1876 C9                         ret
1877 CD 5C 1B      L1877:       call L1B5C
187A 18 F9                      jr L1875
187C FE 23         L187C:       cp $23
187E 20 03                      jr nz,L1883
1880 0C                         inc c
1881 18 E7                      jr L186A
1883 FE 24         L1883:       cp $24
1885 20 03                      jr nz,L188A
1887 0D                         dec c
1888 18 E0                      jr L186A
188A CB 6F         L188A:       bit 5,a
188C 20 06                      jr nz,L1894
188E F5                         push af
188F 3E 0C                      ld a,$0C
1891 81                         add a,c
1892 4F                         ld c,a
1893 F1                         pop af
1894 E6 DF         L1894:       and $DF
1896 D6 41                      sub $41
1898 DA ED 1C                   jp c,L1CED
189B FE 07                      cp $07
189D D2 ED 1C                   jp nc,L1CED
18A0 C5                         push bc
18A1 06 00                      ld b,$00
18A3 4F                         ld c,a
18A4 21 C0 1B                   ld hl,$1BC0
18A7 09            L18A7:       add hl,bc
18A8 7E                         ld a,(hl)
18A9 C1                         pop bc
18AA 81                         add a,c
18AB E1                         pop hl
18AC C9                         ret
18AD E5            L18AD:       push hl
18AE D5                         push de
18AF DD 6E 06                   ld l,(ix+$06)
18B2 DD 66 07                   ld h,(ix+$07)
18B5 11 00 00                   ld de,$0000
18B8 7E            L18B8:       ld a,(hl)
18B9 FE 30                      cp $30
18BB 38 18                      jr c,L18D5
18BD FE 3A                      cp $3A
18BF 30 14                      jr nc,L18D5
18C1 23                         inc hl
18C2 E5                         push hl
18C3 CD E0 18                   call L18E0
18C6 D6 30                      sub $30
18C8 26 00                      ld h,$00
18CA 6F                         ld l,a
18CB 19                         add hl,de
18CC 38 04                      jr c,L18D2
18CE EB                         ex de,hl
18CF E1                         pop hl
18D0 18 E6                      jr L18B8
18D2 C3 D8 1C      L18D2:       jp L1CD8
18D5 DD 75 06      L18D5:       ld (ix+$06),l
18D8 DD 74 07                   ld (ix+$07),h
18DB D5                         push de
18DC C1                         pop bc
18DD D1                         pop de
18DE E1                         pop hl
18DF C9                         ret
18E0 21 00 00      L18E0:       ld hl,$0000
18E3 06 0A                      ld b,$0A
18E5 19            L18E5:       add hl,de
18E6 38 EA                      jr c,L18D2
18E8 10 FB                      djnz L18E5
18EA EB                         ex de,hl
18EB C9                         ret
18EC CD B0 17      L18EC:       call L17B0
18EF 38 15                      jr c,L1906
18F1 CD 5E 1C                   call L1C5E
18F4 FB                         ei
18F5 3E 14                      ld a,$14
18F7 ED 8A 19 06                push $1906
18FB ED 8A 00 7B                push $007B
18FF ED 8A 0D A5                push $0DA5
1903 C3 7B 00                   jp L007B
1906 CD 5B 18      L1906:       call L185B
1909 DA 5C 1B                   jp c,L1B5C
190C CD B7 1B                   call L1BB7
190F 06 00                      ld b,$00
1911 CB 21                      sla c
1913 21 8B 1B                   ld hl,$1B8B
1916 09                         add hl,bc
1917 5E                         ld e,(hl)
1918 23                         inc hl
1919 56                         ld d,(hl)
191A EB                         ex de,hl
191B CD 21 19                   call L1921
191E 18 CC                      jr L18EC
1920 C9                         ret
1921 E9            L1921:       jp (hl)
1922 CD 5B 18      L1922:       call L185B
1925 DA 5B 1B                   jp c,L1B5B
1928 FE 21                      cp $21
192A C8                         ret z
192B 18 F5                      jr L1922
192D CD AD 18                   call L18AD
1930 79                         ld a,c
1931 FE 09                      cp $09
1933 D2 C3 1C                   jp nc,L1CC3
1936 CB 27                      sla a
1938 CB 27                      sla a
193A 47                         ld b,a
193B CB 27                      sla a
193D 80                         add a,b
193E DD 77 03                   ld (ix+$03),a
1941 C9                         ret
1942 C9                         ret
1943 DD 7E 0B                   ld a,(ix+$0B)
1946 3C                         inc a
1947 FE 05                      cp $05
1949 CA 02 1D                   jp z,L1D02
194C DD 77 0B                   ld (ix+$0B),a
194F 11 0C 00                   ld de,$000C
1952 CD C4 19                   call L19C4
1955 DD 7E 06                   ld a,(ix+$06)
1958 77                         ld (hl),a
1959 23                         inc hl
195A DD 7E 07                   ld a,(ix+$07)
195D 77                         ld (hl),a
195E C9                         ret
195F DD 7E 16                   ld a,(ix+$16)
1962 11 17 00                   ld de,$0017
1965 B7                         or a
1966 FA 8D 19                   jp m,L198D
1969 CD C4 19                   call L19C4
196C DD 7E 06                   ld a,(ix+$06)
196F BE                         cp (hl)
1970 20 1B                      jr nz,L198D
1972 23                         inc hl
1973 DD 7E 07                   ld a,(ix+$07)
1976 BE                         cp (hl)
1977 20 14                      jr nz,L198D
1979 DD 35 16                   dec (ix+$16)
197C DD 7E 16                   ld a,(ix+$16)
197F B7                         or a
1980 F0                         ret p
1981 DD CB 0A 46                bit 0,(ix+$0A)
1985 C8                         ret z
1986 DD 36 16 00                ld (ix+$16),$00
198A AF                         xor a
198B 18 1B                      jr L19A8
198D DD 7E 16      L198D:       ld a,(ix+$16)
1990 3C                         inc a
1991 FE 05                      cp $05
1993 CA 02 1D                   jp z,L1D02
1996 DD 77 16                   ld (ix+$16),a
1999 CD C4 19                   call L19C4
199C DD 7E 06                   ld a,(ix+$06)
199F 77                         ld (hl),a
19A0 23                         inc hl
19A1 DD 7E 07                   ld a,(ix+$07)
19A4 77                         ld (hl),a
19A5 DD 7E 0B                   ld a,(ix+$0B)
19A8 11 0C 00      L19A8:       ld de,$000C
19AB CD C4 19                   call L19C4
19AE 7E                         ld a,(hl)
19AF DD 77 06                   ld (ix+$06),a
19B2 23                         inc hl
19B3 7E                         ld a,(hl)
19B4 DD 77 07                   ld (ix+$07),a
19B7 DD 35 0B                   dec (ix+$0B)
19BA F0                         ret p
19BB DD 36 0B 00                ld (ix+$0B),$00
19BF DD CB 0A C6                set 0,(ix+$0A)
19C3 C9                         ret
19C4 DD E5         L19C4:       push ix
19C6 E1                         pop hl
19C7 19                         add hl,de
19C8 06 00                      ld b,$00
19CA 4F                         ld c,a
19CB CB 21                      sla c
19CD 09                         add hl,bc
19CE C9                         ret
19CF CD AD 18                   call L18AD
19D2 78                         ld a,b
19D3 B7                         or a
19D4 C2 C3 1C                   jp nz,L1CC3
19D7 79                         ld a,c
19D8 FE 3C                      cp $3C
19DA DA C3 1C                   jp c,L1CC3
19DD FE F1                      cp $F1
19DF D2 C3 1C                   jp nc,L1CC3
19E2 DD 7E 02                   ld a,(ix+$02)
19E5 B7                         or a
19E6 C0                         ret nz
19E7 06 00                      ld b,$00
19E9 C5                         push bc
19EA E1                         pop hl
19EB 29                         add hl,hl
19EC 29                         add hl,hl
19ED E5                         push hl
19EE C1                         pop bc
19EF DD E5                      push ix
19F1 FD E5                      push iy
19F3 FD 21 3A 5C                ld iy,$5C3A
19F7 ED 8A 1A 06                push $1A06
19FB ED 8A 00 7B                push $007B
19FF ED 8A 38 67                push $3867
1A03 C3 7B 00                   jp L007B
1A06 E1                         pop hl
1A07 E5                         push hl
1A08 01 2A 00                   ld bc,$002A
1A0B 09                         add hl,bc
1A0C 44                         ld b,h
1A0D 4D                         ld c,l
1A0E CD A7 00                   call L00A7
1A11 ED 8A 1A 20                push $1A20
1A15 ED 8A 00 7B                push $007B
1A19 ED 8A 37 EF                push $37EF
1A1D C3 7B 00                   jp L007B
1A20 F3                         di
1A21 FD E1                      pop iy
1A23 DD E1                      pop ix
1A25 FD 71 28                   ld (iy+$28),c
1A28 FD 70 29                   ld (iy+$29),b
1A2B C9                         ret
1A2C CD AD 18                   call L18AD
1A2F 79                         ld a,c
1A30 FE 40                      cp $40
1A32 D2 C3 1C                   jp nc,L1CC3
1A35 2F                         cpl
1A36 5F                         ld e,a
1A37 16 07                      ld d,$07
1A39 CD 43 1C                   call L1C43
1A3C C9                         ret
1A3D CD AD 18                   call L18AD
1A40 79                         ld a,c
1A41 FE 10                      cp $10
1A43 D2 C3 1C                   jp nc,L1CC3
1A46 DD 77 04                   ld (ix+$04),a
1A49 CD 14 18                   call L1814
1A4C C6 08                      add a,$08
1A4E 57                         ld d,a
1A4F 59                         ld e,c
1A50 CD 43 1C                   call L1C43
1A53 C9                         ret
1A54 1E 1F                      ld e,$1F
1A56 DD 73 04                   ld (ix+$04),e
1A59 C9                         ret
1A5A CD AD 18                   call L18AD
1A5D 79                         ld a,c
1A5E FE 08                      cp $08
1A60 D2 C3 1C                   jp nc,L1CC3
1A63 06 00                      ld b,$00
1A65 21 AF 1B                   ld hl,$1BAF
1A68 09                         add hl,bc
1A69 4E                         ld c,(hl)
1A6A CD 05 18                   call L1805
1A6D 71                         ld (hl),c
1A6E C9                         ret
1A6F CD AD 18                   call L18AD
1A72 16 0B                      ld d,$0B
1A74 59                         ld e,c
1A75 CD 43 1C                   call L1C43
1A78 14                         inc d
1A79 58                         ld e,b
1A7A CD 43 1C                   call L1C43
1A7D C9                         ret
1A7E CD AD 18                   call L18AD
1A81 79                         ld a,c
1A82 3D                         dec a
1A83 FA C3 1C                   jp m,L1CC3
1A86 FE 10                      cp $10
1A88 D2 C3 1C                   jp nc,L1CC3
1A8B DD 77 01                   ld (ix+$01),a
1A8E C9                         ret
1A8F CD AD 18                   call L18AD
1A92 C9                         ret
1A93 21 FF FF                   ld hl,$FFFF
1A96 22 AE 5C                   ld ($5CAE),hl
1A99 C9                         ret
1A9A CD EE 17                   call L17EE
1A9D E6 9F                      and $9F
1A9F F6 40                      or $40
1AA1 77                         ld (hl),a
1AA2 ED 79                      out (c),a
1AA4 C9                         ret
1AA5 CD EE 17                   call L17EE
1AA8 E6 9F                      and $9F
1AAA F6 20                      or $20
1AAC 77                         ld (hl),a
1AAD ED 79                      out (c),a
1AAF C9                         ret
1AB0 CD EE 17                   call L17EE
1AB3 F6 60                      or $60
1AB5 77                         ld (hl),a
1AB6 ED 79                      out (c),a
1AB8 C9                         ret
1AB9 CD E0 1B                   call L1BE0
1ABC DA 3E 1B                   jp c,L1B3E
1ABF CD 6D 1B                   call L1B6D
1AC2 CD 75 1B                   call L1B75
1AC5 AF                         xor a
1AC6 DD 77 21                   ld (ix+$21),a
1AC9 CD 79 1C                   call L1C79
1ACC CD AD 18                   call L18AD
1ACF 79                         ld a,c
1AD0 B7                         or a
1AD1 CA C3 1C                   jp z,L1CC3
1AD4 FE 0D                      cp $0D
1AD6 D2 C3 1C                   jp nc,L1CC3
1AD9 FE 0A                      cp $0A
1ADB 38 13                      jr c,L1AF0
1ADD CD C7 1B                   call L1BC7
1AE0 CD 31 1B                   call L1B31
1AE3 73                         ld (hl),e
1AE4 23                         inc hl
1AE5 72                         ld (hl),d
1AE6 CD 31 1B      L1AE6:       call L1B31
1AE9 23                         inc hl
1AEA 73                         ld (hl),e
1AEB 23                         inc hl
1AEC 72                         ld (hl),d
1AED 23                         inc hl
1AEE 18 06                      jr L1AF6
1AF0 DD 71 05      L1AF0:       ld (ix+$05),c
1AF3 CD C7 1B                   call L1BC7
1AF6 CD 31 1B      L1AF6:       call L1B31
1AF9 CD 94 1C      L1AF9:       call L1C94
1AFC FE 5F                      cp $5F
1AFE 20 2C                      jr nz,L1B2C
1B00 CD 5B 18                   call L185B
1B03 CD AD 18                   call L18AD
1B06 79                         ld a,c
1B07 FE 0A                      cp $0A
1B09 38 12                      jr c,L1B1D
1B0B E5                         push hl
1B0C D5                         push de
1B0D CD C7 1B                   call L1BC7
1B10 E1                         pop hl
1B11 19                         add hl,de
1B12 4B                         ld c,e
1B13 42                         ld b,d
1B14 EB                         ex de,hl
1B15 E1                         pop hl
1B16 73                         ld (hl),e
1B17 23                         inc hl
1B18 72                         ld (hl),d
1B19 59                         ld e,c
1B1A 50                         ld d,b
1B1B 18 C9                      jr L1AE6
1B1D DD 71 05      L1B1D:       ld (ix+$05),c
1B20 E5                         push hl
1B21 D5                         push de
1B22 CD C7 1B                   call L1BC7
1B25 E1                         pop hl
1B26 19                         add hl,de
1B27 EB                         ex de,hl
1B28 E1                         pop hl
1B29 C3 F9 1A                   jp L1AF9
1B2C 73            L1B2C:       ld (hl),e
1B2D 23                         inc hl
1B2E 72                         ld (hl),d
1B2F 18 25                      jr L1B56
1B31 DD 7E 21      L1B31:       ld a,(ix+$21)
1B34 3C                         inc a
1B35 FE 0B                      cp $0B
1B37 CA 2C 1D                   jp z,L1D2C
1B3A DD 77 21                   ld (ix+$21),a
1B3D C9                         ret
1B3E CD 79 1C      L1B3E:       call L1C79
1B41 DD 36 21 01                ld (ix+$21),$01
1B45 CD 6D 1B                   call L1B6D
1B48 CD 75 1B                   call L1B75
1B4B DD 4E 05                   ld c,(ix+$05)
1B4E E5                         push hl
1B4F CD C7 1B                   call L1BC7
1B52 E1                         pop hl
1B53 73                         ld (hl),e
1B54 23                         inc hl
1B55 72                         ld (hl),d
1B56 E1            L1B56:       pop hl
1B57 23                         inc hl
1B58 23                         inc hl
1B59 E5                         push hl
1B5A C9                         ret
1B5B E1            L1B5B:       pop hl
1B5C 2A AE 5C      L1B5C:       ld hl,($5CAE)
1B5F 3A AC 5C                   ld a,($5CAC)
1B62 B5                         or l
1B63 6F                         ld l,a
1B64 3A AD 5C                   ld a,($5CAD)
1B67 B4                         or h
1B68 67                         ld h,a
1B69 22 AE 5C                   ld ($5CAE),hl
1B6C C9                         ret
1B6D DD E5         L1B6D:       push ix
1B6F E1                         pop hl
1B70 01 22 00                   ld bc,$0022
1B73 09                         add hl,bc
1B74 C9                         ret
1B75 E5            L1B75:       push hl
1B76 FD E5                      push iy
1B78 E1                         pop hl
1B79 01 12 00                   ld bc,$0012
1B7C 09                         add hl,bc
1B7D 06 00                      ld b,$00
1B7F DD 4E 02                   ld c,(ix+$02)
1B82 CB 21                      sla c
1B84 09                         add hl,bc
1B85 D1                         pop de
1B86 73                         ld (hl),e
1B87 23                         inc hl
1B88 72                         ld (hl),d
1B89 EB                         ex de,hl
1B8A C9                         ret
1B8B B9                         cp c
1B8C 1A                         ld a,(de)
1B8D 22 19 2D                   ld ($2D19),hl
1B90 19                         add hl,de
1B91 42                         ld b,d
1B92 19                         add hl,de
1B93 43                         ld b,e
1B94 19                         add hl,de
1B95 5F                         ld e,a
1B96 19                         add hl,de
1B97 CF                         rst $08
1B98 19                         add hl,de
1B99 2C                         inc l
1B9A 1A                         ld a,(de)
1B9B 3D                         dec a
1B9C 1A                         ld a,(de)
1B9D 54                         ld d,h
1B9E 1A                         ld a,(de)
1B9F 5A                         ld e,d
1BA0 1A                         ld a,(de)
1BA1 6F                         ld l,a
1BA2 1A                         ld a,(de)
1BA3 7E                         ld a,(hl)
1BA4 1A                         ld a,(de)
1BA5 8F                         adc a,a
1BA6 1A                         ld a,(de)
1BA7 93                         sub e
1BA8 1A                         ld a,(de)
1BA9 9A                         sbc a,d
1BAA 1A                         ld a,(de)
1BAB A5                         and l
1BAC 1A                         ld a,(de)
1BAD B0                         or b
1BAE 1A                         ld a,(de)
1BAF 00                         nop
1BB0 04                         inc b
1BB1 0B                         dec bc
1BB2 0D                         dec c
1BB3 08                         ex af,af'
1BB4 0C                         inc c
1BB5 0E 0A                      ld c,$0A
1BB7 01 12 00      L1BB7:       ld bc,$0012
1BBA 21 4A 18                   ld hl,$184A
1BBD ED B1                      cpir
1BBF C9                         ret
1BC0 09                         add hl,bc
1BC1 0B                         dec bc
1BC2 00                         nop
1BC3 02                         ld (bc),a
1BC4 04                         inc b
1BC5 05                         dec b
1BC6 07                         rlca
1BC7 E5            L1BC7:       push hl
1BC8 06 00                      ld b,$00
1BCA 21 D3 1B                   ld hl,$1BD3
1BCD 09                         add hl,bc
1BCE 16 00                      ld d,$00
1BD0 5E                         ld e,(hl)
1BD1 E1                         pop hl
1BD2 C9                         ret
1BD3 80                         add a,b
1BD4 06 09                      ld b,$09
1BD6 0C                         inc c
1BD7 12                         ld (de),a
1BD8 18 24                      jr L1BFE
1BDA 30 48                      jr nc,L1C24
1BDC 60                         ld h,b
1BDD 04                         inc b
1BDE 08                         ex af,af'
1BDF 10 FE         L1BDF:       djnz L1BDF
1BE1 30 D8                      jr nc,L1BBB
1BE3 FE 3A                      cp $3A
1BE5 3F                         ccf
1BE6 C9                         ret
1BE7 4F            L1BE7:       ld c,a
1BE8 DD 7E 03                   ld a,(ix+$03)
1BEB 81                         add a,c
1BEC FE 80                      cp $80
1BEE D2 17 1D                   jp nc,L1D17
1BF1 4F                         ld c,a
1BF2 CD 14 18                   call L1814
1BF5 B7                         or a
1BF6 20 0E                      jr nz,L1C06
1BF8 79                         ld a,c
1BF9 2F                         cpl
1BFA E6 7F                      and $7F
1BFC CB 3F                      srl a
1BFE CB 3F         L1BFE:       srl a
1C00 16 06                      ld d,$06
1C02 5F                         ld e,a
1C03 CD 43 1C                   call L1C43
1C06 DD 71 00      L1C06:       ld (ix),c
1C09 DD 7E 02                   ld a,(ix+$02)
1C0C FE 09                      cp $09
1C0E D0                         ret nc
1C0F 21 75 1E                   ld hl,$1E75
1C12 06 00                      ld b,$00
1C14 79                         ld a,c
1C15 D6 15                      sub $15
1C17 30 05                      jr nc,L1C1E
1C19 11 BF 0F                   ld de,$0FBF
1C1C 18 07                      jr L1C25
1C1E 4F            L1C1E:       ld c,a
1C1F CB 21                      sla c
1C21 09                         add hl,bc
1C22 5E                         ld e,(hl)
1C23 23                         inc hl
1C24 56            L1C24:       ld d,(hl)
1C25 EB            L1C25:       ex de,hl
1C26 CD 14 18                   call L1814
1C29 87                         add a,a
1C2A 57                         ld d,a
1C2B 5D                         ld e,l
1C2C CD 43 1C                   call L1C43
1C2F 14                         inc d
1C30 5C                         ld e,h
1C31 CD 43 1C                   call L1C43
1C34 DD CB 04 66                bit 4,(ix+$04)
1C38 C8                         ret z
1C39 CD 05 18                   call L1805
1C3C 5E                         ld e,(hl)
1C3D 16 0D                      ld d,$0D
1C3F CD 43 1C                   call L1C43
1C42 C9                         ret
1C43 C5            L1C43:       push bc
1C44 01 FD FF                   ld bc,$FFFD
1C47 ED 51                      out (c),d
1C49 01 FD BF                   ld bc,$BFFD
1C4C ED 59                      out (c),e
1C4E C1                         pop bc
1C4F C9                         ret
1C50 01 FD FF      L1C50:       ld bc,$FFFD
1C53 3E FD                      ld a,$FD
1C55 ED 79         L1C55:       out (c),a
1C57 CD 43 1C                   call L1C43
1C5A 3C                         inc a
1C5B 20 F8                      jr nz,L1C55
1C5D C9                         ret
1C5E 16 07         L1C5E:       ld d,$07
1C60 1E FF                      ld e,$FF
1C62 CD 50 1C                   call L1C50
1C65 16 08                      ld d,$08
1C67 1E 00                      ld e,$00
1C69 CD 50 1C                   call L1C50
1C6C 14                         inc d
1C6D CD 50 1C                   call L1C50
1C70 14                         inc d
1C71 CD 50 1C                   call L1C50
1C74 FD 21 3A 5C                ld iy,$5C3A
1C78 C9                         ret
1C79 E5            L1C79:       push hl
1C7A D5                         push de
1C7B DD 6E 06                   ld l,(ix+$06)
1C7E DD 66 07                   ld h,(ix+$07)
1C81 2B            L1C81:       dec hl
1C82 7E                         ld a,(hl)
1C83 FE 20                      cp $20
1C85 28 FA                      jr z,L1C81
1C87 FE 0D                      cp $0D
1C89 28 F6                      jr z,L1C81
1C8B DD 75 06                   ld (ix+$06),l
1C8E DD 74 07                   ld (ix+$07),h
1C91 D1                         pop de
1C92 E1                         pop hl
1C93 C9                         ret
1C94 E5            L1C94:       push hl
1C95 D5                         push de
1C96 C5                         push bc
1C97 DD 6E 06                   ld l,(ix+$06)
1C9A DD 66 07                   ld h,(ix+$07)
1C9D 7C            L1C9D:       ld a,h
1C9E DD BE 09                   cp (ix+$09)
1CA1 20 09                      jr nz,L1CAC
1CA3 7D                         ld a,l
1CA4 DD BE 08                   cp (ix+$08)
1CA7 20 03                      jr nz,L1CAC
1CA9 37                         scf
1CAA 18 0A                      jr L1CB6
1CAC 7E            L1CAC:       ld a,(hl)
1CAD FE 20                      cp $20
1CAF 28 09                      jr z,L1CBA
1CB1 FE 0D                      cp $0D
1CB3 28 05                      jr z,L1CBA
1CB5 B7                         or a
1CB6 C1            L1CB6:       pop bc
1CB7 D1                         pop de
1CB8 E1                         pop hl
1CB9 C9                         ret
1CBA 23            L1CBA:       inc hl
1CBB DD 75 06                   ld (ix+$06),l
1CBE DD 74 07                   ld (ix+$07),h
1CC1 18 DA                      jr L1C9D
1CC3 CD 5E 1C      L1CC3:       call L1C5E
1CC6 FB                         ei
1CC7 3E 29                      ld a,$29
1CC9 ED 8A 1C D8                push $1CD8
1CCD ED 8A 00 7B                push $007B
1CD1 ED 8A 0D A5                push $0DA5
1CD5 C3 7B 00                   jp L007B
1CD8 CD 5E 1C      L1CD8:       call L1C5E
1CDB FB                         ei
1CDC 3E 27                      ld a,$27
1CDE ED 8A 1C ED                push $1CED
1CE2 ED 8A 00 7B                push $007B
1CE6 ED 8A 0D A5                push $0DA5
1CEA C3 7B 00                   jp L007B
1CED CD 5E 1C      L1CED:       call L1C5E
1CF0 FB                         ei
1CF1 3E 26                      ld a,$26
1CF3 ED 8A 1D 02                push $1D02
1CF7 ED 8A 00 7B                push $007B
1CFB ED 8A 0D A5                push $0DA5
1CFF C3 7B 00                   jp L007B
1D02 CD 5E 1C      L1D02:       call L1C5E
1D05 FB                         ei
1D06 3E 1F                      ld a,$1F
1D08 ED 8A 1D 17                push $1D17
1D0C ED 8A 00 7B                push $007B
1D10 ED 8A 0D A5                push $0DA5
1D14 C3 7B 00                   jp L007B
1D17 CD 5E 1C      L1D17:       call L1C5E
1D1A FB                         ei
1D1B 3E 28                      ld a,$28
1D1D ED 8A 1D 2C                push $1D2C
1D21 ED 8A 00 7B                push $007B
1D25 ED 8A 0D A5                push $0DA5
1D29 C3 7B 00                   jp L007B
1D2C CD 5E 1C      L1D2C:       call L1C5E
1D2F FB                         ei
1D30 3E 2A                      ld a,$2A
1D32 ED 8A 1D 41                push $1D41
1D36 ED 8A 00 7B                push $007B
1D3A ED 8A 0D A5                push $0DA5
1D3E C3 7B 00                   jp L007B
1D41 CD D4 17      L1D41:       call L17D4
1D44 CD 22 18      L1D44:       call L1822
1D47 20 1D                      jr nz,L1D66
1D49 CD E8 17                   call L17E8
1D4C CD 67 18                   call L1867
1D4F FE 80                      cp $80
1D51 28 13                      jr z,L1D66
1D53 CD E7 1B                   call L1BE7
1D56 CD 14 18                   call L1814
1D59 FE 03                      cp $03
1D5B 30 09                      jr nc,L1D66
1D5D C6 08                      add a,$08
1D5F 57                         ld d,a
1D60 DD 5E 04                   ld e,(ix+$04)
1D63 CD 43 1C                   call L1C43
1D66 CD 32 18      L1D66:       call L1832
1D69 28 D9                      jr z,L1D44
1D6B C9                         ret
1D6C E5            L1D6C:       push hl
1D6D FD 6E 28                   ld l,(iy+$28)
1D70 FD 66 29                   ld h,(iy+$29)
1D73 01 64 00                   ld bc,$0064
1D76 B7                         or a
1D77 ED 42                      sbc hl,bc
1D79 E5                         push hl
1D7A C1                         pop bc
1D7B E1                         pop hl
1D7C 0B            L1D7C:       dec bc
1D7D 78                         ld a,b
1D7E B1                         or c
1D7F 20 FB                      jr nz,L1D7C
1D81 1B                         dec de
1D82 7A                         ld a,d
1D83 B3                         or e
1D84 20 E6                      jr nz,L1D6C
1D86 C9                         ret
1D87 11 FF FF      L1D87:       ld de,$FFFF
1D8A CD CF 17                   call L17CF
1D8D CD 22 18      L1D8D:       call L1822
1D90 20 12                      jr nz,L1DA4
1D92 D5                         push de
1D93 5E                         ld e,(hl)
1D94 23                         inc hl
1D95 56                         ld d,(hl)
1D96 EB                         ex de,hl
1D97 5E                         ld e,(hl)
1D98 23                         inc hl
1D99 56                         ld d,(hl)
1D9A D5                         push de
1D9B E1                         pop hl
1D9C C1                         pop bc
1D9D B7                         or a
1D9E ED 42                      sbc hl,bc
1DA0 38 02                      jr c,L1DA4
1DA2 C5                         push bc
1DA3 D1                         pop de
1DA4 CD 32 18      L1DA4:       call L1832
1DA7 28 E4                      jr z,L1D8D
1DA9 FD 73 26                   ld (iy+$26),e
1DAC FD 72 27                   ld (iy+$27),d
1DAF C9                         ret
1DB0 01 00 00      L1DB0:       ld bc,$0000
1DB3 C5                         push bc
1DB4 CD D4 17                   call L17D4
1DB7 CD 22 18      L1DB7:       call L1822
1DBA C2 41 1E                   jp nz,L1E41
1DBD CD E8 17                   call L17E8
1DC0 FD E5                      push iy
1DC2 E1                         pop hl
1DC3 01 12 00                   ld bc,$0012
1DC6 09                         add hl,bc
1DC7 06 00                      ld b,$00
1DC9 DD 4E 02                   ld c,(ix+$02)
1DCC CB 21                      sla c
1DCE 09                         add hl,bc
1DCF 5E                         ld e,(hl)
1DD0 23                         inc hl
1DD1 56                         ld d,(hl)
1DD2 EB                         ex de,hl
1DD3 E5                         push hl
1DD4 5E                         ld e,(hl)
1DD5 23                         inc hl
1DD6 56                         ld d,(hl)
1DD7 EB                         ex de,hl
1DD8 FD 5E 26                   ld e,(iy+$26)
1DDB FD 56 27                   ld d,(iy+$27)
1DDE B7                         or a
1DDF ED 52                      sbc hl,de
1DE1 EB                         ex de,hl
1DE2 E1                         pop hl
1DE3 28 05                      jr z,L1DEA
1DE5 73                         ld (hl),e
1DE6 23                         inc hl
1DE7 72                         ld (hl),d
1DE8 18 57                      jr L1E41
1DEA CD 14 18      L1DEA:       call L1814
1DED FE 03                      cp $03
1DEF 30 08                      jr nc,L1DF9
1DF1 C6 08                      add a,$08
1DF3 57                         ld d,a
1DF4 1E 00                      ld e,$00
1DF6 CD 43 1C                   call L1C43
1DF9 DD E5         L1DF9:       push ix
1DFB E1                         pop hl
1DFC 01 21 00                   ld bc,$0021
1DFF 09                         add hl,bc
1E00 35                         dec (hl)
1E01 20 0A                      jr nz,L1E0D
1E03 CD EC 18                   call L18EC
1E06 CD 22 18                   call L1822
1E09 20 36                      jr nz,L1E41
1E0B 18 17                      jr L1E24
1E0D FD E5         L1E0D:       push iy
1E0F E1                         pop hl
1E10 01 12 00                   ld bc,$0012
1E13 09                         add hl,bc
1E14 06 00                      ld b,$00
1E16 DD 4E 02                   ld c,(ix+$02)
1E19 CB 21                      sla c
1E1B 09                         add hl,bc
1E1C 5E                         ld e,(hl)
1E1D 23                         inc hl
1E1E 56                         ld d,(hl)
1E1F 13                         inc de
1E20 13                         inc de
1E21 72                         ld (hl),d
1E22 2B                         dec hl
1E23 73                         ld (hl),e
1E24 CD 67 18      L1E24:       call L1867
1E27 4F                         ld c,a
1E28 CD 22 18                   call L1822
1E2B 20 14                      jr nz,L1E41
1E2D 79                         ld a,c
1E2E FE 80                      cp $80
1E30 28 0F                      jr z,L1E41
1E32 CD E7 1B                   call L1BE7
1E35 C1                         pop bc
1E36 3A AC 5C                   ld a,($5CAC)
1E39 B1                         or c
1E3A 4F                         ld c,a
1E3B 3A AD 5C                   ld a,($5CAD)
1E3E B0                         or b
1E3F 47                         ld b,a
1E40 C5                         push bc
1E41 CD 32 18      L1E41:       call L1832
1E44 CA B7 1D                   jp z,L1DB7
1E47 11 01 00                   ld de,$0001
1E4A CD 6C 1D                   call L1D6C
1E4D CD D4 17                   call L17D4
1E50 C1            L1E50:       pop bc
1E51 CB 38                      srl b
1E53 CB 19                      rr c
1E55 C5                         push bc
1E56 30 13                      jr nc,L1E6B
1E58 CD E8 17                   call L17E8
1E5B CD 14 18                   call L1814
1E5E FE 03                      cp $03
1E60 30 09                      jr nc,L1E6B
1E62 C6 08                      add a,$08
1E64 57                         ld d,a
1E65 DD 5E 04                   ld e,(ix+$04)
1E68 CD 43 1C                   call L1C43
1E6B C1            L1E6B:       pop bc
1E6C 78                         ld a,b
1E6D B1                         or c
1E6E C8                         ret z
1E6F C5                         push bc
1E70 CD 3B 18                   call L183B
1E73 18 DB                      jr L1E50
1E75 BF                         cp a
1E76 0F                         rrca
1E77 DC 0E 07                   call c,L070E
1E7A 0E 3D                      ld c,$3D
1E7C 0D                         dec c
1E7D 7F                         ld a,a
1E7E 0C                         inc c
1E7F CC 0B 22                   call z,L220B
1E82 0B                         dec bc
1E83 82                         add a,d
1E84 0A                         ld a,(bc)
1E85 EB                         ex de,hl
1E86 09                         add hl,bc
1E87 5D                         ld e,l
1E88 09                         add hl,bc
1E89 D6 08                      sub $08
1E8B 57                         ld d,a
1E8C 08                         ex af,af'
1E8D DF                         rst $18
1E8E 07                         rlca
1E8F 6E                         ld l,(hl)
1E90 07                         rlca
1E91 03                         inc bc
1E92 07                         rlca
1E93 9F                         sbc a,a
1E94 06 40                      ld b,$40
1E96 06 E6                      ld b,$E6
1E98 05                         dec b
1E99 91                         sub c
1E9A 05                         dec b
1E9B 41                         ld b,c
1E9C 05                         dec b
1E9D F6 04                      or $04
1E9F AE                         xor (hl)
1EA0 04                         inc b
1EA1 6B                         ld l,e
1EA2 04                         inc b
1EA3 2C                         inc l
1EA4 04                         inc b
1EA5 F0                         ret p
1EA6 03                         inc bc
1EA7 B7                         or a
1EA8 03                         inc bc
1EA9 82                         add a,d
1EAA 03                         inc bc
1EAB 4F                         ld c,a
1EAC 03                         inc bc
1EAD 20 03                      jr nz,L1EB2
1EAF F3                         di
1EB0 02                         ld (bc),a
1EB1 C8                         ret z
1EB2 02            L1EB2:       ld (bc),a
1EB3 A1                         and c
1EB4 02                         ld (bc),a
1EB5 7B                         ld a,e
1EB6 02                         ld (bc),a
1EB7 57                         ld d,a
1EB8 02                         ld (bc),a
1EB9 36 02                      ld (hl),$02
1EBB 16 02                      ld d,$02
1EBD F8                         ret m
1EBE 01 DC 01                   ld bc,$01DC
1EC1 C1                         pop bc
1EC2 01 A8 01                   ld bc,$01A8
1EC5 90                         sub b
1EC6 01 79 01                   ld bc,$0179
1EC9 64                         ld h,h
1ECA 01 50 01                   ld bc,$0150
1ECD 3D                         dec a
1ECE 01 2C 01                   ld bc,$012C
1ED1 1B                         dec de
1ED2 01 0B 01                   ld bc,$010B
1ED5 FC 00 EE                   call m,LEE00
1ED8 00                         nop
1ED9 E0                         ret po
1EDA 00                         nop
1EDB D4 00 C8                   call nc,LC800
1EDE 00                         nop
1EDF BD                         cp l
1EE0 00                         nop
1EE1 B2                         or d
1EE2 00                         nop
1EE3 A8                         xor b
1EE4 00                         nop
1EE5 9F                         sbc a,a
1EE6 00                         nop
1EE7 96                         sub (hl)
1EE8 00                         nop
1EE9 8D                         adc a,l
1EEA 00                         nop
1EEB 85                         add a,l
1EEC 00                         nop
1EED 7E                         ld a,(hl)
1EEE 00                         nop
1EEF 77                         ld (hl),a
1EF0 00                         nop
1EF1 70                         ld (hl),b
1EF2 00                         nop
1EF3 6A                         ld l,d
1EF4 00                         nop
1EF5 64                         ld h,h
1EF6 00                         nop
1EF7 5E                         ld e,(hl)
1EF8 00                         nop
1EF9 59                         ld e,c
1EFA 00                         nop
1EFB 54                         ld d,h
1EFC 00                         nop
1EFD 4F                         ld c,a
1EFE 00                         nop
1EFF 4B                         ld c,e
1F00 00                         nop
1F01 47                         ld b,a
1F02 00                         nop
1F03 43                         ld b,e
1F04 00                         nop
1F05 3F                         ccf
1F06 00                         nop
1F07 3B                         dec sp
1F08 00                         nop
1F09 38 00                      jr c,L1F0B
1F0B 35            L1F0B:       dec (hl)
1F0C 00                         nop
1F0D 32 00 2F                   ld ($2F00),a
1F10 00                         nop
1F11 2D                         dec l
1F12 00                         nop
1F13 2A 00 28                   ld hl,($2800)
1F16 00                         nop
1F17 25                         dec h
1F18 00                         nop
1F19 23                         inc hl
1F1A 00                         nop
1F1B 21 00 1F                   ld hl,$1F00
1F1E 00                         nop
1F1F 1E 00                      ld e,$00
1F21 1C                         inc e
1F22 00                         nop
1F23 1A                         ld a,(de)
1F24 00                         nop
1F25 19                         add hl,de
1F26 00                         nop
1F27 18 00                      jr L1F29
1F29 16 00         L1F29:       ld d,$00
1F2B 15                         dec d
1F2C 00                         nop
1F2D 14                         inc d
1F2E 00                         nop
1F2F 13                         inc de
1F30 00                         nop
1F31 12                         ld (de),a
1F32 00                         nop
1F33 11 00 10                   ld de,$1000
1F36 00                         nop
1F37 0F                         rrca
1F38 00                         nop
1F39 0E 00                      ld c,$00
1F3B 0D                         dec c
1F3C 00                         nop
1F3D 0C                         inc c
1F3E 00                         nop
1F3F 0C                         inc c
1F40 00                         nop
1F41 0B                         dec bc
1F42 00                         nop
1F43 0B                         dec bc
1F44 00                         nop
1F45 0A                         ld a,(bc)
1F46 00                         nop
1F47 09                         add hl,bc
1F48 00                         nop
1F49 09                         add hl,bc
1F4A 00                         nop
1F4B 08                         ex af,af'
1F4C 00                         nop
1F4D 21 66 5B                   ld hl,$5B66
1F50 CB BE                      res 7,(hl)
1F52 CB B6                      res 6,(hl)
1F54 FE 2D                      cp $2D
1F56 20 03                      jr nz,L1F5B
1F58 CB FE                      set 7,(hl)
1F5A F7                         rst $30
1F5B ED 8A 1F 6A   L1F5B:       push $1F6A
1F5F ED 8A 00 7B                push $007B
1F63 ED 8A 2E BC                push $2EBC
1F67 C3 7B 00                   jp L007B
1F6A EF                         rst $28
1F6B ED 8A 1F 7A                push $1F7A
1F6F ED 8A 00 7B                push $007B
1F73 ED 8A 08 E9                push $08E9
1F77 C3 7B 00                   jp L007B
1F7A 28 62                      jr z,L1FDE
1F7C FE B9                      cp $B9
1F7E 28 58                      jr z,L1FD8
1F80 FE B5                      cp $B5
1F82 CA 9A 21                   jp z,L219A
1F85 FE AD                      cp $AD
1F87 CA E2 21                   jp z,L21E2
1F8A ED 8A 1F 99                push $1F99
1F8E ED 8A 00 7B                push $007B
1F92 ED 8A 05 BB                push $05BB
1F96 C3 7B 00                   jp L007B
1F99 EF                         rst $28
1F9A FE B9                      cp $B9
1F9C 20 06                      jr nz,L1FA4
1F9E 21 66 5B                   ld hl,$5B66
1FA1 CB F6                      set 6,(hl)
1FA3 F7                         rst $30
1FA4 CD 49 01      L1FA4:       call L0149
1FA7 ED 8A 1F B6                push $1FB6
1FAB ED 8A 00 7B                push $007B
1FAF ED 8A 38 42                push $3842
1FB3 C3 7B 00                   jp L007B
1FB6 C5                         push bc
1FB7 D5                         push de
1FB8 E1                         pop hl
1FB9 3E 3A                      ld a,$3A
1FBB ED B1                      cpir
1FBD 20 12                      jr nz,L1FD1
1FBF 2B                         dec hl
1FC0 2B                         dec hl
1FC1 7E                         ld a,(hl)
1FC2 E6 DF                      and $DF
1FC4 FE 41                      cp $41
1FC6 38 09                      jr c,L1FD1
1FC8 FE 5B                      cp $5B
1FCA 30 05                      jr nc,L1FD1
1FCC 32 65 5B                   ld ($5B65),a
1FCF 18 04                      jr L1FD5
1FD1 AF            L1FD1:       xor a
1FD2 32 65 5B                   ld ($5B65),a
1FD5 C1            L1FD5:       pop bc
1FD6 18 0F                      jr L1FE7
1FD8 21 66 5B      L1FD8:       ld hl,$5B66
1FDB CB F6                      set 6,(hl)
1FDD F7                         rst $30
1FDE CD 49 01      L1FDE:       call L0149
1FE1 AF                         xor a
1FE2 32 65 5B                   ld ($5B65),a
1FE5 47                         ld b,a
1FE6 4F                         ld c,a
1FE7 79            L1FE7:       ld a,c
1FE8 3D                         dec a
1FE9 3D                         dec a
1FEA B0                         or b
1FEB 20 0F                      jr nz,L1FFC
1FED 13                         inc de
1FEE 1A                         ld a,(de)
1FEF 1B                         dec de
1FF0 FE 3A                      cp $3A
1FF2 20 08                      jr nz,L1FFC
1FF4 1A                         ld a,(de)
1FF5 E6 DF                      and $DF
1FF7 FE 54                      cp $54
1FF9 CA 1F 23                   jp z,L231F
1FFC CD 2D 2C      L1FFC:       call L2C2D
1FFF CD FF 00                   call L00FF
2002 21 00 F7                   ld hl,$F700
2005 11 01 F7                   ld de,$F701
2008 01 0C 00                   ld bc,$000C
200B 70                         ld (hl),b
200C ED B0                      ldir
200E 01 26 40      L200E:       ld bc,$4026
2011 21 66 5B                   ld hl,$5B66
2014 CB 76                      bit 6,(hl)
2016 28 02                      jr z,L201A
2018 0E 27                      ld c,$27
201A 11 00 F7      L201A:       ld de,$F700
201D 21 90 E0                   ld hl,$E090
2020 3E 08                      ld a,$08
2022 DF                         rst $18
2023 1E 01                      ld e,$01
2025 D2 41 20                   jp nc,L2041
2028 3E 7F         L2028:       ld a,$7F
202A DB FE                      in a,($FE)
202C 1F                         rra
202D 30 F9                      jr nc,L2028
202F FD CB 01 AE                res 5,(iy+$01)
2033 22 FF D7                   ld ($D7FF),hl
2036 21 0D F7                   ld hl,$F70D
2039 05                         dec b
203A 78                         ld a,b
203B B7                         or a
203C 20 17                      jr nz,L2055
203E C3 80 21                   jp L2180
2041 FE 17         L2041:       cp $17
2043 CA 80 21                   jp z,L2180
2046 ED 8A 20 55   L2046:       push $2055
204A ED 8A 00 7B                push $007B
204E ED 8A 0D CE                push $0DCE
2052 C3 7B 00                   jp L007B
2055 C5            L2055:       push bc
2056 F5            L2056:       push af
2057 E5                         push hl
2058 EB                         ex de,hl
2059 21 90 E0                   ld hl,$E090
205C 01 27 D8                   ld bc,$D827
205F DD 2A FF D7                ld ix,($D7FF)
2063 DF                         rst $18
2064 B7                         or a
2065 01 30 DE                   ld bc,$DE30
2068 CD BA 00                   call L00BA
206B 10 3C                      djnz L20A9
206D CD E8 00                   call L00E8
2070 ED 8A 20 7F                push $207F
2074 ED 8A 00 7B                push $007B
2078 ED 8A 2B 50                push $2B50
207C C3 7B 00                   jp L007B
207F CD FF 00                   call L00FF
2082 3A 66 5B                   ld a,($5B66)
2085 07                         rlca
2086 30 1F                      jr nc,L20A7
2088 E1                         pop hl
2089 E5                         push hl
208A 06 08                      ld b,$08
208C 7E            L208C:       ld a,(hl)
208D 23                         inc hl
208E E6 7F                      and $7F
2090 CD 52 24                   call L2452
2093 10 F7                      djnz L208C
2095 3E 2E                      ld a,$2E
2097 CD 52 24                   call L2452
209A 06 03                      ld b,$03
209C 7E            L209C:       ld a,(hl)
209D 23                         inc hl
209E E6 7F                      and $7F
20A0 CD 52 24                   call L2452
20A3 10 F7                      djnz L209C
20A5 18 12                      jr L20B9
20A7 21 27 D8      L20A7:       ld hl,$D827
20AA ED 8A 20 B9                push $20B9
20AE ED 8A 00 7B                push $007B
20B2 ED 8A 36 F5                push $36F5
20B6 C3 7B 00                   jp L007B
20B9 CD E8 00      L20B9:       call L00E8
20BC 11 5C 24                   ld de,$245C
20BF CD 3D 01                   call L013D
20C2 CD FF 00                   call L00FF
20C5 E1                         pop hl
20C6 01 07 00                   ld bc,$0007
20C9 09                         add hl,bc
20CA CD BA 00                   call L00BA
20CD AE                         xor (hl)
20CE 3C                         inc a
20CF E5            L20CF:       push hl
20D0 CD E8 00                   call L00E8
20D3 3A 66 5B                   ld a,($5B66)
20D6 CB 77                      bit 6,a
20D8 28 2E                      jr z,L2108
20DA C5                         push bc
20DB 01 08 00                   ld bc,$0008
20DE E7                         rst $20
20DF 3C                         inc a
20E0 20 ED                      jr nz,L20CF
20E2 5B                         ld e,e
20E3 3F                         ccf
20E4 5C                         ld e,h
20E5 ED 4B 74 5C                ld bc,($5C74)
20E9 ED 8A 20 F8                push $20F8
20ED ED 8A 00 7B                push $007B
20F1 ED 8A 37 47                push $3747
20F5 C3 7B 00                   jp L007B
20F8 3E 20                      ld a,$20
20FA E7                         rst $20
20FB 10 00                      djnz L20FD
20FD F1            L20FD:       pop af
20FE 1F                         rra
20FF 38 33                      jr c,L2134
2101 CD BA 00                   call L00BA
2104 20 3C                      jr nz,L2142
2106 18 2C                      jr L2134
2108 CB 18         L2108:       rr b
210A 30 08                      jr nc,L2114
210C 11 6A 24                   ld de,$246A
210F CD 3D 01                   call L013D
2112 18 20                      jr L2134
2114 CD FF 00      L2114:       call L00FF
2117 7E                         ld a,(hl)
2118 23                         inc hl
2119 66                         ld h,(hl)
211A 6F                         ld l,a
211B CD E8 00                   call L00E8
211E 1E 20                      ld e,$20
2120 ED 8A 21 2F                push $212F
2124 ED 8A 00 7B                push $007B
2128 ED 8A 37 14                push $3714
212C C3 7B 00                   jp L007B
212F 3E 4B                      ld a,$4B
2131 E7                         rst $20
2132 10 00                      djnz L2134
2134 3E 0D         L2134:       ld a,$0D
2136 E7                         rst $20
2137 10 00                      djnz L2139
2139 CD FF 00      L2139:       call L00FF
213C E1                         pop hl
213D 23                         inc hl
213E 23                         inc hl
213F F1                         pop af
2140 3D                         dec a
2141 C2 56 20                   jp nz,L2056
2144 C1                         pop bc
2145 78                         ld a,b
2146 D6 3F                      sub $3F
2148 38 10                      jr c,L215A
214A 21 33 FA                   ld hl,$FA33
214D 11 00 F7                   ld de,$F700
2150 01 0B 00                   ld bc,$000B
2153 ED B0                      ldir
2155 EB                         ex de,hl
2156 72                         ld (hl),d
2157 C3 0E 20                   jp L200E
215A CD 50 24      L215A:       call L2450
215D CD 2D 27      L215D:       call L272D
2160 3A 65 5B                   ld a,($5B65)
2163 B7                         or a
2164 20 08                      jr nz,L216E
2166 3E FF                      ld a,$FF
2168 DF                         rst $18
2169 2D                         dec l
216A 01 D2 41                   ld bc,$41D2
216D 20 DF                      jr nz,L214E
216F 21 01 D2                   ld hl,$D201
2172 41                         ld b,c
2173 20 CD                      jr nz,L2142
2175 E8                         ret pe
2176 00                         nop
2177 CD 0B 24                   call L240B
217A 11 6F 24                   ld de,$246F
217D C3 3D 01                   jp L013D
2180 3A 0B F7      L2180:       ld a,($F70B)
2183 A7                         and a
2184 11 75 24                   ld de,$2475
2187 CD E8 00                   call L00E8
218A CC 3D 01                   call z,L013D
218D CD FF 00                   call L00FF
2190 18 CB                      jr L215D
2192 FD CB 01 C6   L2192:       set 0,(iy+$01)
2196 E7                         rst $20
2197 10 0C                      djnz L21A5
2199 C9                         ret
219A F7            L219A:       rst $30
219B CD 49 01                   call L0149
219E CD FF 00                   call L00FF
21A1 06 10                      ld b,$10
21A3 2E 41                      ld l,$41
21A5 C5            L21A5:       push bc
21A6 E5                         push hl
21A7 01 27 D8                   ld bc,$D827
21AA CB FD                      set 7,l
21AC DF                         rst $18
21AD F7                         rst $30
21AE 00                         nop
21AF D2 46 20                   jp nc,L2046
21B2 28 25                      jr z,L21D9
21B4 E1                         pop hl
21B5 E5                         push hl
21B6 7D                         ld a,l
21B7 CD 52 24                   call L2452
21BA 3E 3A                      ld a,$3A
21BC CD 52 24                   call L2452
21BF 3E 20                      ld a,$20
21C1 CD 52 24                   call L2452
21C4 21 27 D8                   ld hl,$D827
21C7 ED 8A 21 D6                push $21D6
21CB ED 8A 00 7B                push $007B
21CF ED 8A 36 F5                push $36F5
21D3 C3 7B 00                   jp L007B
21D6 CD 50 24                   call L2450
21D9 E1            L21D9:       pop hl
21DA C1                         pop bc
21DB 2C                         inc l
21DC 10 C7                      djnz L21A5
21DE CD E8 00                   call L00E8
21E1 C9                         ret
21E2 F7            L21E2:       rst $30
21E3 CD 49 01                   call L0149
21E6 CD FF 00                   call L00FF
21E9 06 10                      ld b,$10
21EB C5            L21EB:       push bc
21EC 3E 10                      ld a,$10
21EE 90                         sub b
21EF 11 00 00                   ld de,$0000
21F2 D5                         push de
21F3 F5                         push af
21F4 4F                         ld c,a
21F5 DF                         rst $18
21F6 B4                         or h
21F7 01 D2 E6                   ld bc,$E6D2
21FA 22 F1 F5                   ld ($F5F1),hl
21FD CD E8 00                   call L00E8
2200 D5                         push de
2201 E5                         push hl
2202 F5                         push af
2203 11 84 24                   ld de,$2484
2206 CD 3D 01                   call L013D
2209 F1                         pop af
220A 6F                         ld l,a
220B 26 00         L220B:       ld h,$00
220D 1E FF                      ld e,$FF
220F ED 8A 22 1E                push $221E
2213 ED 8A 00 7B                push $007B
2217 ED 8A 37 14                push $3714
221B C3 7B 00                   jp L007B
221E 11 8A 24                   ld de,$248A
2221 CD 3D 01                   call L013D
2224 01 11 00                   ld bc,$0011
2227 E7                         rst $20
2228 30 00                      jr nc,L222A
222A DD E5         L222A:       push ix
222C E1                         pop hl
222D D5                         push de
222E 01 10 00                   ld bc,$0010
2231 DF                         rst $18
2232 CC 05 3E                   call z,L3E05
2235 A0                         and b
2236 D1                         pop de
2237 CD 3D 01                   call L013D
223A 11 8C 24                   ld de,$248C
223D CD 3D 01                   call L013D
2240 E1                         pop hl
2241 D1                         pop de
2242 3E FF                      ld a,$FF
2244 CD 15 24                   call L2415
2247 3E 0D                      ld a,$0D
2249 E7                         rst $20
224A 10 00                      djnz L224C
224C CD FF 00      L224C:       call L00FF
224F 01 00 00                   ld bc,$0000
2252 F1            L2252:       pop af
2253 F5                         push af
2254 21 52 F7                   ld hl,$F752
2257 DF                         rst $18
2258 C4 00 D2                   call nz,LD200
225B 12                         ld (de),a
225C 23                         inc hl
225D 3A 62 F7                   ld a,($F762)
2260 FE 00                      cp $00
2262 20 08                      jr nz,L226C
2264 F1                         pop af
2265 D1                         pop de
2266 13                         inc de
2267 D5                         push de
2268 F5                         push af
2269 C3 E0 22                   jp L22E0
226C F1            L226C:       pop af
226D F5                         push af
226E C5                         push bc
226F 6F                         ld l,a
2270 26 00                      ld h,$00
2272 1E FF                      ld e,$FF
2274 CD E8 00                   call L00E8
2277 ED 8A 22 86                push $2286
227B ED 8A 00 7B                push $007B
227F ED 8A 37 14                push $3714
2283 C3 7B 00                   jp L007B
2286 3E 3E                      ld a,$3E
2288 E7                         rst $20
2289 10 00                      djnz L228B
228B CD FF 00      L228B:       call L00FF
228E 21 52 F7                   ld hl,$F752
2291 1E 10                      ld e,$10
2293 7E            L2293:       ld a,(hl)
2294 23                         inc hl
2295 A7                         and a
2296 20 02                      jr nz,L229A
2298 3E 7E                      ld a,$7E
229A CD 52 24      L229A:       call L2452
229D 1D                         dec e
229E 20 F3                      jr nz,L2293
22A0 3A 62 F7                   ld a,($F762)
22A3 C6 03                      add a,$03
22A5 4F                         ld c,a
22A6 2A 69 F7                   ld hl,($F769)
22A9 ED 5B 6B F7                ld de,($F76B)
22AD 23                         inc hl
22AE 7C                         ld a,h
22AF B5                         or l
22B0 20 01                      jr nz,L22B3
22B2 13                         inc de
22B3 CD E8 00      L22B3:       call L00E8
22B6 C5                         push bc
22B7 3E 20                      ld a,$20
22B9 E7                         rst $20
22BA 10 00                      djnz L22BC
22BC CD 13 24      L22BC:       call L2413
22BF 3E 20                      ld a,$20
22C1 E7                         rst $20
22C2 10 00                      djnz L22C4
22C4 C1            L22C4:       pop bc
22C5 11 8E 24                   ld de,$248E
22C8 06 14                      ld b,$14
22CA 0D            L22CA:       dec c
22CB 28 07                      jr z,L22D4
22CD 1A            L22CD:       ld a,(de)
22CE 13                         inc de
22CF 87                         add a,a
22D0 30 FB                      jr nc,L22CD
22D2 10 F6                      djnz L22CA
22D4 CD 3D 01      L22D4:       call L013D
22D7 3E 0D                      ld a,$0D
22D9 E7                         rst $20
22DA 10 00                      djnz L22DC
22DC CD FF 00      L22DC:       call L00FF
22DF C1                         pop bc
22E0 03            L22E0:       inc bc
22E1 78                         ld a,b
22E2 B1                         or c
22E3 C2 52 22                   jp nz,L2252
22E6 F1            L22E6:       pop af
22E7 E1                         pop hl
22E8 7C                         ld a,h
22E9 B5                         or l
22EA 28 1D                      jr z,L2309
22EC 1E FF                      ld e,$FF
22EE CD E8 00                   call L00E8
22F1 ED 8A 23 00                push $2300
22F5 ED 8A 00 7B                push $007B
22F9 ED 8A 37 14                push $3714
22FD C3 7B 00                   jp L007B
2300 11 BA 24                   ld de,$24BA
2303 CD 3D 01                   call L013D
2306 CD FF 00                   call L00FF
2309 C1            L2309:       pop bc
230A 05                         dec b
230B C2 EB 21                   jp nz,L21EB
230E CD E8 00                   call L00E8
2311 C9                         ret
2312 FE 38                      cp $38
2314 28 D0                      jr z,L22E6
2316 FE 16                      cp $16
2318 C2 46 20                   jp nz,L2046
231B F1                         pop af
231C E1                         pop hl
231D 18 EA                      jr L2309
231F 01 11 00      L231F:       ld bc,$0011
2322 E7                         rst $20
2323 30 00                      jr nc,L2325
2325 D5            L2325:       push de
2326 DD E1                      pop ix
2328 3E 0D         L2328:       ld a,$0D
232A E7                         rst $20
232B 10 00                      djnz L232D
232D 3E 7F         L232D:       ld a,$7F
232F DB FE                      in a,($FE)
2331 1F                         rra
2332 38 08                      jr c,L233C
2334 3E FE                      ld a,$FE
2336 DB FE                      in a,($FE)
2338 1F                         rra
2339 38 01                      jr c,L233C
233B C9                         ret
233C 3E 00         L233C:       ld a,$00
233E 11 11 00                   ld de,$0011
2341 37                         scf
2342 DD E5                      push ix
2344 E7                         rst $20
2345 56                         ld d,(hl)
2346 05                         dec b
2347 DD E1                      pop ix
2349 30 E2                      jr nc,L232D
234B DD E5                      push ix
234D 3E 22                      ld a,$22
234F E7                         rst $20
2350 10 00                      djnz L2352
2352 06 0A         L2352:       ld b,$0A
2354 DD 7E 01      L2354:       ld a,(ix+$01)
2357 E7                         rst $20
2358 10 00                      djnz L235A
235A DD 23         L235A:       inc ix
235C 10 F6                      djnz L2354
235E DD E1                      pop ix
2360 3E 22                      ld a,$22
2362 E7                         rst $20
2363 10 00                      djnz L2365
2365 3E 20         L2365:       ld a,$20
2367 E7                         rst $20
2368 10 00                      djnz L236A
236A DD 7E 00      L236A:       ld a,(ix)
236D FE 00                      cp $00
236F 20 2A                      jr nz,L239B
2371 11 60 24                   ld de,$2460
2374 CD 3D 01                   call L013D
2377 DD CB 0E 7E                bit 7,(ix+$0E)
237B 20 AB                      jr nz,L2328
237D 3E 25                      ld a,$25
237F CD 92 21                   call L2192
2382 DD 6E 0D                   ld l,(ix+$0D)
2385 DD 66 0E                   ld h,(ix+$0E)
2388 1E FF                      ld e,$FF
238A ED 8A 23 99                push $2399
238E ED 8A 00 7B                push $007B
2392 ED 8A 37 14                push $3714
2396 C3 7B 00                   jp L007B
2399 18 8D                      jr L2328
239B FE 03         L239B:       cp $03
239D 30 1F                      jr nc,L23BE
239F F5                         push af
23A0 3E 3F                      ld a,$3F
23A2 CD 92 21                   call L2192
23A5 DD 7E 0E                   ld a,(ix+$0E)
23A8 CB BF                      res 7,a
23AA CB F7                      set 6,a
23AC E7                         rst $20
23AD 10 00                      djnz L23AF
23AF 11 66 24      L23AF:       ld de,$2466
23B2 F1                         pop af
23B3 FE 02                      cp $02
23B5 28 01                      jr z,L23B8
23B7 13                         inc de
23B8 CD 3D 01      L23B8:       call L013D
23BB C3 28 23      L23BB:       jp L2328
23BE 20 3A         L23BE:       jr nz,L23FA
23C0 3E 0A                      ld a,$0A
23C2 CD 92 21                   call L2192
23C5 DD 6E 0D                   ld l,(ix+$0D)
23C8 DD 66 0E                   ld h,(ix+$0E)
23CB 1E FF                      ld e,$FF
23CD ED 8A 23 DC                push $23DC
23D1 ED 8A 00 7B                push $007B
23D5 ED 8A 37 14                push $3714
23D9 C3 7B 00                   jp L007B
23DC 3E 2C                      ld a,$2C
23DE E7                         rst $20
23DF 10 00                      djnz L23E1
23E1 DD 6E 0B      L23E1:       ld l,(ix+$0B)
23E4 DD 66 0C                   ld h,(ix+$0C)
23E7 1E FF                      ld e,$FF
23E9 ED 8A 23 F8                push $23F8
23ED ED 8A 00 7B                push $007B
23F1 ED 8A 37 14                push $3714
23F5 C3 7B 00                   jp L007B
23F8 18 C1                      jr L23BB
23FA ED 8A 24 09   L23FA:       push $2409
23FE ED 8A 00 7B                push $007B
2402 ED 8A 1C 8D                push $1C8D
2406 C3 7B 00                   jp L007B
2409 18 B0                      jr L23BB
240B EB            L240B:       ex de,hl
240C 29                         add hl,hl
240D CB 11                      rl c
240F CB 10                      rl b
2411 50                         ld d,b
2412 59                         ld e,c
2413 3E 20         L2413:       ld a,$20
2415 F5            L2415:       push af
2416 01 4B 01                   ld bc,$014B
2419 7A                         ld a,d
241A B3                         or e
241B 28 0A                      jr z,L2427
241D 01 4D 0B                   ld bc,$0B4D
2420 14                         inc d
2421 15                         dec d
2422 28 03                      jr z,L2427
2424 01 47 15                   ld bc,$1547
2427 AF            L2427:       xor a
2428 CB 3A         L2428:       srl d
242A CB 1B                      rr e
242C CB 1C                      rr h
242E CB 1D                      rr l
2430 CE 00                      adc a,$00
2432 10 F4                      djnz L2428
2434 A7                         and a
2435 28 01                      jr z,L2438
2437 23                         inc hl
2438 F1            L2438:       pop af
2439 5F                         ld e,a
243A C5                         push bc
243B ED 8A 24 4A                push $244A
243F ED 8A 00 7B                push $007B
2443 ED 8A 37 14                push $3714
2447 C3 7B 00                   jp L007B
244A C1                         pop bc
244B 79                         ld a,c
244C E7                         rst $20
244D 10 00                      djnz L244F
244F C9            L244F:       ret
2450 3E 0D         L2450:       ld a,$0D
2452 CD E8 00      L2452:       call L00E8
2455 E7                         rst $20
2456 10 00                      djnz L2458
2458 CD FF 00      L2458:       call L00FF
245B C9                         ret
245C 17                         rla
245D 19                         add hl,de
245E 00                         nop
245F A0                         and b
2460 42                         ld b,d
2461 41                         ld b,c
2462 53                         ld d,e
2463 49                         ld c,c
2464 43                         ld b,e
2465 A0                         and b
2466 24                         inc h
2467 28 29                      jr z,L2492
2469 A0                         and b
246A 3C                         inc a
246B 44                         ld b,h
246C 49                         ld c,c
246D 52                         ld d,d
246E BE                         cp (hl)
246F 20 66                      jr nz,L24D7
2471 72                         ld (hl),d
2472 65                         ld h,l
2473 65                         ld h,l
2474 8D                         adc a,l
2475 4E                         ld c,(hl)
2476 6F                         ld l,a
2477 20 66                      jr nz,L24DF
2479 69                         ld l,c
247A 6C                         ld l,h
247B 65                         ld h,l
247C 73                         ld (hl),e
247D 20 66                      jr nz,L24E5
247F 6F                         ld l,a
2480 75                         ld (hl),l
2481 6E                         ld l,(hl)
2482 64                         ld h,h
2483 8D                         adc a,l
2484 0D                         dec c
2485 55                         ld d,l
2486 6E                         ld l,(hl)
2487 69                         ld l,c
2488 74                         ld (hl),h
2489 A0                         and b
248A 3A A0 2C                   ld a,($2CA0)
248D A0                         and b
248E 2A 42 41                   ld hl,($4142)
2491 44                         ld b,h
2492 AA            L2492:       xor d
2493 46                         ld b,(hl)
2494 52                         ld d,d
2495 45                         ld b,l
2496 C5                         push bc
2497 80                         add a,b
2498 73                         ld (hl),e
2499 79                         ld a,c
249A F3                         di
249B 73                         ld (hl),e
249C 77                         ld (hl),a
249D 61                         ld h,c
249E F0                         ret p
249F 64                         ld h,h
24A0 61                         ld h,c
24A1 74                         ld (hl),h
24A2 E1                         pop hl
24A3 80                         add a,b
24A4 80                         add a,b
24A5 80                         add a,b
24A6 80                         add a,b
24A7 80                         add a,b
24A8 80                         add a,b
24A9 80                         add a,b
24AA 80                         add a,b
24AB 80                         add a,b
24AC 80                         add a,b
24AD 80                         add a,b
24AE 80                         add a,b
24AF 46                         ld b,(hl)
24B0 41                         ld b,c
24B1 54                         ld d,h
24B2 31 B6 46                   ld sp,$46B6
24B5 41                         ld b,c
24B6 54                         ld d,h
24B7 33                         inc sp
24B8 B2                         or d
24B9 80                         add a,b
24BA 20 66                      jr nz,L2522
24BC 72                         ld (hl),d
24BD 65                         ld h,l
24BE 65                         ld h,l
24BF 20 70                      jr nz,L2531
24C1 61                         ld h,c
24C2 72                         ld (hl),d
24C3 74                         ld (hl),h
24C4 69                         ld l,c
24C5 74                         ld (hl),h
24C6 69                         ld l,c
24C7 6F                         ld l,a
24C8 6E                         ld l,(hl)
24C9 20 65                      jr nz,L2530
24CB 6E                         ld l,(hl)
24CC 74                         ld (hl),h
24CD 72                         ld (hl),d
24CE 69                         ld l,c
24CF 65                         ld h,l
24D0 73                         ld (hl),e
24D1 0D                         dec c
24D2 8D                         adc a,l
24D3 ED 8A 24 E2                push $24E2
24D7 ED 8A 00 7B   L24D7:       push $007B
24DB ED 8A 13 63                push $1363
24DF C3 7B 00      L24DF:       jp L007B
24E2 21 27 D8                   ld hl,$D827
24E5 CD 05 2C      L24E5:       call L2C05
24E8 3E 10                      ld a,$10
24EA F5                         push af
24EB 18 45                      jr L2532
24ED 3A 5E 5B                   ld a,($5B5E)
24F0 FE E0                      cp $E0
24F2 3E 03                      ld a,$03
24F4 28 01                      jr z,L24F7
24F6 3D                         dec a
24F7 18 24         L24F7:       jr L251D
24F9 ED 8A 25 08                push $2508
24FD ED 8A 00 7B                push $007B
2501 ED 8A 38 23                push $3823
2505 C3 7B 00                   jp L007B
2508 FE 10                      cp $10
250A 38 11                      jr c,L251D
250C 3E 0A                      ld a,$0A
250E ED 8A 25 1D                push $251D
2512 ED 8A 00 7B                push $007B
2516 ED 8A 0D A5                push $0DA5
251A C3 7B 00                   jp L007B
251D F5            L251D:       push af
251E ED 8A 25 2D                push $252D
2522 ED 8A 00 7B   L2522:       push $007B
2526 ED 8A 13 63                push $1363
252A C3 7B 00                   jp L007B
252D F1                         pop af
252E F5                         push af
252F E7                         rst $20
2530 01 16 CD      L2530:       ld bc,$CD16
2533 02                         ld (bc),a
2534 2C                         inc l
2535 F1                         pop af
2536 CD FF 00                   call L00FF
2539 32 FD D7                   ld ($D7FD),a
253C FE 10                      cp $10
253E 30 5E                      jr nc,L259E
2540 21 90 E0                   ld hl,$E090
2543 01 01 00                   ld bc,$0001
2546 11 01 00                   ld de,$0001
2549 DF                         rst $18
254A 06 01                      ld b,$01
254C 30 43                      jr nc,L2591
254E 0E 00                      ld c,$00
2550 51            L2550:       ld d,c
2551 D5                         push de
2552 06 00                      ld b,$00
2554 DF                         rst $18
2555 18 01                      jr L2558
2557 D1                         pop de
2558 38 07         L2558:       jr c,L2561
255A FE 19                      cp $19
255C C2 0C 26                   jp nz,L260C
255F 18 2B                      jr L258C
2561 79            L2561:       ld a,c
2562 FE 1A                      cp $1A
2564 28 26                      jr z,L258C
2566 FE 0D                      cp $0D
2568 28 08                      jr z,L2572
256A FE 0A                      cp $0A
256C 28 29                      jr z,L2597
256E FE 20                      cp $20
2570 38 DE                      jr c,L2550
2572 CD E8 00      L2572:       call L00E8
2575 E7                         rst $20
2576 10 00                      djnz L2578
2578 ED 8A 25 87   L2578:       push $2587
257C ED 8A 00 7B                push $007B
2580 ED 8A 2B 50                push $2B50
2584 C3 7B 00                   jp L007B
2587 CD FF 00                   call L00FF
258A 18 C4                      jr L2550
258C 06 00         L258C:       ld b,$00
258E DF                         rst $18
258F 09                         add hl,bc
2590 01 30 79                   ld bc,$7930
2593 CD E8 00                   call L00E8
2596 C9                         ret
2597 3E 0D         L2597:       ld a,$0D
2599 BA                         cp d
259A 28 B4                      jr z,L2550
259C 18 D4                      jr L2572
259E 3E 0D         L259E:       ld a,$0D
25A0 E7                         rst $20
25A1 10 00                      djnz L25A3
25A3 ED 73 D6 D5   L25A3:       ld ($D5D6),sp
25A7 AF                         xor a
25A8 32 FE D7                   ld ($D7FE),a
25AB 21 27 D8                   ld hl,$D827
25AE CD 37 2C                   call L2C37
25B1 22 25 D8                   ld ($D825),hl
25B4 ED 53 23 D8                ld ($D823),de
25B8 32 22 D8                   ld ($D822),a
25BB CB 57                      bit 2,a
25BD 28 14                      jr z,L25D3
25BF CD E8 00                   call L00E8
25C2 3E 49                      ld a,$49
25C4 ED 8A 25 D3                push $25D3
25C8 ED 8A 00 7B                push $007B
25CC ED 8A 0D A5                push $0DA5
25D0 C3 7B 00                   jp L007B
25D3 21 90 E0      L25D3:       ld hl,$E090
25D6 CD 37 2C                   call L2C37
25D9 22 20 D8                   ld ($D820),hl
25DC ED 53 1E D8                ld ($D81E),de
25E0 32 1D D8                   ld ($D81D),a
25E3 CB 57                      bit 2,a
25E5 20 59                      jr nz,L2640
25E7 CB 5F                      bit 3,a
25E9 20 14                      jr nz,L25FF
25EB CD E8 00                   call L00E8
25EE 3E 2C                      ld a,$2C
25F0 ED 8A 25 FF                push $25FF
25F4 ED 8A 00 7B                push $007B
25F8 ED 8A 0D A5                push $0DA5
25FC C3 7B 00                   jp L007B
25FF 3A 22 D8      L25FF:       ld a,($D822)
2602 CB 5F                      bit 3,a
2604 28 3A                      jr z,L2640
2606 CD 3B 27                   call L273B
2609 C3 04 27                   jp L2704
260C F5            L260C:       push af
260D 06 03                      ld b,$03
260F C5                         push bc
2610 05                         dec b
2611 C5                         push bc
2612 DF                         rst $18
2613 09                         add hl,bc
2614 01 C1 38                   ld bc,$38C1
2617 03                         inc bc
2618 DF                         rst $18
2619 0C                         inc c
261A 01 C1 10                   ld bc,$10C1
261D F1                         pop af
261E 3E 0D                      ld a,$0D
2620 E7                         rst $20
2621 10 00                      djnz L2623
2623 3A FD D7      L2623:       ld a,($D7FD)
2626 87                         add a,a
2627 38 10                      jr c,L2639
2629 F1                         pop af
262A ED 8A 26 39                push $2639
262E ED 8A 00 7B                push $007B
2632 ED 8A 0D CE                push $0DCE
2636 C3 7B 00                   jp L007B
2639 F1            L2639:       pop af
263A ED 7B D6 D5                ld sp,($D5D6)
263E A7                         and a
263F C9                         ret
2640 3A 22 D8      L2640:       ld a,($D822)
2643 CB 5F                      bit 3,a
2645 20 04                      jr nz,L264B
2647 E6 13                      and $13
2649 20 14                      jr nz,L265F
264B CD E8 00      L264B:       call L00E8
264E 3E 4A                      ld a,$4A
2650 ED 8A 26 5F                push $265F
2654 ED 8A 00 7B                push $007B
2658 ED 8A 0D A5                push $0DA5
265C C3 7B 00                   jp L007B
265F 21 90 E0      L265F:       ld hl,$E090
2662 11 31 DA                   ld de,$DA31
2665 7E            L2665:       ld a,(hl)
2666 12                         ld (de),a
2667 23                         inc hl
2668 13                         inc de
2669 3C                         inc a
266A 20 F9                      jr nz,L2665
266C 21 10 D8                   ld hl,$D810
266F AF                         xor a
2670 06 0D                      ld b,$0D
2672 77            L2672:       ld (hl),a
2673 23                         inc hl
2674 10 FC                      djnz L2672
2676 21 10 D8      L2676:       ld hl,$D810
2679 11 03 D8                   ld de,$D803
267C 01 0D 00                   ld bc,$000D
267F ED B0                      ldir
2681 21 31 DA                   ld hl,$DA31
2684 01 02 02                   ld bc,$0202
2687 11 03 D8                   ld de,$D803
268A DF                         rst $18
268B 1E 01                      ld e,$01
268D D2 0C 26                   jp nc,L260C
2690 05                         dec b
2691 E5                         push hl
2692 DD E1                      pop ix
2694 28 66                      jr z,L26FC
2696 21 31 DA                   ld hl,$DA31
2699 11 10 D8                   ld de,$D810
269C ED 4B 20 D8                ld bc,($D820)
26A0 DF                         rst $18
26A1 B7                         or a
26A2 01 D2 0C                   ld bc,$0CD2
26A5 26 3A                      ld h,$3A
26A7 24                         inc h
26A8 D8                         ret c
26A9 DF                         rst $18
26AA 51                         ld d,c
26AB 01 ED 5B                   ld bc,$5BED
26AE 25                         dec h
26AF D8                         ret c
26B0 38 0B                      jr c,L26BD
26B2 2A 20 D8                   ld hl,($D820)
26B5 7E            L26B5:       ld a,(hl)
26B6 ED A0                      ldi
26B8 3C                         inc a
26B9 20 FA                      jr nz,L26B5
26BB 18 1E                      jr L26DB
26BD 21 10 D8      L26BD:       ld hl,$D810
26C0 06 08                      ld b,$08
26C2 CD D6 2B                   call L2BD6
26C5 21 18 D8                   ld hl,$D818
26C8 3E 2E                      ld a,$2E
26CA 12                         ld (de),a
26CB 13                         inc de
26CC 06 03                      ld b,$03
26CE CD D6 2B                   call L2BD6
26D1 1B                         dec de
26D2 1A                         ld a,(de)
26D3 FE 2E                      cp $2E
26D5 28 01                      jr z,L26D8
26D7 13                         inc de
26D8 3E FF         L26D8:       ld a,$FF
26DA 12                         ld (de),a
26DB 3A FD D7      L26DB:       ld a,($D7FD)
26DE 87                         add a,a
26DF 38 15                      jr c,L26F6
26E1 CD E8 00                   call L00E8
26E4 ED 8A 26 F3                push $26F3
26E8 ED 8A 00 7B                push $007B
26EC ED 8A 2B 50                push $2B50
26F0 C3 7B 00                   jp L007B
26F3 CD FF 00                   call L00FF
26F6 CD 3B 27      L26F6:       call L273B
26F9 C3 76 26                   jp L2676
26FC 3A FE D7      L26FC:       ld a,($D7FE)
26FF A7                         and a
2700 3E 17                      ld a,$17
2702 28 9F                      jr z,L26A3
2704 3A FD D7      L2704:       ld a,($D7FD)
2707 87                         add a,a
2708 D8                         ret c
2709 2A FE D7                   ld hl,($D7FE)
270C 26 00                      ld h,$00
270E 1E 20                      ld e,$20
2710 CD E8 00                   call L00E8
2713 ED 8A 27 22                push $2722
2717 ED 8A 00 7B                push $007B
271B ED 8A 37 14                push $3714
271F C3 7B 00                   jp L007B
2722 11 6E 28                   ld de,$286E
2725 CD 3D 01                   call L013D
2728 3E 17                      ld a,$17
272A 32 8C 5C                   ld ($5C8C),a
272D 01 20 02      L272D:       ld bc,$0220
2730 AF                         xor a
2731 11 00 F7                   ld de,$F700
2734 21 90 E0                   ld hl,$E090
2737 DF                         rst $18
2738 1E 01                      ld e,$01
273A C9                         ret
273B 3E FF         L273B:       ld a,$FF
273D 32 8C 5C                   ld ($5C8C),a
2740 3A FD D7                   ld a,($D7FD)
2743 87                         add a,a
2744 38 18                      jr c,L275E
2746 21 90 E0                   ld hl,$E090
2749 ED 8A 27 58                push $2758
274D ED 8A 00 7B                push $007B
2751 ED 8A 36 F5                push $36F5
2755 C3 7B 00                   jp L007B
2758 11 7D 28                   ld de,$287D
275B CD 3D 01                   call L013D
275E 21 90 E0      L275E:       ld hl,$E090
2761 01 01 00                   ld bc,$0001
2764 11 02 00                   ld de,$0002
2767 DF                         rst $18
2768 06 01                      ld b,$01
276A D2 0C 26      L276A:       jp nc,L260C
276D 21 27 D8                   ld hl,$D827
2770 E5                         push hl
2771 3A FD D7                   ld a,($D7FD)
2774 87                         add a,a
2775 38 12                      jr c,L2789
2777 ED 8A 27 86                push $2786
277B ED 8A 00 7B                push $007B
277F ED 8A 36 F5                push $36F5
2783 C3 7B 00                   jp L007B
2786 CD DD 27                   call L27DD
2789 E1            L2789:       pop hl
278A 01 02 01                   ld bc,$0102
278D 11 04 02                   ld de,$0204
2790 DF                         rst $18
2791 06 01                      ld b,$01
2793 30 D5                      jr nc,L276A
2795 CD E9 27                   call L27E9
2798 06 01                      ld b,$01
279A DF                         rst $18
279B 09                         add hl,bc
279C 01 30 CB                   ld bc,$CB30
279F 21 FE D7                   ld hl,$D7FE
27A2 34                         inc (hl)
27A3 21 90 E0                   ld hl,$E090
27A6 DF                         rst $18
27A7 67                         ld h,a
27A8 28 30                      jr z,L27DA
27AA 2D                         dec l
27AB 01 01 00                   ld bc,$0001
27AE 11 02 00                   ld de,$0002
27B1 DF                         rst $18
27B2 06 01                      ld b,$01
27B4 30 22                      jr nc,L27D8
27B6 21 27 D8                   ld hl,$D827
27B9 DF                         rst $18
27BA 67                         ld h,a
27BB 28 06                      jr z,L27C3
27BD 00                         nop
27BE 30 15                      jr nc,L27D5
27C0 DF                         rst $18
27C1 DD 28 06                   jr z,L27C9
27C4 00                         nop
27C5 30 0E                      jr nc,L27D5
27C7 01 02 01                   ld bc,$0102
27CA 11 04 02                   ld de,$0204
27CD DF                         rst $18
27CE 06 01                      ld b,$01
27D0 DC E9 27                   call c,L27E9
27D3 06 01                      ld b,$01
27D5 DF            L27D5:       rst $18
27D6 09                         add hl,bc
27D7 01 3A FD                   ld bc,$FD3A
27DA D7            L27DA:       rst $10
27DB 87                         add a,a
27DC D8                         ret c
27DD 3E 0D         L27DD:       ld a,$0D
27DF CD E8 00                   call L00E8
27E2 E7                         rst $20
27E3 10 00                      djnz L27E5
27E5 CD FF 00      L27E5:       call L00FF
27E8 C9                         ret
27E9 3E 20         L27E9:       ld a,$20
27EB CD E8 00                   call L00E8
27EE E7                         rst $20
27EF 10 00                      djnz L27F1
27F1 CD FF 00      L27F1:       call L00FF
27F4 21 00 00                   ld hl,$0000
27F7 55                         ld d,l
27F8 5D                         ld e,l
27F9 D5            L27F9:       push de
27FA E5                         push hl
27FB 44                         ld b,h
27FC 4D                         ld c,l
27FD CD E8 00                   call L00E8
2800 CD 0B 24                   call L240B
2803 CD FF 00                   call L00FF
2806 01 07 00                   ld bc,$0007
2809 11 00 08                   ld de,$0800
280C D5                         push de
280D 21 00 F7                   ld hl,$F700
2810 DF                         rst $18
2811 12                         ld (de),a
2812 01 38 16                   ld bc,$1638
2815 FE 19                      cp $19
2817 C2 0C 26                   jp nz,L260C
281A D5                         push de
281B 06 00                      ld b,$00
281D DF                         rst $18
281E 09                         add hl,bc
281F 01 D1 E1                   ld bc,$E1D1
2822 D2 9D 27                   jp nc,L279D
2825 B7                         or a
2826 ED 52                      sbc hl,de
2828 EB                         ex de,hl
2829 18 01                      jr L282C
282B D1                         pop de
282C 7B            L282C:       ld a,e
282D B2                         or d
282E 28 26                      jr z,L2856
2830 D5                         push de
2831 21 00 F7                   ld hl,$F700
2834 01 07 01                   ld bc,$0107
2837 DF                         rst $18
2838 15                         dec d
2839 01 D1 30                   ld bc,$30D1
283C E5                         push hl
283D 7B                         ld a,e
283E A7                         and a
283F 20 15                      jr nz,L2856
2841 7A                         ld a,d
2842 FE 08                      cp $08
2844 20 10                      jr nz,L2856
2846 E1                         pop hl
2847 D1                         pop de
2848 CD 5E 28                   call L285E
284B 0E 02                      ld c,$02
284D EB                         ex de,hl
284E 09                         add hl,bc
284F EB                         ex de,hl
2850 0E 00                      ld c,$00
2852 ED 6A                      adc hl,hl
2854 18 A3                      jr L27F9
2856 E1            L2856:       pop hl
2857 D1                         pop de
2858 F5                         push af
2859 CD 5E 28                   call L285E
285C F1                         pop af
285D C9                         ret
285E 06 06         L285E:       ld b,$06
2860 3E 08         L2860:       ld a,$08
2862 CD E8 00                   call L00E8
2865 E7                         rst $20
2866 10 00                      djnz L2868
2868 CD FF 00      L2868:       call L00FF
286B 10 F3                      djnz L2860
286D C9                         ret
286E 20 66                      jr nz,L28D6
2870 69                         ld l,c
2871 6C                         ld l,h
2872 65                         ld h,l
2873 73                         ld (hl),e
2874 20 63                      jr nz,L28D9
2876 6F                         ld l,a
2877 70                         ld (hl),b
2878 69                         ld l,c
2879 65                         ld h,l
287A 64                         ld h,h
287B 0D                         dec c
287C 8D                         adc a,l
287D 20 2D                      jr nz,L28AC
287F 2D                         dec l
2880 3E A0                      ld a,$A0
2882 CD 9A 2B                   call L2B9A
2885 21 90 E0                   ld hl,$E090
2888 E5                         push hl
2889 EB                         ex de,hl
288A ED 8A 28 99                push $2899
288E ED 8A 00 7B                push $007B
2892 ED 8A 2B 1C                push $2B1C
2896 C3 7B 00                   jp L007B
2899 E1                         pop hl
289A E5                         push hl
289B CD FF 00                   call L00FF
289E 3E FF                      ld a,$FF
28A0 12                         ld (de),a
28A1 CD 37 2C                   call L2C37
28A4 CD E8 00                   call L00E8
28A7 CB 5F                      bit 3,a
28A9 CA AC 2B                   jp z,L2BAC
28AC CB 51         L28AC:       bit 2,c
28AE 28 38                      jr z,L28E8
28B0 21 7C 2A                   ld hl,$2A7C
28B3 ED 8A 28 C2                push $28C2
28B7 ED 8A 00 7B                push $007B
28BB ED 8A 37 B9                push $37B9
28BF C3 7B 00                   jp L007B
28C2 E1                         pop hl
28C3 E5                         push hl
28C4 CD FF 00                   call L00FF
28C7 ED 8A 28 D6                push $28D6
28CB ED 8A 00 7B                push $007B
28CF ED 8A 36 F5                push $36F5
28D3 C3 7B 00                   jp L007B
28D6 CD E8 00      L28D6:       call L00E8
28D9 ED 8A 28 E8   L28D9:       push $28E8
28DD ED 8A 00 7B                push $007B
28E1 ED 8A 2B 6F                push $2B6F
28E5 C3 7B 00                   jp L007B
28E8 E1            L28E8:       pop hl
28E9 C0                         ret nz
28EA CD FF 00                   call L00FF
28ED DF                         rst $18
28EE 24                         inc h
28EF 01 18 76                   ld bc,$7618
28F2 CD 9A 2B                   call L2B9A
28F5 1A                         ld a,(de)
28F6 FE 2B                      cp $2B
28F8 CA 86 29                   jp z,L2986
28FB FE 2D                      cp $2D
28FD CA 86 29                   jp z,L2986
2900 21 90 E0                   ld hl,$E090
2903 E5                         push hl
2904 EB                         ex de,hl
2905 ED 8A 29 14                push $2914
2909 ED 8A 00 7B                push $007B
290D ED 8A 2B 1C                push $2B1C
2911 C3 7B 00                   jp L007B
2914 CD FF 00                   call L00FF
2917 3E FF                      ld a,$FF
2919 12                         ld (de),a
291A CD E8 00                   call L00E8
291D CD 9A 2B                   call L2B9A
2920 21 27 D8                   ld hl,$D827
2923 E5                         push hl
2924 EB                         ex de,hl
2925 ED 8A 29 34                push $2934
2929 ED 8A 00 7B                push $007B
292D ED 8A 2B 1C                push $2B1C
2931 C3 7B 00                   jp L007B
2934 CD FF 00                   call L00FF
2937 3E FF                      ld a,$FF
2939 12                         ld (de),a
293A CD E8 00                   call L00E8
293D E1                         pop hl
293E D1                         pop de
293F CD FF 00                   call L00FF
2942 DF                         rst $18
2943 27                         daa
2944 01 18 21                   ld bc,$2118
2947 CD 0E 2A                   call L2A0E
294A 7A                         ld a,d
294B F5                         push af
294C 30 0E                      jr nc,L295C
294E 21 52 F7                   ld hl,$F752
2951 CD FF 00                   call L00FF
2954 DF                         rst $18
2955 B5                         or l
2956 00                         nop
2957 30 0F                      jr nc,L2968
2959 CD E8 00                   call L00E8
295C C5            L295C:       push bc
295D CD E2 2B                   call L2BE2
2960 C1                         pop bc
2961 F1                         pop af
2962 CD FF 00                   call L00FF
2965 DF                         rst $18
2966 F1                         pop af
2967 00                         nop
2968 CD E8 00      L2968:       call L00E8
296B D8                         ret c
296C ED 8A 29 7B                push $297B
2970 ED 8A 00 7B                push $007B
2974 ED 8A 0D CA                push $0DCA
2978 C3 7B 00                   jp L007B
297B CD E2 2B                   call L2BE2
297E CD FF 00                   call L00FF
2981 DF                         rst $18
2982 F4 00 18                   call p,L1800
2985 E2 79 3D                   jp po,L3D79
2988 3D                         dec a
2989 B0                         or b
298A 28 11                      jr z,L299D
298C 3E 47                      ld a,$47
298E ED 8A 29 9D                push $299D
2992 ED 8A 00 7B                push $007B
2996 ED 8A 0D A5                push $0DA5
299A C3 7B 00                   jp L007B
299D 1A            L299D:       ld a,(de)
299E 47                         ld b,a
299F 13                         inc de
29A0 1A                         ld a,(de)
29A1 E6 DF                      and $DF
29A3 FE 50                      cp $50
29A5 28 19                      jr z,L29C0
29A7 FE 53                      cp $53
29A9 28 15                      jr z,L29C0
29AB FE 41                      cp $41
29AD 28 11                      jr z,L29C0
29AF 3E 47                      ld a,$47
29B1 ED 8A 29 C0                push $29C0
29B5 ED 8A 00 7B                push $007B
29B9 ED 8A 0D A5                push $0DA5
29BD C3 7B 00                   jp L007B
29C0 C5            L29C0:       push bc
29C1 F5                         push af
29C2 CD 9A 2B                   call L2B9A
29C5 21 00 F7                   ld hl,$F700
29C8 EB                         ex de,hl
29C9 ED 8A 29 D8                push $29D8
29CD ED 8A 00 7B                push $007B
29D1 ED 8A 2B 1C                push $2B1C
29D5 C3 7B 00                   jp L007B
29D8 CD FF 00                   call L00FF
29DB 3E FF                      ld a,$FF
29DD 12                         ld (de),a
29DE CD E8 00                   call L00E8
29E1 11 00 00                   ld de,$0000
29E4 0E 00                      ld c,$00
29E6 F1                         pop af
29E7 FE 50                      cp $50
29E9 20 04                      jr nz,L29EF
29EB CB D1                      set 2,c
29ED 18 0A                      jr L29F9
29EF FE 53         L29EF:       cp $53
29F1 20 04                      jr nz,L29F7
29F3 CB C9                      set 1,c
29F5 18 02                      jr L29F9
29F7 CB C1         L29F7:       set 0,c
29F9 F1            L29F9:       pop af
29FA FE 2B                      cp $2B
29FC 20 03                      jr nz,L2A01
29FE 51                         ld d,c
29FF 18 01                      jr L2A02
2A01 59            L2A01:       ld e,c
2A02 21 00 F7      L2A02:       ld hl,$F700
2A05 CD FF 00                   call L00FF
2A08 DF                         rst $18
2A09 48                         ld c,b
2A0A 01 C3 68                   ld bc,$68C3
2A0D 29                         add hl,hl
2A0E ED 8A 2A 1D   L2A0E:       push $2A1D
2A12 ED 8A 00 7B                push $007B
2A16 ED 8A 38 42                push $3842
2A1A C3 7B 00                   jp L007B
2A1D 78                         ld a,b
2A1E A7                         and a
2A1F 20 05                      jr nz,L2A26
2A21 79                         ld a,c
2A22 FE 02                      cp $02
2A24 30 11                      jr nc,L2A37
2A26 3E 2C         L2A26:       ld a,$2C
2A28 ED 8A 2A 37                push $2A37
2A2C ED 8A 00 7B                push $007B
2A30 ED 8A 0D A5                push $0DA5
2A34 C3 7B 00                   jp L007B
2A37 C5            L2A37:       push bc
2A38 D5                         push de
2A39 EB                         ex de,hl
2A3A 1E 00                      ld e,$00
2A3C CD B8 2A                   call L2AB8
2A3F 38 48                      jr c,L2A89
2A41 CD B8 2A                   call L2AB8
2A44 53                         ld d,e
2A45 79                         ld a,c
2A46 A7                         and a
2A47 28 40                      jr z,L2A89
2A49 7E                         ld a,(hl)
2A4A 23                         inc hl
2A4B 0B                         dec bc
2A4C FE 3E                      cp $3E
2A4E 20 39                      jr nz,L2A89
2A50 F1                         pop af
2A51 F1                         pop af
2A52 79                         ld a,c
2A53 A7                         and a
2A54 C8                         ret z
2A55 FE 11                      cp $11
2A57 30 CD                      jr nc,L2A26
2A59 D5                         push de
2A5A C5                         push bc
2A5B 11 52 F7                   ld de,$F752
2A5E ED 8A 2A 6D                push $2A6D
2A62 ED 8A 00 7B                push $007B
2A66 ED 8A 2B 1C                push $2B1C
2A6A C3 7B 00                   jp L007B
2A6D C1                         pop bc
2A6E 3E 10                      ld a,$10
2A70 91                         sub c
2A71 28 13                      jr z,L2A86
2A73 21 A8 3F                   ld hl,$3FA8
2A76 4F                         ld c,a
2A77 ED 8A 2A 86                push $2A86
2A7B ED 8A 00 7B                push $007B
2A7F ED 8A 2B 1C                push $2B1C
2A83 C3 7B 00                   jp L007B
2A86 37            L2A86:       scf
2A87 D1                         pop de
2A88 C9                         ret
2A89 E1            L2A89:       pop hl
2A8A C1                         pop bc
2A8B 11 27 D8                   ld de,$D827
2A8E D5                         push de
2A8F ED 8A 2A 9E                push $2A9E
2A93 ED 8A 00 7B                push $007B
2A97 ED 8A 2B 1C                push $2B1C
2A9B C3 7B 00                   jp L007B
2A9E 21 04 00                   ld hl,$0004
2AA1 01 01 00                   ld bc,$0001
2AA4 ED 8A 2A B3                push $2AB3
2AA8 ED 8A 00 7B                push $007B
2AAC ED 8A 2B 1C                push $2B1C
2AB0 C3 7B 00                   jp L007B
2AB3 C1                         pop bc
2AB4 16 FF                      ld d,$FF
2AB6 A7                         and a
2AB7 C9                         ret
2AB8 7E            L2AB8:       ld a,(hl)
2AB9 D6 30                      sub $30
2ABB D8                         ret c
2ABC 16 0A                      ld d,$0A
2ABE BA                         cp d
2ABF 3F                         ccf
2AC0 D8                         ret c
2AC1 23                         inc hl
2AC2 0B                         dec bc
2AC3 ED 30                      mul d,e
2AC5 ED 32                      add de,a
2AC7 A7                         and a
2AC8 C9                         ret
2AC9 EB            L2AC9:       ex de,hl
2ACA 36 FF                      ld (hl),$FF
2ACC 21 00 F7                   ld hl,$F700
2ACF E5                         push hl
2AD0 DF                         rst $18
2AD1 B1                         or c
2AD2 01 E1 C9                   ld bc,$C9E1
2AD5 CD BD 2B                   call L2BBD
2AD8 CD FF 00                   call L00FF
2ADB 3E FF                      ld a,$FF
2ADD 12                         ld (de),a
2ADE DF                         rst $18
2ADF 06 05                      ld b,$05
2AE1 30 05                      jr nc,L2AE8
2AE3 3E FF                      ld a,$FF
2AE5 DF                         rst $18
2AE6 E0                         ret po
2AE7 1B                         dec de
2AE8 C3 68 29      L2AE8:       jp L2968
2AEB CD BD 2B                   call L2BBD
2AEE 3E 02                      ld a,$02
2AF0 CD FF 00      L2AF0:       call L00FF
2AF3 CD C9 2A                   call L2AC9
2AF6 18 F0                      jr L2AE8
2AF8 CD BD 2B                   call L2BBD
2AFB 3E 03                      ld a,$03
2AFD 18 F1                      jr L2AF0
2AFF ED 8A 2B 0E                push $2B0E
2B03 ED 8A 00 7B                push $007B
2B07 ED 8A 2E BC                push $2EBC
2B0B C3 7B 00                   jp L007B
2B0E EF                         rst $28
2B0F CD 49 01                   call L0149
2B12 CD FF 00                   call L00FF
2B15 3E 01                      ld a,$01
2B17 11 00 F7                   ld de,$F700
2B1A CD C9 2A                   call L2AC9
2B1D 30 C9                      jr nc,L2AE8
2B1F ED 8A 2B 2E                push $2B2E
2B23 ED 8A 00 7B                push $007B
2B27 ED 8A 36 F5                push $36F5
2B2B C3 7B 00                   jp L007B
2B2E CD DD 27                   call L27DD
2B31 37                         scf
2B32 18 B4                      jr L2AE8
2B34 FE CA                      cp $CA
2B36 28 27                      jr z,L2B5F
2B38 FE E0                      cp $E0
2B3A 28 36                      jr z,L2B72
2B3C ED 8A 2B 4B                push $2B4B
2B40 ED 8A 00 7B                push $007B
2B44 ED 8A 05 BB                push $05BB
2B48 C3 7B 00                   jp L007B
2B4B CD 49 01                   call L0149
2B4E 3E 52                      ld a,$52
2B50 ED 8A 2B 5F                push $2B5F
2B54 ED 8A 00 7B                push $007B
2B58 ED 8A 0D A5                push $0DA5
2B5C C3 7B 00                   jp L007B
2B5F ED 8A 2B 6E   L2B5F:       push $2B6E
2B63 ED 8A 00 7B                push $007B
2B67 ED 8A 06 34                push $0634
2B6B C3 7B 00                   jp L007B
2B6E CD 49 01                   call L0149
2B71 C9                         ret
2B72 ED 8A 2B 81   L2B72:       push $2B81
2B76 ED 8A 00 7B                push $007B
2B7A ED 8A 05 BA                push $05BA
2B7E C3 7B 00                   jp L007B
2B81 EF                         rst $28
2B82 FE 3B                      cp $3B
2B84 20 10                      jr nz,L2B96
2B86 F7                         rst $30
2B87 ED 8A 2B 96                push $2B96
2B8B ED 8A 00 7B                push $007B
2B8F ED 8A 05 BB                push $05BB
2B93 C3 7B 00                   jp L007B
2B96 CD 49 01      L2B96:       call L0149
2B99 C9                         ret
2B9A ED 8A 2B A9   L2B9A:       push $2BA9
2B9E ED 8A 00 7B                push $007B
2BA2 ED 8A 38 42                push $3842
2BA6 C3 7B 00                   jp L007B
2BA9 78                         ld a,b
2BAA B1                         or c
2BAB C0                         ret nz
2BAC 3E 2C         L2BAC:       ld a,$2C
2BAE ED 8A 2B BD                push $2BBD
2BB2 ED 8A 00 7B                push $007B
2BB6 ED 8A 0D A5                push $0DA5
2BBA C3 7B 00                   jp L007B
2BBD CD 9A 2B      L2BBD:       call L2B9A
2BC0 21 00 F7                   ld hl,$F700
2BC3 E5                         push hl
2BC4 EB                         ex de,hl
2BC5 ED 8A 2B D4                push $2BD4
2BC9 ED 8A 00 7B                push $007B
2BCD ED 8A 2B 1C                push $2B1C
2BD1 C3 7B 00                   jp L007B
2BD4 E1                         pop hl
2BD5 C9                         ret
2BD6 7E            L2BD6:       ld a,(hl)
2BD7 FE 20                      cp $20
2BD9 C8                         ret z
2BDA E6 7F                      and $7F
2BDC 12                         ld (de),a
2BDD 23                         inc hl
2BDE 13                         inc de
2BDF 10 F5                      djnz L2BD6
2BE1 C9                         ret
2BE2 CD 02 2C      L2BE2:       call L2C02
2BE5 CD FF 00                   call L00FF
2BE8 CD 37 2C                   call L2C37
2BEB CD E8 00                   call L00E8
2BEE 6A                         ld l,d
2BEF 3D                         dec a
2BF0 C8                         ret z
2BF1 3E 4E                      ld a,$4E
2BF3 ED 8A 2C 02                push $2C02
2BF7 ED 8A 00 7B                push $007B
2BFB ED 8A 0D A5                push $0DA5
2BFF C3 7B 00                   jp L007B
2C02 21 90 E0      L2C02:       ld hl,$E090
2C05 E5            L2C05:       push hl
2C06 CD 9A 2B                   call L2B9A
2C09 E1                         pop hl
2C0A 78            L2C0A:       ld a,b
2C0B A7                         and a
2C0C 28 03                      jr z,L2C11
2C0E 01 FF 00                   ld bc,$00FF
2C11 EB            L2C11:       ex de,hl
2C12 D5                         push de
2C13 ED 8A 2C 22                push $2C22
2C17 ED 8A 00 7B                push $007B
2C1B ED 8A 2B 1C                push $2B1C
2C1F C3 7B 00                   jp L007B
2C22 E1                         pop hl
2C23 CD FF 00      L2C23:       call L00FF
2C26 3E FF                      ld a,$FF
2C28 12                         ld (de),a
2C29 CD E8 00                   call L00E8
2C2C C9                         ret
2C2D 21 90 E0      L2C2D:       ld hl,$E090
2C30 78                         ld a,b
2C31 B1                         or c
2C32 20 D6                      jr nz,L2C0A
2C34 EB                         ex de,hl
2C35 18 EC                      jr L2C23
2C37 E5            L2C37:       push hl
2C38 3E FF                      ld a,$FF
2C3A DF                         rst $18
2C3B 2D                         dec l
2C3C 01 57 D5                   ld bc,$D557
2C3F 3E FF                      ld a,$FF
2C41 DF                         rst $18
2C42 30 01                      jr nc,L2C45
2C44 D1                         pop de
2C45 5F            L2C45:       ld e,a
2C46 E1                         pop hl
2C47 0E 00                      ld c,$00
2C49 E5                         push hl
2C4A 7E                         ld a,(hl)
2C4B FE 30                      cp $30
2C4D 38 28                      jr c,L2C77
2C4F FE 3A                      cp $3A
2C51 30 24                      jr nc,L2C77
2C53 D6 30                      sub $30
2C55 5F                         ld e,a
2C56 CB C9                      set 1,c
2C58 23                         inc hl
2C59 7E                         ld a,(hl)
2C5A FE 30                      cp $30
2C5C 38 15                      jr c,L2C73
2C5E FE 3A                      cp $3A
2C60 30 11                      jr nc,L2C73
2C62 D6 30                      sub $30
2C64 57                         ld d,a
2C65 7B                         ld a,e
2C66 87                         add a,a
2C67 87                         add a,a
2C68 87                         add a,a
2C69 83                         add a,e
2C6A 83                         add a,e
2C6B 82                         add a,d
2C6C 5F                         ld e,a
2C6D FE 10                      cp $10
2C6F 30 1E                      jr nc,L2C8F
2C71 23                         inc hl
2C72 7E                         ld a,(hl)
2C73 FE 3A         L2C73:       cp $3A
2C75 28 13                      jr z,L2C8A
2C77 E6 DF         L2C77:       and $DF
2C79 FE 41                      cp $41
2C7B 38 12                      jr c,L2C8F
2C7D FE 51                      cp $51
2C7F 30 0E                      jr nc,L2C8F
2C81 57                         ld d,a
2C82 CB C1                      set 0,c
2C84 23                         inc hl
2C85 7E                         ld a,(hl)
2C86 FE 3A                      cp $3A
2C88 20 05                      jr nz,L2C8F
2C8A 23            L2C8A:       inc hl
2C8B F1                         pop af
2C8C E5                         push hl
2C8D 18 04                      jr L2C93
2C8F 0E 00         L2C8F:       ld c,$00
2C91 E1                         pop hl
2C92 E5                         push hl
2C93 7E            L2C93:       ld a,(hl)
2C94 23                         inc hl
2C95 FE FF                      cp $FF
2C97 28 22                      jr z,L2CBB
2C99 CB D9                      set 3,c
2C9B FE 2F                      cp $2F
2C9D 28 10                      jr z,L2CAF
2C9F FE 5C                      cp $5C
2CA1 28 0C                      jr z,L2CAF
2CA3 FE 2A                      cp $2A
2CA5 28 04                      jr z,L2CAB
2CA7 FE 3F                      cp $3F
2CA9 20 E8                      jr nz,L2C93
2CAB CB D1         L2CAB:       set 2,c
2CAD 18 E4                      jr L2C93
2CAF CB 51         L2CAF:       bit 2,c
2CB1 20 0B                      jr nz,L2CBE
2CB3 CB 99                      res 3,c
2CB5 CB E1                      set 4,c
2CB7 F1                         pop af
2CB8 E5                         push hl
2CB9 18 D8                      jr L2C93
2CBB E1            L2CBB:       pop hl
2CBC 79                         ld a,c
2CBD C9                         ret
2CBE CD E8 00      L2CBE:       call L00E8
2CC1 3E 2C                      ld a,$2C
2CC3 ED 8A 2C D2                push $2CD2
2CC7 ED 8A 00 7B                push $007B
2CCB ED 8A 0D A5                push $0DA5
2CCF C3 7B 00                   jp L007B
2CD2 79            L2CD2:       ld a,c
2CD3 83                         add a,e
2CD4 38 21                      jr c,L2CF7
2CD6 FD CB 45 4E                bit 1,(iy+$45)
2CDA 20 04                      jr nz,L2CE0
2CDC FE 80                      cp $80
2CDE 30 17                      jr nc,L2CF7
2CE0 78            L2CE0:       ld a,b
2CE1 A7                         and a
2CE2 CA 1F 12                   jp z,L121F
2CE5 3D                         dec a
2CE6 82                         add a,d
2CE7 38 0E                      jr c,L2CF7
2CE9 FE C0                      cp $C0
2CEB 30 0A                      jr nc,L2CF7
2CED FD CB 45 4E                bit 1,(iy+$45)
2CF1 20 18                      jr nz,L2D0B
2CF3 FE 60                      cp $60
2CF5 38 14                      jr c,L2D0B
2CF7 CD EC 00      L2CF7:       call L00EC
2CFA 3E 04                      ld a,$04
2CFC ED 8A 2D 0B                push $2D0B
2D00 ED 8A 00 7B                push $007B
2D04 ED 8A 0D A5                push $0DA5
2D08 C3 7B 00                   jp L007B
2D0B FD CB 45 4E   L2D0B:       bit 1,(iy+$45)
2D0F 28 22                      jr z,L2D33
2D11 7A                         ld a,d
2D12 E6 C0                      and $C0
2D14 47                         ld b,a
2D15 CB BA                      res 7,d
2D17 CB B2                      res 6,d
2D19 3A 7B 5B                   ld a,($5B7B)
2D1C E6 3F                      and $3F
2D1E B0                         or b
2D1F F6 09                      or $09
2D21 FE C0         L2D21:       cp $C0
2D23 38 02                      jr c,L2D27
2D25 E6 3F                      and $3F
2D27 32 7B 5B      L2D27:       ld ($5B7B),a
2D2A 01 3B 12                   ld bc,$123B
2D2D ED 79                      out (c),a
2D2F 01 FF 40                   ld bc,$40FF
2D32 C9                         ret
2D33 CB 3A         L2D33:       srl d
2D35 30 02                      jr nc,L2D39
2D37 CB FB                      set 7,e
2D39 CB F2         L2D39:       set 6,d
2D3B 01 7F 58                   ld bc,$587F
2D3E 7A                         ld a,d
2D3F B8                         cp b
2D40 38 05                      jr c,L2D47
2D42 C6 08                      add a,$08
2D44 57                         ld d,a
2D45 06 78                      ld b,$78
2D47 3E 0B         L2D47:       ld a,$0B
2D49 ED 92 53      L2D49:       nextreg $53,a
2D4C C9                         ret
2D4D 3E 11         L2D4D:       ld a,$11
2D4F 18 F8                      jr L2D49
2D51 16 00         L2D51:       ld d,$00
2D53 59                         ld e,c
2D54 13                         inc de
2D55 19                         add hl,de
2D56 EB                         ex de,hl
2D57 7A                         ld a,d
2D58 B8                         cp b
2D59 D8                         ret c
2D5A CB 79                      bit 7,c
2D5C 28 09                      jr z,L2D67
2D5E CB B2         L2D5E:       res 6,d
2D60 3A 7B 5B                   ld a,($5B7B)
2D63 C6 40                      add a,$40
2D65 18 BA                      jr L2D21
2D67 7A            L2D67:       ld a,d
2D68 C6 08                      add a,$08
2D6A 57                         ld d,a
2D6B 06 78                      ld b,$78
2D6D C9                         ret
2D6E 0C            L2D6E:       inc c
2D6F 20 DC                      jr nz,L2D4D
2D71 3A 7B 5B                   ld a,($5B7B)
2D74 E6 02                      and $02
2D76 18 A9                      jr L2D21
2D78 3A 7F 5C      L2D78:       ld a,($5C7F)
2D7B E6 0F                      and $0F
2D7D C8                         ret z
2D7E FE 03                      cp $03
2D80 D8                         ret c
2D81 CB 3F                      srl a
2D83 CB 3F                      srl a
2D85 3D                         dec a
2D86 C9                         ret
2D87 21 66 5B                   ld hl,$5B66
2D8A CB 4E                      bit 1,(hl)
2D8C C8                         ret z
2D8D CB 8E                      res 1,(hl)
2D8F 2A 3D 5C                   ld hl,($5C3D)
2D92 23                         inc hl
2D93 23                         inc hl
2D94 23            L2D94:       inc hl
2D95 7E            L2D95:       ld a,(hl)
2D96 FE 01                      cp $01
2D98 28 1B                      jr z,L2DB5
2D9A 38 0B                      jr c,L2DA7
2D9C FE 3E                      cp $3E
2D9E C8                         ret z
2D9F 38 0E                      jr c,L2DAF
2DA1 CB B7                      res 6,a
2DA3 ED 31                      add hl,a
2DA5 18 EE                      jr L2D95
2DA7 23            L2DA7:       inc hl
2DA8 4E                         ld c,(hl)
2DA9 23                         inc hl
2DAA 46                         ld b,(hl)
2DAB 23                         inc hl
2DAC 09                         add hl,bc
2DAD 18 E5                      jr L2D94
2DAF ED 34 0B 00   L2DAF:       add hl,$000B
2DB3 18 E0                      jr L2D95
2DB5 2B            L2DB5:       dec hl
2DB6 7E                         ld a,(hl)
2DB7 23                         inc hl
2DB8 A7                         and a
2DB9 20 EC                      jr nz,L2DA7
2DBB 23                         inc hl
2DBC 4E                         ld c,(hl)
2DBD 23                         inc hl
2DBE 46                         ld b,(hl)
2DBF 23                         inc hl
2DC0 09                         add hl,bc
2DC1 ED 8A 2D D0                push $2DD0
2DC5 ED 8A 00 7B                push $007B
2DC9 ED 8A 3B AA                push $3BAA
2DCD C3 7B 00                   jp L007B
2DD0 E5                         push hl
2DD1 ED 34 F8 FF                add hl,$FFF8
2DD5 7E                         ld a,(hl)
2DD6 FE FE                      cp $FE
2DD8 28 42                      jr z,L2E1C
2DDA 23                         inc hl
2DDB E5                         push hl
2DDC 5E                         ld e,(hl)
2DDD 23                         inc hl
2DDE 56                         ld d,(hl)
2DDF 32 65 5B                   ld ($5B65),a
2DE2 3C                         inc a
2DE3 28 11                      jr z,L2DF6
2DE5 3D                         dec a
2DE6 CD FF 00                   call L00FF
2DE9 87                         add a,a
2DEA ED 92 56                   nextreg $56,a
2DED 3C                         inc a
2DEE ED 92 57                   nextreg $57,a
2DF1 21 02 C0                   ld hl,$C002
2DF4 18 06                      jr L2DFC
2DF6 2A 53 5C      L2DF6:       ld hl,($5C53)
2DF9 EB                         ex de,hl
2DFA 19                         add hl,de
2DFB EB                         ex de,hl
2DFC 46            L2DFC:       ld b,(hl)
2DFD 23                         inc hl
2DFE 4E                         ld c,(hl)
2DFF 23                         inc hl
2E00 C5                         push bc
2E01 4E                         ld c,(hl)
2E02 23                         inc hl
2E03 46                         ld b,(hl)
2E04 23                         inc hl
2E05 E5                         push hl
2E06 09                         add hl,bc
2E07 ED 52                      sbc hl,de
2E09 E1                         pop hl
2E0A 30 04                      jr nc,L2E10
2E0C 09                         add hl,bc
2E0D C1                         pop bc
2E0E 18 EC                      jr L2DFC
2E10 C1            L2E10:       pop bc
2E11 3A 65 5B                   ld a,($5B65)
2E14 3C                         inc a
2E15 C4 E8 00                   call nz,L00E8
2E18 E1                         pop hl
2E19 71                         ld (hl),c
2E1A 23                         inc hl
2E1B 70                         ld (hl),b
2E1C E1            L2E1C:       pop hl
2E1D C3 94 2D                   jp L2D94
2E20 21 66 5B                   ld hl,$5B66
2E23 CB CE                      set 1,(hl)
2E25 ED 8A 2E 34                push $2E34
2E29 ED 8A 00 7B                push $007B
2E2D ED 8A 3A 10                push $3A10
2E31 C3 7B 00                   jp L007B
2E34 EB                         ex de,hl
2E35 2A 5D 5C                   ld hl,($5C5D)
2E38 A7                         and a
2E39 ED 52                      sbc hl,de
2E3B E5                         push hl
2E3C 2A 45 5C                   ld hl,($5C45)
2E3F E5                         push hl
2E40 3A 77 5B                   ld a,($5B77)
2E43 F5                         push af
2E44 2A 3D 5C                   ld hl,($5C3D)
2E47 23                         inc hl
2E48 23                         inc hl
2E49 23            L2E49:       inc hl
2E4A 7E            L2E4A:       ld a,(hl)
2E4B FE 01                      cp $01
2E4D 28 68                      jr z,L2EB7
2E4F 38 5E                      jr c,L2EAF
2E51 FE 3E                      cp $3E
2E53 28 0E                      jr z,L2E63
2E55 DA D2 2F                   jp c,L2FD2
2E58 FE 4B                      cp $4B
2E5A CA D2 2F                   jp z,L2FD2
2E5D CB B7                      res 6,a
2E5F ED 31                      add hl,a
2E61 18 E7                      jr L2E4A
2E63 F1            L2E63:       pop af
2E64 FE FE                      cp $FE
2E66 20 01                      jr nz,L2E69
2E68 3C                         inc a
2E69 ED 8A 2E 78   L2E69:       push $2E78
2E6D ED 8A 00 7B                push $007B
2E71 ED 8A 38 D4                push $38D4
2E75 C3 7B 00                   jp L007B
2E78 C1                         pop bc
2E79 ED 8A 2E 88                push $2E88
2E7D ED 8A 00 7B                push $007B
2E81 ED 8A 39 62                push $3962
2E85 C3 7B 00                   jp L007B
2E88 ED 8A 2E 97                push $2E97
2E8C ED 8A 00 7B                push $007B
2E90 ED 8A 39 95                push $3995
2E94 C3 7B 00                   jp L007B
2E97 22 55 5C                   ld ($5C55),hl
2E9A ED 8A 2E A9                push $2EA9
2E9E ED 8A 00 7B                push $007B
2EA2 ED 8A 3A 10                push $3A10
2EA6 C3 7B 00                   jp L007B
2EA9 D1                         pop de
2EAA 19                         add hl,de
2EAB 22 5D 5C                   ld ($5C5D),hl
2EAE C9                         ret
2EAF 23            L2EAF:       inc hl
2EB0 4E                         ld c,(hl)
2EB1 23                         inc hl
2EB2 46                         ld b,(hl)
2EB3 23                         inc hl
2EB4 09                         add hl,bc
2EB5 18 92                      jr L2E49
2EB7 2B            L2EB7:       dec hl
2EB8 7E                         ld a,(hl)
2EB9 23                         inc hl
2EBA A7                         and a
2EBB 20 F2                      jr nz,L2EAF
2EBD 23                         inc hl
2EBE 4E                         ld c,(hl)
2EBF 23                         inc hl
2EC0 46                         ld b,(hl)
2EC1 23                         inc hl
2EC2 22 5F 5C                   ld ($5C5F),hl
2EC5 09                         add hl,bc
2EC6 E5                         push hl
2EC7 ED 34 F8 FF                add hl,$FFF8
2ECB 7E                         ld a,(hl)
2ECC FE FE                      cp $FE
2ECE CA 86 2F                   jp z,L2F86
2ED1 23                         inc hl
2ED2 E5                         push hl
2ED3 4E                         ld c,(hl)
2ED4 23                         inc hl
2ED5 46                         ld b,(hl)
2ED6 ED 8A 2E E5                push $2EE5
2EDA ED 8A 00 7B                push $007B
2EDE ED 8A 38 D4                push $38D4
2EE2 C3 7B 00                   jp L007B
2EE5 ED 8A 2E F4                push $2EF4
2EE9 ED 8A 00 7B                push $007B
2EED ED 8A 39 62                push $3962
2EF1 C3 7B 00                   jp L007B
2EF4 D2 C3 2F                   jp nc,L2FC3
2EF7 ED 8A 2F 06                push $2F06
2EFB ED 8A 00 7B                push $007B
2EFF ED 8A 39 95                push $3995
2F03 C3 7B 00                   jp L007B
2F06 EB                         ex de,hl
2F07 11 82 00                   ld de,$0082
2F0A ED 8A 2F 19                push $2F19
2F0E ED 8A 00 7B                push $007B
2F12 ED 8A 12 41                push $1241
2F16 C3 7B 00                   jp L007B
2F19 DA C3 2F      L2F19:       jp c,L2FC3
2F1C CD 1F 01      L2F1C:       call L011F
2F1F FE 0E                      cp $0E
2F21 C2 AC 2F                   jp nz,L2FAC
2F24 23                         inc hl
2F25 E5                         push hl
2F26 ED 34 05 00                add hl,$0005
2F2A ED 5B 5F 5C                ld de,($5C5F)
2F2E CD 20 01                   call L0120
2F31 CB EF                      set 5,a
2F33 4F                         ld c,a
2F34 1A                         ld a,(de)
2F35 E6 1F                      and $1F
2F37 F6 60                      or $60
2F39 B9                         cp c
2F3A 20 4E                      jr nz,L2F8A
2F3C 1A                         ld a,(de)
2F3D 13                         inc de
2F3E CB 77                      bit 6,a
2F40 20 0F                      jr nz,L2F51
2F42 F7            L2F42:       rst $30
2F43 CB EF                      set 5,a
2F45 4F                         ld c,a
2F46 1A                         ld a,(de)
2F47 E6 7F                      and $7F
2F49 B9                         cp c
2F4A 20 3E                      jr nz,L2F8A
2F4C 1A                         ld a,(de)
2F4D 13                         inc de
2F4E 87                         add a,a
2F4F 30 F1                      jr nc,L2F42
2F51 F7            L2F51:       rst $30
2F52 ED 8A 2F 61                push $2F61
2F56 ED 8A 00 7B                push $007B
2F5A ED 8A 38 A1                push $38A1
2F5E C3 7B 00                   jp L007B
2F61 38 27                      jr c,L2F8A
2F63 D1                         pop de
2F64 3A 77 5B                   ld a,($5B77)
2F67 3C                         inc a
2F68 20 08                      jr nz,L2F72
2F6A 2A 53 5C                   ld hl,($5C53)
2F6D EB                         ex de,hl
2F6E ED 52                      sbc hl,de
2F70 18 0F                      jr L2F81
2F72 ED 8A 2F 81   L2F72:       push $2F81
2F76 ED 8A 00 7B                push $007B
2F7A ED 8A 3A 2F                push $3A2F
2F7E C3 7B 00                   jp L007B
2F81 EB            L2F81:       ex de,hl
2F82 E1                         pop hl
2F83 73                         ld (hl),e
2F84 23                         inc hl
2F85 72                         ld (hl),d
2F86 E1            L2F86:       pop hl
2F87 C3 49 2E                   jp L2E49
2F8A D1            L2F8A:       pop de
2F8B 7E            L2F8B:       ld a,(hl)
2F8C FE 2C                      cp $2C
2F8E 28 8C                      jr z,L2F1C
2F90 ED 8A 2F 9F                push $2F9F
2F94 ED 8A 00 7B                push $007B
2F98 ED 8A 08 E9                push $08E9
2F9C C3 7B 00                   jp L007B
2F9F 28 0B                      jr z,L2FAC
2FA1 23                         inc hl
2FA2 FE 0E                      cp $0E
2FA4 20 E5                      jr nz,L2F8B
2FA6 ED 34 05 00                add hl,$0005
2FAA 18 DF                      jr L2F8B
2FAC 11 82 00      L2FAC:       ld de,$0082
2FAF 0E 00                      ld c,$00
2FB1 ED 8A 2F C0                push $2FC0
2FB5 ED 8A 00 7B                push $007B
2FB9 ED 8A 12 5A                push $125A
2FBD C3 7B 00                   jp L007B
2FC0 C3 19 2F                   jp L2F19
2FC3 E1            L2FC3:       pop hl
2FC4 2B                         dec hl
2FC5 36 FE                      ld (hl),$FE
2FC7 2A 5F 5C                   ld hl,($5C5F)
2FCA 7E                         ld a,(hl)
2FCB E6 E0                      and $E0
2FCD F6 1E                      or $1E
2FCF 77                         ld (hl),a
2FD0 18 B4                      jr L2F86
2FD2 E5            L2FD2:       push hl
2FD3 2B                         dec hl
2FD4 7E                         ld a,(hl)
2FD5 ED 34 08 00                add hl,$0008
2FD9 4E                         ld c,(hl)
2FDA 23                         inc hl
2FDB 46                         ld b,(hl)
2FDC CB 78                      bit 7,b
2FDE C2 F3 30                   jp nz,L30F3
2FE1 FE FE                      cp $FE
2FE3 CA F3 30                   jp z,L30F3
2FE6 ED 8A 2F F5                push $2FF5
2FEA ED 8A 00 7B                push $007B
2FEE ED 8A 38 D4                push $38D4
2FF2 C3 7B 00                   jp L007B
2FF5 ED 8A 30 04                push $3004
2FF9 ED 8A 00 7B                push $007B
2FFD ED 8A 39 62                push $3962
3001 C3 7B 00                   jp L007B
3004 D2 F3 30                   jp nc,L30F3
3007 ED 8A 30 16                push $3016
300B ED 8A 00 7B                push $007B
300F ED 8A 39 95                push $3995
3013 C3 7B 00                   jp L007B
3016 ED 4B 53 5C                ld bc,($5C53)
301A 3A 77 5B                   ld a,($5B77)
301D 3C                         inc a
301E 20 03                      jr nz,L3023
3020 A7                         and a
3021 ED 42                      sbc hl,bc
3023 EB            L3023:       ex de,hl
3024 22 5D 5C                   ld ($5C5D),hl
3027 E1                         pop hl
3028 E5                         push hl
3029 23                         inc hl
302A ED 4B B6 5E                ld bc,($5EB6)
302E 71                         ld (hl),c
302F 23                         inc hl
3030 70                         ld (hl),b
3031 23                         inc hl
3032 23                         inc hl
3033 23                         inc hl
3034 73                         ld (hl),e
3035 23                         inc hl
3036 72                         ld (hl),d
3037 23                         inc hl
3038 23                         inc hl
3039 23                         inc hl
303A 56                         ld d,(hl)
303B 1E 00                      ld e,$00
303D ED 8A 30 4C                push $304C
3041 ED 8A 00 7B                push $007B
3045 ED 8A 12 3E                push $123E
3049 C3 7B 00                   jp L007B
304C 22 5D 5C                   ld ($5C5D),hl
304F C2 F3 30                   jp nz,L30F3
3052 C1                         pop bc
3053 C5                         push bc
3054 0A                         ld a,(bc)
3055 FE 22                      cp $22
3057 20 55                      jr nz,L30AE
3059 F7                         rst $30
305A FE 9A                      cp $9A
305C 20 29                      jr nz,L3087
305E 0E 00                      ld c,$00
3060 F7            L3060:       rst $30
3061 FE 0D                      cp $0D
3063 CA F3 30                   jp z,L30F3
3066 FE 22                      cp $22
3068 28 1A                      jr z,L3084
306A CB 41                      bit 0,c
306C 20 F2                      jr nz,L3060
306E FE 93                      cp $93
3070 28 19                      jr z,L308B
3072 FE 3A                      cp $3A
3074 CA F3 30                   jp z,L30F3
3077 FE 0E                      cp $0E
3079 20 E5                      jr nz,L3060
307B ED 34 05 00                add hl,$0005
307F 22 5D 5C                   ld ($5C5D),hl
3082 18 DC                      jr L3060
3084 0D            L3084:       dec c
3085 18 D9                      jr L3060
3087 FE 93         L3087:       cp $93
3089 20 68                      jr nz,L30F3
308B F7            L308B:       rst $30
308C ED 8A 30 9B                push $309B
3090 ED 8A 00 7B                push $007B
3094 ED 8A 13 13                push $1313
3098 C3 7B 00                   jp L007B
309B F7                         rst $30
309C ED 8A 30 AB                push $30AB
30A0 ED 8A 00 7B                push $007B
30A4 ED 8A 21 7B                push $217B
30A8 C3 7B 00                   jp L007B
30AB 2B                         dec hl
30AC 18 22                      jr L30D0
30AE FE 4B         L30AE:       cp $4B
30B0 20 0D                      jr nz,L30BF
30B2 F7                         rst $30
30B3 FE 90                      cp $90
30B5 20 3C                      jr nz,L30F3
30B7 F7                         rst $30
30B8 FE 8F                      cp $8F
30BA 20 37                      jr nz,L30F3
30BC F7                         rst $30
30BD 18 11                      jr L30D0
30BF 16 02         L30BF:       ld d,$02
30C1 ED 8A 30 D0                push $30D0
30C5 ED 8A 00 7B                push $007B
30C9 ED 8A 12 3E                push $123E
30CD C3 7B 00                   jp L007B
30D0 EB            L30D0:       ex de,hl
30D1 ED 8A 30 E0                push $30E0
30D5 ED 8A 00 7B                push $007B
30D9 ED 8A 3A 10                push $3A10
30DD C3 7B 00                   jp L007B
30E0 EB                         ex de,hl
30E1 A7                         and a
30E2 ED 52                      sbc hl,de
30E4 EB                         ex de,hl
30E5 E1                         pop hl
30E6 23                         inc hl
30E7 23                         inc hl
30E8 23                         inc hl
30E9 73                         ld (hl),e
30EA 23                         inc hl
30EB 72                         ld (hl),d
30EC ED 34 06 00                add hl,$0006
30F0 C3 49 2E                   jp L2E49
30F3 E1            L30F3:       pop hl
30F4 2B                         dec hl
30F5 36 FE                      ld (hl),$FE
30F7 ED 34 0B 00                add hl,$000B
30FB C3 49 2E                   jp L2E49
30FE D5                         push de
30FF ED 35 FB FF                add de,$FFFB
3103 ED 53 A8 5C                ld ($5CA8),de
3107 3A 77 5B                   ld a,($5B77)
310A 3C                         inc a
310B 20 09                      jr nz,L3116
310D 2A 53 5C                   ld hl,($5C53)
3110 A7                         and a
3111 EB                         ex de,hl
3112 ED 52                      sbc hl,de
3114 18 0F                      jr L3125
3116 ED 8A 31 25   L3116:       push $3125
311A ED 8A 00 7B                push $007B
311E ED 8A 3A 2F                push $3A2F
3122 C3 7B 00                   jp L007B
3125 E5            L3125:       push hl
3126 2A 3D 5C                   ld hl,($5C3D)
3129 23                         inc hl
312A 23                         inc hl
312B 23            L312B:       inc hl
312C 7E            L312C:       ld a,(hl)
312D FE 01                      cp $01
312F 28 1F                      jr z,L3150
3131 38 0F                      jr c,L3142
3133 FE 3E                      cp $3E
3135 28 08                      jr z,L313F
3137 38 11                      jr c,L314A
3139 CB B7                      res 6,a
313B ED 31                      add hl,a
313D 18 ED                      jr L312C
313F E1            L313F:       pop hl
3140 D1                         pop de
3141 C9                         ret
3142 23            L3142:       inc hl
3143 4E                         ld c,(hl)
3144 23                         inc hl
3145 46                         ld b,(hl)
3146 23                         inc hl
3147 09                         add hl,bc
3148 18 E1                      jr L312B
314A ED 34 0B 00   L314A:       add hl,$000B
314E 18 DC                      jr L312C
3150 2B            L3150:       dec hl
3151 7E                         ld a,(hl)
3152 23                         inc hl
3153 A7                         and a
3154 20 EC                      jr nz,L3142
3156 23                         inc hl
3157 4E                         ld c,(hl)
3158 23                         inc hl
3159 46                         ld b,(hl)
315A 23                         inc hl
315B 09                         add hl,bc
315C C1                         pop bc
315D C5                         push bc
315E E5                         push hl
315F ED 34 F8 FF                add hl,$FFF8
3163 3A 77 5B                   ld a,($5B77)
3166 BE                         cp (hl)
3167 20 12                      jr nz,L317B
3169 23                         inc hl
316A 5E                         ld e,(hl)
316B 23                         inc hl
316C 56                         ld d,(hl)
316D 23                         inc hl
316E EB                         ex de,hl
316F ED 42                      sbc hl,bc
3171 20 08                      jr nz,L317B
3173 2A A8 5C                   ld hl,($5CA8)
3176 01 05 00                   ld bc,$0005
3179 ED B0                      ldir
317B E1            L317B:       pop hl
317C 18 AD                      jr L312B
317E 00                         nop
317F 00                         nop
3180 00                         nop
3181 00                         nop
3182 00                         nop
3183 00                         nop
3184 00                         nop
3185 00                         nop
3186 00                         nop
3187 00                         nop
3188 00                         nop
3189 00                         nop
318A 00                         nop
318B 00                         nop
318C 00                         nop
318D 00                         nop
318E 00                         nop
318F 00                         nop
3190 00                         nop
3191 00                         nop
3192 00                         nop
3193 00                         nop
3194 00                         nop
3195 00                         nop
3196 00                         nop
3197 00                         nop
3198 00                         nop
3199 00                         nop
319A 00                         nop
319B 00                         nop
319C 00                         nop
319D 00                         nop
319E 00                         nop
319F 00                         nop
31A0 00                         nop
31A1 00                         nop
31A2 00                         nop
31A3 00                         nop
31A4 00                         nop
31A5 00                         nop
31A6 00                         nop
31A7 00                         nop
31A8 00                         nop
31A9 00                         nop
31AA 00                         nop
31AB 00                         nop
31AC 00                         nop
31AD 00                         nop
31AE 00                         nop
31AF 00                         nop
31B0 00                         nop
31B1 00                         nop
31B2 00                         nop
31B3 00                         nop
31B4 00                         nop
31B5 00                         nop
31B6 00                         nop
31B7 00                         nop
31B8 00                         nop
31B9 00                         nop
31BA 00                         nop
31BB 00                         nop
31BC 00                         nop
31BD 00                         nop
31BE 00                         nop
31BF 00                         nop
31C0 00                         nop
31C1 00                         nop
31C2 00                         nop
31C3 00                         nop
31C4 00                         nop
31C5 00                         nop
31C6 00                         nop
31C7 00                         nop
31C8 00                         nop
31C9 00                         nop
31CA 00                         nop
31CB 00                         nop
31CC 00                         nop
31CD 00                         nop
31CE 00                         nop
31CF 00                         nop
31D0 00                         nop
31D1 00                         nop
31D2 00                         nop
31D3 00                         nop
31D4 00                         nop
31D5 00                         nop
31D6 00                         nop
31D7 00                         nop
31D8 00                         nop
31D9 00                         nop
31DA 00                         nop
31DB 00                         nop
31DC 00                         nop
31DD 00                         nop
31DE 00                         nop
31DF 00                         nop
31E0 00                         nop
31E1 00                         nop
31E2 00                         nop
31E3 00                         nop
31E4 00                         nop
31E5 00                         nop
31E6 00                         nop
31E7 00                         nop
31E8 00                         nop
31E9 00                         nop
31EA 00                         nop
31EB 00                         nop
31EC 00                         nop
31ED 00                         nop
31EE 00                         nop
31EF 00                         nop
31F0 00                         nop
31F1 00                         nop
31F2 00                         nop
31F3 00                         nop
31F4 00                         nop
31F5 00                         nop
31F6 00                         nop
31F7 00                         nop
31F8 00                         nop
31F9 00                         nop
31FA 00                         nop
31FB 00                         nop
31FC 00                         nop
31FD 00                         nop
31FE 00                         nop
31FF 00                         nop
3200 00                         nop
3201 00                         nop
3202 00                         nop
3203 00                         nop
3204 00                         nop
3205 00                         nop
3206 00                         nop
3207 00                         nop
3208 00                         nop
3209 00                         nop
320A 00                         nop
320B 00                         nop
320C 00                         nop
320D 00                         nop
320E 00                         nop
320F 00                         nop
3210 00                         nop
3211 00                         nop
3212 00                         nop
3213 00                         nop
3214 00                         nop
3215 00                         nop
3216 00                         nop
3217 00                         nop
3218 00                         nop
3219 00                         nop
321A 00                         nop
321B 00                         nop
321C 00                         nop
321D 00                         nop
321E 00                         nop
321F 00                         nop
3220 00                         nop
3221 00                         nop
3222 00                         nop
3223 00                         nop
3224 00                         nop
3225 00                         nop
3226 00                         nop
3227 00                         nop
3228 00                         nop
3229 00                         nop
322A 00                         nop
322B 00                         nop
322C 00                         nop
322D 00                         nop
322E 00                         nop
322F 00                         nop
3230 00                         nop
3231 00                         nop
3232 00                         nop
3233 00                         nop
3234 00                         nop
3235 00                         nop
3236 00                         nop
3237 00                         nop
3238 00                         nop
3239 00                         nop
323A 00                         nop
323B 00                         nop
323C 00                         nop
323D 00                         nop
323E 00                         nop
323F 00                         nop
3240 00                         nop
3241 00                         nop
3242 00                         nop
3243 00                         nop
3244 00                         nop
3245 00                         nop
3246 00                         nop
3247 00                         nop
3248 00                         nop
3249 00                         nop
324A 00                         nop
324B 00                         nop
324C 00                         nop
324D 00                         nop
324E 00                         nop
324F 00                         nop
3250 00                         nop
3251 00                         nop
3252 00                         nop
3253 00                         nop
3254 00                         nop
3255 00                         nop
3256 00                         nop
3257 00                         nop
3258 00                         nop
3259 00                         nop
325A 00                         nop
325B 00                         nop
325C 00                         nop
325D 00                         nop
325E 00                         nop
325F 00                         nop
3260 00                         nop
3261 00                         nop
3262 00                         nop
3263 00                         nop
3264 00                         nop
3265 00                         nop
3266 00                         nop
3267 00                         nop
3268 00                         nop
3269 00                         nop
326A 00                         nop
326B 00                         nop
326C 00                         nop
326D 00                         nop
326E 00                         nop
326F 00                         nop
3270 00                         nop
3271 00                         nop
3272 00                         nop
3273 00                         nop
3274 00                         nop
3275 00                         nop
3276 00                         nop
3277 00                         nop
3278 00                         nop
3279 00                         nop
327A 00                         nop
327B 00                         nop
327C 00                         nop
327D 00                         nop
327E 00                         nop
327F 00                         nop
3280 00                         nop
3281 00                         nop
3282 00                         nop
3283 00                         nop
3284 00                         nop
3285 00                         nop
3286 00                         nop
3287 00                         nop
3288 00                         nop
3289 00                         nop
328A 00                         nop
328B 00                         nop
328C 00                         nop
328D 00                         nop
328E 00                         nop
328F 00                         nop
3290 00                         nop
3291 00                         nop
3292 00                         nop
3293 00                         nop
3294 00                         nop
3295 00                         nop
3296 00                         nop
3297 00                         nop
3298 00                         nop
3299 00                         nop
329A 00                         nop
329B 00                         nop
329C 00                         nop
329D 00                         nop
329E 00                         nop
329F 00                         nop
32A0 00                         nop
32A1 00                         nop
32A2 00                         nop
32A3 00                         nop
32A4 00                         nop
32A5 00                         nop
32A6 00                         nop
32A7 00                         nop
32A8 00                         nop
32A9 00                         nop
32AA 00                         nop
32AB 00                         nop
32AC 00                         nop
32AD 00                         nop
32AE 00                         nop
32AF 00                         nop
32B0 00                         nop
32B1 00                         nop
32B2 00                         nop
32B3 00                         nop
32B4 00                         nop
32B5 00                         nop
32B6 00                         nop
32B7 00                         nop
32B8 00                         nop
32B9 00                         nop
32BA 00                         nop
32BB 00                         nop
32BC 00                         nop
32BD 00                         nop
32BE 00                         nop
32BF 00                         nop
32C0 00                         nop
32C1 00                         nop
32C2 00                         nop
32C3 00                         nop
32C4 00                         nop
32C5 00                         nop
32C6 00                         nop
32C7 00                         nop
32C8 00                         nop
32C9 00                         nop
32CA 00                         nop
32CB 00                         nop
32CC 00                         nop
32CD 00                         nop
32CE 00                         nop
32CF 00                         nop
32D0 00                         nop
32D1 00                         nop
32D2 00                         nop
32D3 00                         nop
32D4 00                         nop
32D5 00                         nop
32D6 00                         nop
32D7 00                         nop
32D8 00                         nop
32D9 00                         nop
32DA 00                         nop
32DB 00                         nop
32DC 00                         nop
32DD 00                         nop
32DE 00                         nop
32DF 00                         nop
32E0 00                         nop
32E1 00                         nop
32E2 00                         nop
32E3 00                         nop
32E4 00                         nop
32E5 00                         nop
32E6 00                         nop
32E7 00                         nop
32E8 00                         nop
32E9 00                         nop
32EA 00                         nop
32EB 00                         nop
32EC 00                         nop
32ED 00                         nop
32EE 00                         nop
32EF 00                         nop
32F0 00                         nop
32F1 00                         nop
32F2 00                         nop
32F3 00                         nop
32F4 00                         nop
32F5 00                         nop
32F6 00                         nop
32F7 00                         nop
32F8 00                         nop
32F9 00                         nop
32FA 00                         nop
32FB 00                         nop
32FC 00                         nop
32FD 00                         nop
32FE 00                         nop
32FF 00                         nop
3300 00                         nop
3301 00                         nop
3302 00                         nop
3303 00                         nop
3304 00                         nop
3305 00                         nop
3306 00                         nop
3307 00                         nop
3308 00                         nop
3309 00                         nop
330A 00                         nop
330B 00                         nop
330C 00                         nop
330D 00                         nop
330E 00                         nop
330F 00                         nop
3310 00                         nop
3311 00                         nop
3312 00                         nop
3313 00                         nop
3314 00                         nop
3315 00                         nop
3316 00                         nop
3317 00                         nop
3318 00                         nop
3319 00                         nop
331A 00                         nop
331B 00                         nop
331C 00                         nop
331D 00                         nop
331E 00                         nop
331F 00                         nop
3320 00                         nop
3321 00                         nop
3322 00                         nop
3323 00                         nop
3324 00                         nop
3325 00                         nop
3326 00                         nop
3327 00                         nop
3328 00                         nop
3329 00                         nop
332A 00                         nop
332B 00                         nop
332C 00                         nop
332D 00                         nop
332E 00                         nop
332F 00                         nop
3330 00                         nop
3331 00                         nop
3332 00                         nop
3333 00                         nop
3334 00                         nop
3335 00                         nop
3336 00                         nop
3337 00                         nop
3338 00                         nop
3339 00                         nop
333A 00                         nop
333B 00                         nop
333C 00                         nop
333D 00                         nop
333E 00                         nop
333F 00                         nop
3340 00                         nop
3341 00                         nop
3342 00                         nop
3343 00                         nop
3344 00                         nop
3345 00                         nop
3346 00                         nop
3347 00                         nop
3348 00                         nop
3349 00                         nop
334A 00                         nop
334B 00                         nop
334C 00                         nop
334D 00                         nop
334E 00                         nop
334F 00                         nop
3350 00                         nop
3351 00                         nop
3352 00                         nop
3353 00                         nop
3354 00                         nop
3355 00                         nop
3356 00                         nop
3357 00                         nop
3358 00                         nop
3359 00                         nop
335A 00                         nop
335B 00                         nop
335C 00                         nop
335D 00                         nop
335E 00                         nop
335F 00                         nop
3360 00                         nop
3361 00                         nop
3362 00                         nop
3363 00                         nop
3364 00                         nop
3365 00                         nop
3366 00                         nop
3367 00                         nop
3368 00                         nop
3369 00                         nop
336A 00                         nop
336B 00                         nop
336C 00                         nop
336D 00                         nop
336E 00                         nop
336F 00                         nop
3370 00                         nop
3371 00                         nop
3372 00                         nop
3373 00                         nop
3374 00                         nop
3375 00                         nop
3376 00                         nop
3377 00                         nop
3378 00                         nop
3379 00                         nop
337A 00                         nop
337B 00                         nop
337C 00                         nop
337D 00                         nop
337E 00                         nop
337F 00                         nop
3380 00                         nop
3381 00                         nop
3382 00                         nop
3383 00                         nop
3384 00                         nop
3385 00                         nop
3386 00                         nop
3387 00                         nop
3388 00                         nop
3389 00                         nop
338A 00                         nop
338B 00                         nop
338C 00                         nop
338D 00                         nop
338E 00                         nop
338F 00                         nop
3390 00                         nop
3391 00                         nop
3392 00                         nop
3393 00                         nop
3394 00                         nop
3395 00                         nop
3396 00                         nop
3397 00                         nop
3398 00                         nop
3399 00                         nop
339A 00                         nop
339B 00                         nop
339C 00                         nop
339D 00                         nop
339E 00                         nop
339F 00                         nop
33A0 00                         nop
33A1 00                         nop
33A2 00                         nop
33A3 00                         nop
33A4 00                         nop
33A5 00                         nop
33A6 00                         nop
33A7 00                         nop
33A8 00                         nop
33A9 00                         nop
33AA 00                         nop
33AB 00                         nop
33AC 00                         nop
33AD 00                         nop
33AE 00                         nop
33AF 00                         nop
33B0 00                         nop
33B1 00                         nop
33B2 00                         nop
33B3 00                         nop
33B4 00                         nop
33B5 00                         nop
33B6 00                         nop
33B7 00                         nop
33B8 00                         nop
33B9 00                         nop
33BA 00                         nop
33BB 00                         nop
33BC 00                         nop
33BD 00                         nop
33BE 00                         nop
33BF 00                         nop
33C0 00                         nop
33C1 00                         nop
33C2 00                         nop
33C3 00                         nop
33C4 00                         nop
33C5 00                         nop
33C6 00                         nop
33C7 00                         nop
33C8 00                         nop
33C9 00                         nop
33CA 00                         nop
33CB 00                         nop
33CC 00                         nop
33CD 00                         nop
33CE 00                         nop
33CF 00                         nop
33D0 00                         nop
33D1 00                         nop
33D2 00                         nop
33D3 00                         nop
33D4 00                         nop
33D5 00                         nop
33D6 00                         nop
33D7 00                         nop
33D8 00                         nop
33D9 00                         nop
33DA 00                         nop
33DB 00                         nop
33DC 00                         nop
33DD 00                         nop
33DE 00                         nop
33DF 00                         nop
33E0 00                         nop
33E1 00                         nop
33E2 00                         nop
33E3 00                         nop
33E4 00                         nop
33E5 00                         nop
33E6 00                         nop
33E7 00                         nop
33E8 00                         nop
33E9 00                         nop
33EA 00                         nop
33EB 00                         nop
33EC 00                         nop
33ED 00                         nop
33EE 00                         nop
33EF 00                         nop
33F0 00                         nop
33F1 00                         nop
33F2 00                         nop
33F3 00                         nop
33F4 00                         nop
33F5 00                         nop
33F6 00                         nop
33F7 00                         nop
33F8 00                         nop
33F9 00                         nop
33FA 00                         nop
33FB 00                         nop
33FC 00                         nop
33FD 00                         nop
33FE 00                         nop
33FF 00                         nop
3400 00                         nop
3401 00                         nop
3402 00                         nop
3403 00                         nop
3404 00                         nop
3405 00                         nop
3406 00                         nop
3407 00                         nop
3408 00                         nop
3409 00                         nop
340A 00                         nop
340B 00                         nop
340C 00                         nop
340D 00                         nop
340E 00                         nop
340F 00                         nop
3410 00                         nop
3411 00                         nop
3412 00                         nop
3413 00                         nop
3414 00                         nop
3415 00                         nop
3416 00                         nop
3417 00                         nop
3418 00                         nop
3419 00                         nop
341A 00                         nop
341B 00                         nop
341C 00                         nop
341D 00                         nop
341E 00                         nop
341F 00                         nop
3420 00                         nop
3421 00                         nop
3422 00                         nop
3423 00                         nop
3424 00                         nop
3425 00                         nop
3426 00                         nop
3427 00                         nop
3428 00                         nop
3429 00                         nop
342A 00                         nop
342B 00                         nop
342C 00                         nop
342D 00                         nop
342E 00                         nop
342F 00                         nop
3430 00                         nop
3431 00                         nop
3432 00                         nop
3433 00                         nop
3434 00                         nop
3435 00                         nop
3436 00                         nop
3437 00                         nop
3438 00                         nop
3439 00                         nop
343A 00                         nop
343B 00                         nop
343C 00                         nop
343D 00                         nop
343E 00                         nop
343F 00                         nop
3440 00                         nop
3441 00                         nop
3442 00                         nop
3443 00                         nop
3444 00                         nop
3445 00                         nop
3446 00                         nop
3447 00                         nop
3448 00                         nop
3449 00                         nop
344A 00                         nop
344B 00                         nop
344C 00                         nop
344D 00                         nop
344E 00                         nop
344F 00                         nop
3450 00                         nop
3451 00                         nop
3452 00                         nop
3453 00                         nop
3454 00                         nop
3455 00                         nop
3456 00                         nop
3457 00                         nop
3458 00                         nop
3459 00                         nop
345A 00                         nop
345B 00                         nop
345C 00                         nop
345D 00                         nop
345E 00                         nop
345F 00                         nop
3460 00                         nop
3461 00                         nop
3462 00                         nop
3463 00                         nop
3464 00                         nop
3465 00                         nop
3466 00                         nop
3467 00                         nop
3468 00                         nop
3469 00                         nop
346A 00                         nop
346B 00                         nop
346C 00                         nop
346D 00                         nop
346E 00                         nop
346F 00                         nop
3470 00                         nop
3471 00                         nop
3472 00                         nop
3473 00                         nop
3474 00                         nop
3475 00                         nop
3476 00                         nop
3477 00                         nop
3478 00                         nop
3479 00                         nop
347A 00                         nop
347B 00                         nop
347C 00                         nop
347D 00                         nop
347E 00                         nop
347F 00                         nop
3480 00                         nop
3481 00                         nop
3482 00                         nop
3483 00                         nop
3484 00                         nop
3485 00                         nop
3486 00                         nop
3487 00                         nop
3488 00                         nop
3489 00                         nop
348A 00                         nop
348B 00                         nop
348C 00                         nop
348D 00                         nop
348E 00                         nop
348F 00                         nop
3490 00                         nop
3491 00                         nop
3492 00                         nop
3493 00                         nop
3494 00                         nop
3495 00                         nop
3496 00                         nop
3497 00                         nop
3498 00                         nop
3499 00                         nop
349A 00                         nop
349B 00                         nop
349C 00                         nop
349D 00                         nop
349E 00                         nop
349F 00                         nop
34A0 00                         nop
34A1 00                         nop
34A2 00                         nop
34A3 00                         nop
34A4 00                         nop
34A5 00                         nop
34A6 00                         nop
34A7 00                         nop
34A8 00                         nop
34A9 00                         nop
34AA 00                         nop
34AB 00                         nop
34AC 00                         nop
34AD 00                         nop
34AE 00                         nop
34AF 00                         nop
34B0 00                         nop
34B1 00                         nop
34B2 00                         nop
34B3 00                         nop
34B4 00                         nop
34B5 00                         nop
34B6 00                         nop
34B7 00                         nop
34B8 00                         nop
34B9 00                         nop
34BA 00                         nop
34BB 00                         nop
34BC 00                         nop
34BD 00                         nop
34BE 00                         nop
34BF 00                         nop
34C0 00                         nop
34C1 00                         nop
34C2 00                         nop
34C3 00                         nop
34C4 00                         nop
34C5 00                         nop
34C6 00                         nop
34C7 00                         nop
34C8 00                         nop
34C9 00                         nop
34CA 00                         nop
34CB 00                         nop
34CC 00                         nop
34CD 00                         nop
34CE 00                         nop
34CF 00                         nop
34D0 00                         nop
34D1 00                         nop
34D2 00                         nop
34D3 00                         nop
34D4 00                         nop
34D5 00                         nop
34D6 00                         nop
34D7 00                         nop
34D8 00                         nop
34D9 00                         nop
34DA 00                         nop
34DB 00                         nop
34DC 00                         nop
34DD 00                         nop
34DE 00                         nop
34DF 00                         nop
34E0 00                         nop
34E1 00                         nop
34E2 00                         nop
34E3 00                         nop
34E4 00                         nop
34E5 00                         nop
34E6 00                         nop
34E7 00                         nop
34E8 00                         nop
34E9 00                         nop
34EA 00                         nop
34EB 00                         nop
34EC 00                         nop
34ED 00                         nop
34EE 00                         nop
34EF 00                         nop
34F0 00                         nop
34F1 00                         nop
34F2 00                         nop
34F3 00                         nop
34F4 00                         nop
34F5 00                         nop
34F6 00                         nop
34F7 00                         nop
34F8 00                         nop
34F9 00                         nop
34FA 00                         nop
34FB 00                         nop
34FC 00                         nop
34FD 00                         nop
34FE 00                         nop
34FF 00                         nop
3500 00                         nop
3501 00                         nop
3502 00                         nop
3503 00                         nop
3504 00                         nop
3505 00                         nop
3506 00                         nop
3507 00                         nop
3508 00                         nop
3509 00                         nop
350A 00                         nop
350B 00                         nop
350C 00                         nop
350D 00                         nop
350E 00                         nop
350F 00                         nop
3510 00                         nop
3511 00                         nop
3512 00                         nop
3513 00                         nop
3514 00                         nop
3515 00                         nop
3516 00                         nop
3517 00                         nop
3518 00                         nop
3519 00                         nop
351A 00                         nop
351B 00                         nop
351C 00                         nop
351D 00                         nop
351E 00                         nop
351F 00                         nop
3520 00                         nop
3521 00                         nop
3522 00                         nop
3523 00                         nop
3524 00                         nop
3525 00                         nop
3526 00                         nop
3527 00                         nop
3528 00                         nop
3529 00                         nop
352A 00                         nop
352B 00                         nop
352C 00                         nop
352D 00                         nop
352E 00                         nop
352F 00                         nop
3530 00                         nop
3531 00                         nop
3532 00                         nop
3533 00                         nop
3534 00                         nop
3535 00                         nop
3536 00                         nop
3537 00                         nop
3538 00                         nop
3539 00                         nop
353A 00                         nop
353B 00                         nop
353C 00                         nop
353D 00                         nop
353E 00                         nop
353F 00                         nop
3540 00                         nop
3541 00                         nop
3542 00                         nop
3543 00                         nop
3544 00                         nop
3545 00                         nop
3546 00                         nop
3547 00                         nop
3548 00                         nop
3549 00                         nop
354A 00                         nop
354B 00                         nop
354C 00                         nop
354D 00                         nop
354E 00                         nop
354F 00                         nop
3550 00                         nop
3551 00                         nop
3552 00                         nop
3553 00                         nop
3554 00                         nop
3555 00                         nop
3556 00                         nop
3557 00                         nop
3558 00                         nop
3559 00                         nop
355A 00                         nop
355B 00                         nop
355C 00                         nop
355D 00                         nop
355E 00                         nop
355F 00                         nop
3560 00                         nop
3561 00                         nop
3562 00                         nop
3563 00                         nop
3564 00                         nop
3565 00                         nop
3566 00                         nop
3567 00                         nop
3568 00                         nop
3569 00                         nop
356A 00                         nop
356B 00                         nop
356C 00                         nop
356D 00                         nop
356E 00                         nop
356F 00                         nop
3570 00                         nop
3571 00                         nop
3572 00                         nop
3573 00                         nop
3574 00                         nop
3575 00                         nop
3576 00                         nop
3577 00                         nop
3578 00                         nop
3579 00                         nop
357A 00                         nop
357B 00                         nop
357C 00                         nop
357D 00                         nop
357E 00                         nop
357F 00                         nop
3580 00                         nop
3581 00                         nop
3582 00                         nop
3583 00                         nop
3584 00                         nop
3585 00                         nop
3586 00                         nop
3587 00                         nop
3588 00                         nop
3589 00                         nop
358A 00                         nop
358B 00                         nop
358C 00                         nop
358D 00                         nop
358E 00                         nop
358F 00                         nop
3590 00                         nop
3591 00                         nop
3592 00                         nop
3593 00                         nop
3594 00                         nop
3595 00                         nop
3596 00                         nop
3597 00                         nop
3598 00                         nop
3599 00                         nop
359A 00                         nop
359B 00                         nop
359C 00                         nop
359D 00                         nop
359E 00                         nop
359F 00                         nop
35A0 00                         nop
35A1 00                         nop
35A2 00                         nop
35A3 00                         nop
35A4 00                         nop
35A5 00                         nop
35A6 00                         nop
35A7 00                         nop
35A8 00                         nop
35A9 00                         nop
35AA 00                         nop
35AB 00                         nop
35AC 00                         nop
35AD 00                         nop
35AE 00                         nop
35AF 00                         nop
35B0 00                         nop
35B1 00                         nop
35B2 00                         nop
35B3 00                         nop
35B4 00                         nop
35B5 00                         nop
35B6 00                         nop
35B7 00                         nop
35B8 00                         nop
35B9 00                         nop
35BA 00                         nop
35BB 00                         nop
35BC 00                         nop
35BD 00                         nop
35BE 00                         nop
35BF 00                         nop
35C0 00                         nop
35C1 00                         nop
35C2 00                         nop
35C3 00                         nop
35C4 00                         nop
35C5 00                         nop
35C6 00                         nop
35C7 00                         nop
35C8 00                         nop
35C9 00                         nop
35CA 00                         nop
35CB 00                         nop
35CC 00                         nop
35CD 00                         nop
35CE 00                         nop
35CF 00                         nop
35D0 00                         nop
35D1 00                         nop
35D2 00                         nop
35D3 00                         nop
35D4 00                         nop
35D5 00                         nop
35D6 00                         nop
35D7 00                         nop
35D8 00                         nop
35D9 00                         nop
35DA 00                         nop
35DB 00                         nop
35DC 00                         nop
35DD 00                         nop
35DE 00                         nop
35DF 00                         nop
35E0 00                         nop
35E1 00                         nop
35E2 00                         nop
35E3 00                         nop
35E4 00                         nop
35E5 00                         nop
35E6 00                         nop
35E7 00                         nop
35E8 00                         nop
35E9 00                         nop
35EA 00                         nop
35EB 00                         nop
35EC 00                         nop
35ED 00                         nop
35EE 00                         nop
35EF 00                         nop
35F0 00                         nop
35F1 00                         nop
35F2 00                         nop
35F3 00                         nop
35F4 00                         nop
35F5 00                         nop
35F6 00                         nop
35F7 00                         nop
35F8 00                         nop
35F9 00                         nop
35FA 00                         nop
35FB 00                         nop
35FC 00                         nop
35FD 00                         nop
35FE 00                         nop
35FF 00                         nop
3600 00                         nop
3601 00                         nop
3602 00                         nop
3603 00                         nop
3604 00                         nop
3605 00                         nop
3606 00                         nop
3607 00                         nop
3608 00                         nop
3609 00                         nop
360A 00                         nop
360B 00                         nop
360C 00                         nop
360D 00                         nop
360E 00                         nop
360F 00                         nop
3610 00                         nop
3611 00                         nop
3612 00                         nop
3613 00                         nop
3614 00                         nop
3615 00                         nop
3616 00                         nop
3617 00                         nop
3618 00                         nop
3619 00                         nop
361A 00                         nop
361B 00                         nop
361C 00                         nop
361D 00                         nop
361E 00                         nop
361F 00                         nop
3620 00                         nop
3621 00                         nop
3622 00                         nop
3623 00                         nop
3624 00                         nop
3625 00                         nop
3626 00                         nop
3627 00                         nop
3628 00                         nop
3629 00                         nop
362A 00                         nop
362B 00                         nop
362C 00                         nop
362D 00                         nop
362E 00                         nop
362F 00                         nop
3630 00                         nop
3631 00                         nop
3632 00                         nop
3633 00                         nop
3634 00                         nop
3635 00                         nop
3636 00                         nop
3637 00                         nop
3638 00                         nop
3639 00                         nop
363A 00                         nop
363B 00                         nop
363C 00                         nop
363D 00                         nop
363E 00                         nop
363F 00                         nop
3640 00                         nop
3641 00                         nop
3642 00                         nop
3643 00                         nop
3644 00                         nop
3645 00                         nop
3646 00                         nop
3647 00                         nop
3648 00                         nop
3649 00                         nop
364A 00                         nop
364B 00                         nop
364C 00                         nop
364D 00                         nop
364E 00                         nop
364F 00                         nop
3650 00                         nop
3651 00                         nop
3652 00                         nop
3653 00                         nop
3654 00                         nop
3655 00                         nop
3656 00                         nop
3657 00                         nop
3658 00                         nop
3659 00                         nop
365A 00                         nop
365B 00                         nop
365C 00                         nop
365D 00                         nop
365E 00                         nop
365F 00                         nop
3660 00                         nop
3661 00                         nop
3662 00                         nop
3663 00                         nop
3664 00                         nop
3665 00                         nop
3666 00                         nop
3667 00                         nop
3668 00                         nop
3669 00                         nop
366A 00                         nop
366B 00                         nop
366C 00                         nop
366D 00                         nop
366E 00                         nop
366F 00                         nop
3670 00                         nop
3671 00                         nop
3672 00                         nop
3673 00                         nop
3674 00                         nop
3675 00                         nop
3676 00                         nop
3677 00                         nop
3678 00                         nop
3679 00                         nop
367A 00                         nop
367B 00                         nop
367C 00                         nop
367D 00                         nop
367E 00                         nop
367F 00                         nop
3680 00                         nop
3681 00                         nop
3682 00                         nop
3683 00                         nop
3684 00                         nop
3685 00                         nop
3686 00                         nop
3687 00                         nop
3688 00                         nop
3689 00                         nop
368A 00                         nop
368B 00                         nop
368C 00                         nop
368D 00                         nop
368E 00                         nop
368F 00                         nop
3690 00                         nop
3691 00                         nop
3692 00                         nop
3693 00                         nop
3694 00                         nop
3695 00                         nop
3696 00                         nop
3697 00                         nop
3698 00                         nop
3699 00                         nop
369A 00                         nop
369B 00                         nop
369C 00                         nop
369D 00                         nop
369E 00                         nop
369F 00                         nop
36A0 00                         nop
36A1 00                         nop
36A2 00                         nop
36A3 00                         nop
36A4 00                         nop
36A5 00                         nop
36A6 00                         nop
36A7 00                         nop
36A8 00                         nop
36A9 00                         nop
36AA 00                         nop
36AB 00                         nop
36AC 00                         nop
36AD 00                         nop
36AE 00                         nop
36AF 00                         nop
36B0 00                         nop
36B1 00                         nop
36B2 00                         nop
36B3 00                         nop
36B4 00                         nop
36B5 00                         nop
36B6 00                         nop
36B7 00                         nop
36B8 00                         nop
36B9 00                         nop
36BA 00                         nop
36BB 00                         nop
36BC 00                         nop
36BD 00                         nop
36BE 00                         nop
36BF 00                         nop
36C0 00                         nop
36C1 00                         nop
36C2 00                         nop
36C3 00                         nop
36C4 00                         nop
36C5 00                         nop
36C6 00                         nop
36C7 00                         nop
36C8 00                         nop
36C9 00                         nop
36CA 00                         nop
36CB 00                         nop
36CC 00                         nop
36CD 00                         nop
36CE 00                         nop
36CF 00                         nop
36D0 00                         nop
36D1 00                         nop
36D2 00                         nop
36D3 00                         nop
36D4 00                         nop
36D5 00                         nop
36D6 00                         nop
36D7 00                         nop
36D8 00                         nop
36D9 00                         nop
36DA 00                         nop
36DB 00                         nop
36DC 00                         nop
36DD 00                         nop
36DE 00                         nop
36DF 00                         nop
36E0 00                         nop
36E1 00                         nop
36E2 00                         nop
36E3 00                         nop
36E4 00                         nop
36E5 00                         nop
36E6 00                         nop
36E7 00                         nop
36E8 00                         nop
36E9 00                         nop
36EA 00                         nop
36EB 00                         nop
36EC 00                         nop
36ED 00                         nop
36EE 00                         nop
36EF 00                         nop
36F0 00                         nop
36F1 00                         nop
36F2 00                         nop
36F3 00                         nop
36F4 00                         nop
36F5 00                         nop
36F6 00                         nop
36F7 00                         nop
36F8 00                         nop
36F9 00                         nop
36FA 00                         nop
36FB 00                         nop
36FC 00                         nop
36FD 00                         nop
36FE 00                         nop
36FF 00                         nop
3700 00                         nop
3701 00                         nop
3702 00                         nop
3703 00                         nop
3704 00                         nop
3705 00                         nop
3706 00                         nop
3707 00                         nop
3708 00                         nop
3709 00                         nop
370A 00                         nop
370B 00                         nop
370C 00                         nop
370D 00                         nop
370E 00                         nop
370F 00                         nop
3710 00                         nop
3711 00                         nop
3712 00                         nop
3713 00                         nop
3714 00                         nop
3715 00                         nop
3716 00                         nop
3717 00                         nop
3718 00                         nop
3719 00                         nop
371A 00                         nop
371B 00                         nop
371C 00                         nop
371D 00                         nop
371E 00                         nop
371F 00                         nop
3720 00                         nop
3721 00                         nop
3722 00                         nop
3723 00                         nop
3724 00                         nop
3725 00                         nop
3726 00                         nop
3727 00                         nop
3728 00                         nop
3729 00                         nop
372A 00                         nop
372B 00                         nop
372C 00                         nop
372D 00                         nop
372E 00                         nop
372F 00                         nop
3730 00                         nop
3731 00                         nop
3732 00                         nop
3733 00                         nop
3734 00                         nop
3735 00                         nop
3736 00                         nop
3737 00                         nop
3738 00                         nop
3739 00                         nop
373A 00                         nop
373B 00                         nop
373C 00                         nop
373D 00                         nop
373E 00                         nop
373F 00                         nop
3740 00                         nop
3741 00                         nop
3742 00                         nop
3743 00                         nop
3744 00                         nop
3745 00                         nop
3746 00                         nop
3747 00                         nop
3748 00                         nop
3749 00                         nop
374A 00                         nop
374B 00                         nop
374C 00                         nop
374D 00                         nop
374E 00                         nop
374F 00                         nop
3750 00                         nop
3751 00                         nop
3752 00                         nop
3753 00                         nop
3754 00                         nop
3755 00                         nop
3756 00                         nop
3757 00                         nop
3758 00                         nop
3759 00                         nop
375A 00                         nop
375B 00                         nop
375C 00                         nop
375D 00                         nop
375E 00                         nop
375F 00                         nop
3760 00                         nop
3761 00                         nop
3762 00                         nop
3763 00                         nop
3764 00                         nop
3765 00                         nop
3766 00                         nop
3767 00                         nop
3768 00                         nop
3769 00                         nop
376A 00                         nop
376B 00                         nop
376C 00                         nop
376D 00                         nop
376E 00                         nop
376F 00                         nop
3770 00                         nop
3771 00                         nop
3772 00                         nop
3773 00                         nop
3774 00                         nop
3775 00                         nop
3776 00                         nop
3777 00                         nop
3778 00                         nop
3779 00                         nop
377A 00                         nop
377B 00                         nop
377C 00                         nop
377D 00                         nop
377E 00                         nop
377F 00                         nop
3780 00                         nop
3781 00                         nop
3782 00                         nop
3783 00                         nop
3784 00                         nop
3785 00                         nop
3786 00                         nop
3787 00                         nop
3788 00                         nop
3789 00                         nop
378A 00                         nop
378B 00                         nop
378C 00                         nop
378D 00                         nop
378E 00                         nop
378F 00                         nop
3790 00                         nop
3791 00                         nop
3792 00                         nop
3793 00                         nop
3794 00                         nop
3795 00                         nop
3796 00                         nop
3797 00                         nop
3798 00                         nop
3799 00                         nop
379A 00                         nop
379B 00                         nop
379C 00                         nop
379D 00                         nop
379E 00                         nop
379F 00                         nop
37A0 00                         nop
37A1 00                         nop
37A2 00                         nop
37A3 00                         nop
37A4 00                         nop
37A5 00                         nop
37A6 00                         nop
37A7 00                         nop
37A8 00                         nop
37A9 00                         nop
37AA 00                         nop
37AB 00                         nop
37AC 00                         nop
37AD 00                         nop
37AE 00                         nop
37AF 00                         nop
37B0 00                         nop
37B1 00                         nop
37B2 00                         nop
37B3 00                         nop
37B4 00                         nop
37B5 00                         nop
37B6 00                         nop
37B7 00                         nop
37B8 00                         nop
37B9 00                         nop
37BA 00                         nop
37BB 00                         nop
37BC 00                         nop
37BD 00                         nop
37BE 00                         nop
37BF 00                         nop
37C0 00                         nop
37C1 00                         nop
37C2 00                         nop
37C3 00                         nop
37C4 00                         nop
37C5 00                         nop
37C6 00                         nop
37C7 00                         nop
37C8 00                         nop
37C9 00                         nop
37CA 00                         nop
37CB 00                         nop
37CC 00                         nop
37CD 00                         nop
37CE 00                         nop
37CF 00                         nop
37D0 00                         nop
37D1 00                         nop
37D2 00                         nop
37D3 00                         nop
37D4 00                         nop
37D5 00                         nop
37D6 00                         nop
37D7 00                         nop
37D8 00                         nop
37D9 00                         nop
37DA 00                         nop
37DB 00                         nop
37DC 00                         nop
37DD 00                         nop
37DE 00                         nop
37DF 00                         nop
37E0 00                         nop
37E1 00                         nop
37E2 00                         nop
37E3 00                         nop
37E4 00                         nop
37E5 00                         nop
37E6 00                         nop
37E7 00                         nop
37E8 00                         nop
37E9 00                         nop
37EA 00                         nop
37EB 00                         nop
37EC 00                         nop
37ED 00                         nop
37EE 00                         nop
37EF 00                         nop
37F0 00                         nop
37F1 00                         nop
37F2 00                         nop
37F3 00                         nop
37F4 00                         nop
37F5 00                         nop
37F6 00                         nop
37F7 00                         nop
37F8 00                         nop
37F9 00                         nop
37FA 00                         nop
37FB 00                         nop
37FC 00                         nop
37FD 00                         nop
37FE 00                         nop
37FF 00                         nop
3800 00                         nop
3801 00                         nop
3802 00                         nop
3803 00                         nop
3804 00                         nop
3805 00                         nop
3806 00                         nop
3807 00                         nop
3808 00                         nop
3809 00                         nop
380A 00                         nop
380B 00                         nop
380C 00                         nop
380D 00                         nop
380E 00                         nop
380F 00                         nop
3810 00                         nop
3811 00                         nop
3812 00                         nop
3813 00                         nop
3814 00                         nop
3815 00                         nop
3816 00                         nop
3817 00                         nop
3818 00                         nop
3819 00                         nop
381A 00                         nop
381B 00                         nop
381C 00                         nop
381D 00                         nop
381E 00                         nop
381F 00                         nop
3820 00                         nop
3821 00                         nop
3822 00                         nop
3823 00                         nop
3824 00                         nop
3825 00                         nop
3826 00                         nop
3827 00                         nop
3828 00                         nop
3829 00                         nop
382A 00                         nop
382B 00                         nop
382C 00                         nop
382D 00                         nop
382E 00                         nop
382F 00                         nop
3830 00                         nop
3831 00                         nop
3832 00                         nop
3833 00                         nop
3834 00                         nop
3835 00                         nop
3836 00                         nop
3837 00                         nop
3838 00                         nop
3839 00                         nop
383A 00                         nop
383B 00                         nop
383C 00                         nop
383D 00                         nop
383E 00                         nop
383F 00                         nop
3840 00                         nop
3841 00                         nop
3842 00                         nop
3843 00                         nop
3844 00                         nop
3845 00                         nop
3846 00                         nop
3847 00                         nop
3848 00                         nop
3849 00                         nop
384A 00                         nop
384B 00                         nop
384C 00                         nop
384D 00                         nop
384E 00                         nop
384F 00                         nop
3850 00                         nop
3851 00                         nop
3852 00                         nop
3853 00                         nop
3854 00                         nop
3855 00                         nop
3856 00                         nop
3857 00                         nop
3858 00                         nop
3859 00                         nop
385A 00                         nop
385B 00                         nop
385C 00                         nop
385D 00                         nop
385E 00                         nop
385F 00                         nop
3860 00                         nop
3861 00                         nop
3862 00                         nop
3863 00                         nop
3864 00                         nop
3865 00                         nop
3866 00                         nop
3867 00                         nop
3868 00                         nop
3869 00                         nop
386A 00                         nop
386B 00                         nop
386C 00                         nop
386D 00                         nop
386E 00                         nop
386F 00                         nop
3870 00                         nop
3871 00                         nop
3872 00                         nop
3873 00                         nop
3874 00                         nop
3875 00                         nop
3876 00                         nop
3877 00                         nop
3878 00                         nop
3879 00                         nop
387A 00                         nop
387B 00                         nop
387C 00                         nop
387D 00                         nop
387E 00                         nop
387F 00                         nop
3880 00                         nop
3881 00                         nop
3882 00                         nop
3883 00                         nop
3884 00                         nop
3885 00                         nop
3886 00                         nop
3887 00                         nop
3888 00                         nop
3889 00                         nop
388A 00                         nop
388B 00                         nop
388C 00                         nop
388D 00                         nop
388E 00                         nop
388F 00                         nop
3890 00                         nop
3891 00                         nop
3892 00                         nop
3893 00                         nop
3894 00                         nop
3895 00                         nop
3896 00                         nop
3897 00                         nop
3898 00                         nop
3899 00                         nop
389A 00                         nop
389B 00                         nop
389C 00                         nop
389D 00                         nop
389E 00                         nop
389F 00                         nop
38A0 00                         nop
38A1 00                         nop
38A2 00                         nop
38A3 00                         nop
38A4 00                         nop
38A5 00                         nop
38A6 00                         nop
38A7 00                         nop
38A8 00                         nop
38A9 00                         nop
38AA 00                         nop
38AB 00                         nop
38AC 00                         nop
38AD 00                         nop
38AE 00                         nop
38AF 00                         nop
38B0 00                         nop
38B1 00                         nop
38B2 00                         nop
38B3 00                         nop
38B4 00                         nop
38B5 00                         nop
38B6 00                         nop
38B7 00                         nop
38B8 00                         nop
38B9 00                         nop
38BA 00                         nop
38BB 00                         nop
38BC 00                         nop
38BD 00                         nop
38BE 00                         nop
38BF 00                         nop
38C0 00                         nop
38C1 00                         nop
38C2 00                         nop
38C3 00                         nop
38C4 00                         nop
38C5 00                         nop
38C6 00                         nop
38C7 00                         nop
38C8 00                         nop
38C9 00                         nop
38CA 00                         nop
38CB 00                         nop
38CC 00                         nop
38CD 00                         nop
38CE 00                         nop
38CF 00                         nop
38D0 00                         nop
38D1 00                         nop
38D2 00                         nop
38D3 00                         nop
38D4 00                         nop
38D5 00                         nop
38D6 00                         nop
38D7 00                         nop
38D8 00                         nop
38D9 00                         nop
38DA 00                         nop
38DB 00                         nop
38DC 00                         nop
38DD 00                         nop
38DE 00                         nop
38DF 00                         nop
38E0 00                         nop
38E1 00                         nop
38E2 00                         nop
38E3 00                         nop
38E4 00                         nop
38E5 00                         nop
38E6 00                         nop
38E7 00                         nop
38E8 00                         nop
38E9 00                         nop
38EA 00                         nop
38EB 00                         nop
38EC 00                         nop
38ED 00                         nop
38EE 00                         nop
38EF 00                         nop
38F0 00                         nop
38F1 00                         nop
38F2 00                         nop
38F3 00                         nop
38F4 00                         nop
38F5 00                         nop
38F6 00                         nop
38F7 00                         nop
38F8 00                         nop
38F9 00                         nop
38FA 00                         nop
38FB 00                         nop
38FC 00                         nop
38FD 00                         nop
38FE 00                         nop
38FF 00                         nop
3900 00                         nop
3901 00                         nop
3902 00                         nop
3903 00                         nop
3904 00                         nop
3905 00                         nop
3906 00                         nop
3907 00                         nop
3908 00                         nop
3909 00                         nop
390A 00                         nop
390B 00                         nop
390C 00                         nop
390D 00                         nop
390E 00                         nop
390F 00                         nop
3910 00                         nop
3911 00                         nop
3912 00                         nop
3913 00                         nop
3914 00                         nop
3915 00                         nop
3916 00                         nop
3917 00                         nop
3918 00                         nop
3919 00                         nop
391A 00                         nop
391B 00                         nop
391C 00                         nop
391D 00                         nop
391E 00                         nop
391F 00                         nop
3920 00                         nop
3921 00                         nop
3922 00                         nop
3923 00                         nop
3924 00                         nop
3925 00                         nop
3926 00                         nop
3927 00                         nop
3928 00                         nop
3929 00                         nop
392A 00                         nop
392B 00                         nop
392C 00                         nop
392D 00                         nop
392E 00                         nop
392F 00                         nop
3930 00                         nop
3931 00                         nop
3932 00                         nop
3933 00                         nop
3934 00                         nop
3935 00                         nop
3936 00                         nop
3937 00                         nop
3938 00                         nop
3939 00                         nop
393A 00                         nop
393B 00                         nop
393C 00                         nop
393D 00                         nop
393E 00                         nop
393F 00                         nop
3940 00                         nop
3941 00                         nop
3942 00                         nop
3943 00                         nop
3944 00                         nop
3945 00                         nop
3946 00                         nop
3947 00                         nop
3948 00                         nop
3949 00                         nop
394A 00                         nop
394B 00                         nop
394C 00                         nop
394D 00                         nop
394E 00                         nop
394F 00                         nop
3950 00                         nop
3951 00                         nop
3952 00                         nop
3953 00                         nop
3954 00                         nop
3955 00                         nop
3956 00                         nop
3957 00                         nop
3958 00                         nop
3959 00                         nop
395A 00                         nop
395B 00                         nop
395C 00                         nop
395D 00                         nop
395E 00                         nop
395F 00                         nop
3960 00                         nop
3961 00                         nop
3962 00                         nop
3963 00                         nop
3964 00                         nop
3965 00                         nop
3966 00                         nop
3967 00                         nop
3968 00                         nop
3969 00                         nop
396A 00                         nop
396B 00                         nop
396C 00                         nop
396D 00                         nop
396E 00                         nop
396F 00                         nop
3970 00                         nop
3971 00                         nop
3972 00                         nop
3973 00                         nop
3974 00                         nop
3975 00                         nop
3976 00                         nop
3977 00                         nop
3978 00                         nop
3979 00                         nop
397A 00                         nop
397B 00                         nop
397C 00                         nop
397D 00                         nop
397E 00                         nop
397F 00                         nop
3980 00                         nop
3981 00                         nop
3982 00                         nop
3983 00                         nop
3984 00                         nop
3985 00                         nop
3986 00                         nop
3987 00                         nop
3988 00                         nop
3989 00                         nop
398A 00                         nop
398B 00                         nop
398C 00                         nop
398D 00                         nop
398E 00                         nop
398F 00                         nop
3990 00                         nop
3991 00                         nop
3992 00                         nop
3993 00                         nop
3994 00                         nop
3995 00                         nop
3996 00                         nop
3997 00                         nop
3998 00                         nop
3999 00                         nop
399A 00                         nop
399B 00                         nop
399C 00                         nop
399D 00                         nop
399E 00                         nop
399F 00                         nop
39A0 00                         nop
39A1 00                         nop
39A2 00                         nop
39A3 00                         nop
39A4 00                         nop
39A5 00                         nop
39A6 00                         nop
39A7 00                         nop
39A8 00                         nop
39A9 00                         nop
39AA 00                         nop
39AB 00                         nop
39AC 00                         nop
39AD 00                         nop
39AE 00                         nop
39AF 00                         nop
39B0 00                         nop
39B1 00                         nop
39B2 00                         nop
39B3 00                         nop
39B4 00                         nop
39B5 00                         nop
39B6 00                         nop
39B7 00                         nop
39B8 00                         nop
39B9 00                         nop
39BA 00                         nop
39BB 00                         nop
39BC 00                         nop
39BD 00                         nop
39BE 00                         nop
39BF 00                         nop
39C0 00                         nop
39C1 00                         nop
39C2 00                         nop
39C3 00                         nop
39C4 00                         nop
39C5 00                         nop
39C6 00                         nop
39C7 00                         nop
39C8 00                         nop
39C9 00                         nop
39CA 00                         nop
39CB 00                         nop
39CC 00                         nop
39CD 00                         nop
39CE 00                         nop
39CF 00                         nop
39D0 00                         nop
39D1 00                         nop
39D2 00                         nop
39D3 00                         nop
39D4 00                         nop
39D5 00                         nop
39D6 00                         nop
39D7 00                         nop
39D8 00                         nop
39D9 00                         nop
39DA 00                         nop
39DB 00                         nop
39DC 00                         nop
39DD 00                         nop
39DE 00                         nop
39DF 00                         nop
39E0 00                         nop
39E1 00                         nop
39E2 00                         nop
39E3 00                         nop
39E4 00                         nop
39E5 00                         nop
39E6 00                         nop
39E7 00                         nop
39E8 00                         nop
39E9 00                         nop
39EA 00                         nop
39EB 00                         nop
39EC 00                         nop
39ED 00                         nop
39EE 00                         nop
39EF 00                         nop
39F0 00                         nop
39F1 00                         nop
39F2 00                         nop
39F3 00                         nop
39F4 00                         nop
39F5 00                         nop
39F6 00                         nop
39F7 00                         nop
39F8 00                         nop
39F9 00                         nop
39FA 00                         nop
39FB 00                         nop
39FC 00                         nop
39FD 00                         nop
39FE 00                         nop
39FF 00                         nop
3A00 00                         nop
3A01 00                         nop
3A02 00                         nop
3A03 00                         nop
3A04 00                         nop
3A05 00                         nop
3A06 00                         nop
3A07 00                         nop
3A08 00                         nop
3A09 00                         nop
3A0A 00                         nop
3A0B 00                         nop
3A0C 00                         nop
3A0D 00                         nop
3A0E 00                         nop
3A0F 00                         nop
3A10 00                         nop
3A11 00                         nop
3A12 00                         nop
3A13 00                         nop
3A14 00                         nop
3A15 00                         nop
3A16 00                         nop
3A17 00                         nop
3A18 00                         nop
3A19 00                         nop
3A1A 00                         nop
3A1B 00                         nop
3A1C 00                         nop
3A1D 00                         nop
3A1E 00                         nop
3A1F 00                         nop
3A20 00                         nop
3A21 00                         nop
3A22 00                         nop
3A23 00                         nop
3A24 00                         nop
3A25 00                         nop
3A26 00                         nop
3A27 00                         nop
3A28 00                         nop
3A29 00                         nop
3A2A 00                         nop
3A2B 00                         nop
3A2C 00                         nop
3A2D 00                         nop
3A2E 00                         nop
3A2F 00                         nop
3A30 00                         nop
3A31 00                         nop
3A32 00                         nop
3A33 00                         nop
3A34 00                         nop
3A35 00                         nop
3A36 00                         nop
3A37 00                         nop
3A38 00                         nop
3A39 00                         nop
3A3A 00                         nop
3A3B 00                         nop
3A3C 00                         nop
3A3D 00                         nop
3A3E 00                         nop
3A3F 00                         nop
3A40 00                         nop
3A41 00                         nop
3A42 00                         nop
3A43 00                         nop
3A44 00                         nop
3A45 00                         nop
3A46 00                         nop
3A47 00                         nop
3A48 00                         nop
3A49 00                         nop
3A4A 00                         nop
3A4B 00                         nop
3A4C 00                         nop
3A4D 00                         nop
3A4E 00                         nop
3A4F 00                         nop
3A50 00                         nop
3A51 00                         nop
3A52 00                         nop
3A53 00                         nop
3A54 00                         nop
3A55 00                         nop
3A56 00                         nop
3A57 00                         nop
3A58 00                         nop
3A59 00                         nop
3A5A 00                         nop
3A5B 00                         nop
3A5C 00                         nop
3A5D 00                         nop
3A5E 00                         nop
3A5F 00                         nop
3A60 00                         nop
3A61 00                         nop
3A62 00                         nop
3A63 00                         nop
3A64 00                         nop
3A65 00                         nop
3A66 00                         nop
3A67 00                         nop
3A68 00                         nop
3A69 00                         nop
3A6A 00                         nop
3A6B 00                         nop
3A6C 00                         nop
3A6D 00                         nop
3A6E 00                         nop
3A6F 00                         nop
3A70 00                         nop
3A71 00                         nop
3A72 00                         nop
3A73 00                         nop
3A74 00                         nop
3A75 00                         nop
3A76 00                         nop
3A77 00                         nop
3A78 00                         nop
3A79 00                         nop
3A7A 00                         nop
3A7B 00                         nop
3A7C 00                         nop
3A7D 00                         nop
3A7E 00                         nop
3A7F 00                         nop
3A80 00                         nop
3A81 00                         nop
3A82 00                         nop
3A83 00                         nop
3A84 00                         nop
3A85 00                         nop
3A86 00                         nop
3A87 00                         nop
3A88 00                         nop
3A89 00                         nop
3A8A 00                         nop
3A8B 00                         nop
3A8C 00                         nop
3A8D 00                         nop
3A8E 00                         nop
3A8F 00                         nop
3A90 00                         nop
3A91 00                         nop
3A92 00                         nop
3A93 00                         nop
3A94 00                         nop
3A95 00                         nop
3A96 00                         nop
3A97 00                         nop
3A98 00                         nop
3A99 00                         nop
3A9A 00                         nop
3A9B 00                         nop
3A9C 00                         nop
3A9D 00                         nop
3A9E 00                         nop
3A9F 00                         nop
3AA0 00                         nop
3AA1 00                         nop
3AA2 00                         nop
3AA3 00                         nop
3AA4 00                         nop
3AA5 00                         nop
3AA6 00                         nop
3AA7 00                         nop
3AA8 00                         nop
3AA9 00                         nop
3AAA 00                         nop
3AAB 00                         nop
3AAC 00                         nop
3AAD 00                         nop
3AAE 00                         nop
3AAF 00                         nop
3AB0 00                         nop
3AB1 00                         nop
3AB2 00                         nop
3AB3 00                         nop
3AB4 00                         nop
3AB5 00                         nop
3AB6 00                         nop
3AB7 00                         nop
3AB8 00                         nop
3AB9 00                         nop
3ABA 00                         nop
3ABB 00                         nop
3ABC 00                         nop
3ABD 00                         nop
3ABE 00                         nop
3ABF 00                         nop
3AC0 00                         nop
3AC1 00                         nop
3AC2 00                         nop
3AC3 00                         nop
3AC4 00                         nop
3AC5 00                         nop
3AC6 00                         nop
3AC7 00                         nop
3AC8 00                         nop
3AC9 00                         nop
3ACA 00                         nop
3ACB 00                         nop
3ACC 00                         nop
3ACD 00                         nop
3ACE 00                         nop
3ACF 00                         nop
3AD0 00                         nop
3AD1 00                         nop
3AD2 00                         nop
3AD3 00                         nop
3AD4 00                         nop
3AD5 00                         nop
3AD6 00                         nop
3AD7 00                         nop
3AD8 00                         nop
3AD9 00                         nop
3ADA 00                         nop
3ADB 00                         nop
3ADC 00                         nop
3ADD 00                         nop
3ADE 00                         nop
3ADF 00                         nop
3AE0 00                         nop
3AE1 00                         nop
3AE2 00                         nop
3AE3 00                         nop
3AE4 00                         nop
3AE5 00                         nop
3AE6 00                         nop
3AE7 00                         nop
3AE8 00                         nop
3AE9 00                         nop
3AEA 00                         nop
3AEB 00                         nop
3AEC 00                         nop
3AED 00                         nop
3AEE 00                         nop
3AEF 00                         nop
3AF0 00                         nop
3AF1 00                         nop
3AF2 00                         nop
3AF3 00                         nop
3AF4 00                         nop
3AF5 00                         nop
3AF6 00                         nop
3AF7 00                         nop
3AF8 00                         nop
3AF9 00                         nop
3AFA 00                         nop
3AFB 00                         nop
3AFC 00                         nop
3AFD 00                         nop
3AFE 00                         nop
3AFF 00                         nop
3B00 00                         nop
3B01 00                         nop
3B02 00                         nop
3B03 00                         nop
3B04 00                         nop
3B05 00                         nop
3B06 00                         nop
3B07 00                         nop
3B08 00                         nop
3B09 00                         nop
3B0A 00                         nop
3B0B 00                         nop
3B0C 00                         nop
3B0D 00                         nop
3B0E 00                         nop
3B0F 00                         nop
3B10 00                         nop
3B11 00                         nop
3B12 00                         nop
3B13 00                         nop
3B14 00                         nop
3B15 00                         nop
3B16 00                         nop
3B17 00                         nop
3B18 00                         nop
3B19 00                         nop
3B1A 00                         nop
3B1B 00                         nop
3B1C 00                         nop
3B1D 00                         nop
3B1E 00                         nop
3B1F 00                         nop
3B20 00                         nop
3B21 00                         nop
3B22 00                         nop
3B23 00                         nop
3B24 00                         nop
3B25 00                         nop
3B26 00                         nop
3B27 00                         nop
3B28 00                         nop
3B29 00                         nop
3B2A 00                         nop
3B2B 00                         nop
3B2C 00                         nop
3B2D 00                         nop
3B2E 00                         nop
3B2F 00                         nop
3B30 00                         nop
3B31 00                         nop
3B32 00                         nop
3B33 00                         nop
3B34 00                         nop
3B35 00                         nop
3B36 00                         nop
3B37 00                         nop
3B38 00                         nop
3B39 00                         nop
3B3A 00                         nop
3B3B 00                         nop
3B3C 00                         nop
3B3D 00                         nop
3B3E 00                         nop
3B3F 00                         nop
3B40 00                         nop
3B41 00                         nop
3B42 00                         nop
3B43 00                         nop
3B44 00                         nop
3B45 00                         nop
3B46 00                         nop
3B47 00                         nop
3B48 00                         nop
3B49 00                         nop
3B4A 00                         nop
3B4B 00                         nop
3B4C 00                         nop
3B4D 00                         nop
3B4E 00                         nop
3B4F 00                         nop
3B50 00                         nop
3B51 00                         nop
3B52 00                         nop
3B53 00                         nop
3B54 00                         nop
3B55 00                         nop
3B56 00                         nop
3B57 00                         nop
3B58 00                         nop
3B59 00                         nop
3B5A 00                         nop
3B5B 00                         nop
3B5C 00                         nop
3B5D 00                         nop
3B5E 00                         nop
3B5F 00                         nop
3B60 00                         nop
3B61 00                         nop
3B62 00                         nop
3B63 00                         nop
3B64 00                         nop
3B65 00                         nop
3B66 00                         nop
3B67 00                         nop
3B68 00                         nop
3B69 00                         nop
3B6A 00                         nop
3B6B 00                         nop
3B6C 00                         nop
3B6D 00                         nop
3B6E 00                         nop
3B6F 00                         nop
3B70 00                         nop
3B71 00                         nop
3B72 00                         nop
3B73 00                         nop
3B74 00                         nop
3B75 00                         nop
3B76 00                         nop
3B77 00                         nop
3B78 00                         nop
3B79 00                         nop
3B7A 00                         nop
3B7B 00                         nop
3B7C 00                         nop
3B7D 00                         nop
3B7E 00                         nop
3B7F 00                         nop
3B80 00                         nop
3B81 00                         nop
3B82 00                         nop
3B83 00                         nop
3B84 00                         nop
3B85 00                         nop
3B86 00                         nop
3B87 00                         nop
3B88 00                         nop
3B89 00                         nop
3B8A 00                         nop
3B8B 00                         nop
3B8C 00                         nop
3B8D 00                         nop
3B8E 00                         nop
3B8F 00                         nop
3B90 00                         nop
3B91 00                         nop
3B92 00                         nop
3B93 00                         nop
3B94 00                         nop
3B95 00                         nop
3B96 00                         nop
3B97 00                         nop
3B98 00                         nop
3B99 00                         nop
3B9A 00                         nop
3B9B 00                         nop
3B9C 00                         nop
3B9D 00                         nop
3B9E 00                         nop
3B9F 00                         nop
3BA0 00                         nop
3BA1 00                         nop
3BA2 00                         nop
3BA3 00                         nop
3BA4 00                         nop
3BA5 00                         nop
3BA6 00                         nop
3BA7 00                         nop
3BA8 00                         nop
3BA9 00                         nop
3BAA 00                         nop
3BAB 00                         nop
3BAC 00                         nop
3BAD 00                         nop
3BAE 00                         nop
3BAF 00                         nop
3BB0 00                         nop
3BB1 00                         nop
3BB2 00                         nop
3BB3 00                         nop
3BB4 00                         nop
3BB5 00                         nop
3BB6 00                         nop
3BB7 00                         nop
3BB8 00                         nop
3BB9 00                         nop
3BBA 00                         nop
3BBB 00                         nop
3BBC 00                         nop
3BBD 00                         nop
3BBE 00                         nop
3BBF 00                         nop
3BC0 00                         nop
3BC1 00                         nop
3BC2 00                         nop
3BC3 00                         nop
3BC4 00                         nop
3BC5 00                         nop
3BC6 00                         nop
3BC7 00                         nop
3BC8 00                         nop
3BC9 00                         nop
3BCA 00                         nop
3BCB 00                         nop
3BCC 00                         nop
3BCD 00                         nop
3BCE 00                         nop
3BCF 00                         nop
3BD0 00                         nop
3BD1 00                         nop
3BD2 00                         nop
3BD3 00                         nop
3BD4 00                         nop
3BD5 00                         nop
3BD6 00                         nop
3BD7 00                         nop
3BD8 00                         nop
3BD9 00                         nop
3BDA 00                         nop
3BDB 00                         nop
3BDC 00                         nop
3BDD 00                         nop
3BDE 00                         nop
3BDF 00                         nop
3BE0 00                         nop
3BE1 00                         nop
3BE2 00                         nop
3BE3 00                         nop
3BE4 00                         nop
3BE5 00                         nop
3BE6 00                         nop
3BE7 00                         nop
3BE8 00                         nop
3BE9 00                         nop
3BEA 00                         nop
3BEB 00                         nop
3BEC 00                         nop
3BED 00                         nop
3BEE 00                         nop
3BEF 00                         nop
3BF0 00                         nop
3BF1 00                         nop
3BF2 00                         nop
3BF3 00                         nop
3BF4 00                         nop
3BF5 00                         nop
3BF6 00                         nop
3BF7 00                         nop
3BF8 00                         nop
3BF9 00                         nop
3BFA 00                         nop
3BFB 00                         nop
3BFC 00                         nop
3BFD 00                         nop
3BFE 00                         nop
3BFF 00                         nop
3C00 00                         nop
3C01 00                         nop
3C02 00                         nop
3C03 00                         nop
3C04 00                         nop
3C05 00                         nop
3C06 00                         nop
3C07 00                         nop
3C08 00                         nop
3C09 00                         nop
3C0A 00                         nop
3C0B 00                         nop
3C0C 00                         nop
3C0D 00                         nop
3C0E 00                         nop
3C0F 00                         nop
3C10 00                         nop
3C11 00                         nop
3C12 00                         nop
3C13 00                         nop
3C14 00                         nop
3C15 00                         nop
3C16 00                         nop
3C17 00                         nop
3C18 00                         nop
3C19 00                         nop
3C1A 00                         nop
3C1B 00                         nop
3C1C 00                         nop
3C1D 00                         nop
3C1E 00                         nop
3C1F 00                         nop
3C20 00                         nop
3C21 00                         nop
3C22 00                         nop
3C23 00                         nop
3C24 00                         nop
3C25 00                         nop
3C26 00                         nop
3C27 00                         nop
3C28 00                         nop
3C29 00                         nop
3C2A 00                         nop
3C2B 00                         nop
3C2C 00                         nop
3C2D 00                         nop
3C2E 00                         nop
3C2F 00                         nop
3C30 00                         nop
3C31 00                         nop
3C32 00                         nop
3C33 00                         nop
3C34 00                         nop
3C35 00                         nop
3C36 00                         nop
3C37 00                         nop
3C38 00                         nop
3C39 00                         nop
3C3A 00                         nop
3C3B 00                         nop
3C3C 00                         nop
3C3D 00                         nop
3C3E 00                         nop
3C3F 00                         nop
3C40 00                         nop
3C41 00                         nop
3C42 00                         nop
3C43 00                         nop
3C44 00                         nop
3C45 00                         nop
3C46 00                         nop
3C47 00                         nop
3C48 00                         nop
3C49 00                         nop
3C4A 00                         nop
3C4B 00                         nop
3C4C 00                         nop
3C4D 00                         nop
3C4E 00                         nop
3C4F 00                         nop
3C50 00                         nop
3C51 00                         nop
3C52 00                         nop
3C53 00                         nop
3C54 00                         nop
3C55 00                         nop
3C56 00                         nop
3C57 00                         nop
3C58 00                         nop
3C59 00                         nop
3C5A 00                         nop
3C5B 00                         nop
3C5C 00                         nop
3C5D 00                         nop
3C5E 00                         nop
3C5F 00                         nop
3C60 00                         nop
3C61 00                         nop
3C62 00                         nop
3C63 00                         nop
3C64 00                         nop
3C65 00                         nop
3C66 00                         nop
3C67 00                         nop
3C68 00                         nop
3C69 00                         nop
3C6A 00                         nop
3C6B 00                         nop
3C6C 00                         nop
3C6D 00                         nop
3C6E 00                         nop
3C6F 00                         nop
3C70 00                         nop
3C71 00                         nop
3C72 00                         nop
3C73 00                         nop
3C74 00                         nop
3C75 00                         nop
3C76 00                         nop
3C77 00                         nop
3C78 00                         nop
3C79 00                         nop
3C7A 00                         nop
3C7B 00                         nop
3C7C 00                         nop
3C7D 00                         nop
3C7E 00                         nop
3C7F 00                         nop
3C80 00                         nop
3C81 00                         nop
3C82 00                         nop
3C83 00                         nop
3C84 00                         nop
3C85 00                         nop
3C86 00                         nop
3C87 00                         nop
3C88 00                         nop
3C89 00                         nop
3C8A 00                         nop
3C8B 00                         nop
3C8C 00                         nop
3C8D 00                         nop
3C8E 00                         nop
3C8F 00                         nop
3C90 00                         nop
3C91 00                         nop
3C92 00                         nop
3C93 00                         nop
3C94 00                         nop
3C95 00                         nop
3C96 00                         nop
3C97 00                         nop
3C98 00                         nop
3C99 00                         nop
3C9A 00                         nop
3C9B 00                         nop
3C9C 00                         nop
3C9D 00                         nop
3C9E 00                         nop
3C9F 00                         nop
3CA0 00                         nop
3CA1 00                         nop
3CA2 00                         nop
3CA3 00                         nop
3CA4 00                         nop
3CA5 00                         nop
3CA6 00                         nop
3CA7 00                         nop
3CA8 00                         nop
3CA9 00                         nop
3CAA 00                         nop
3CAB 00                         nop
3CAC 00                         nop
3CAD 00                         nop
3CAE 00                         nop
3CAF 00                         nop
3CB0 00                         nop
3CB1 00                         nop
3CB2 00                         nop
3CB3 00                         nop
3CB4 00                         nop
3CB5 00                         nop
3CB6 00                         nop
3CB7 00                         nop
3CB8 00                         nop
3CB9 00                         nop
3CBA 00                         nop
3CBB 00                         nop
3CBC 00                         nop
3CBD 00                         nop
3CBE 00                         nop
3CBF 00                         nop
3CC0 00                         nop
3CC1 00                         nop
3CC2 00                         nop
3CC3 00                         nop
3CC4 00                         nop
3CC5 00                         nop
3CC6 00                         nop
3CC7 00                         nop
3CC8 00                         nop
3CC9 00                         nop
3CCA 00                         nop
3CCB 00                         nop
3CCC 00                         nop
3CCD 00                         nop
3CCE 00                         nop
3CCF 00                         nop
3CD0 00                         nop
3CD1 00                         nop
3CD2 00                         nop
3CD3 00                         nop
3CD4 00                         nop
3CD5 00                         nop
3CD6 00                         nop
3CD7 00                         nop
3CD8 00                         nop
3CD9 00                         nop
3CDA 00                         nop
3CDB 00                         nop
3CDC 00                         nop
3CDD 00                         nop
3CDE 00                         nop
3CDF 00                         nop
3CE0 00                         nop
3CE1 00                         nop
3CE2 00                         nop
3CE3 00                         nop
3CE4 00                         nop
3CE5 00                         nop
3CE6 00                         nop
3CE7 00                         nop
3CE8 00                         nop
3CE9 00                         nop
3CEA 00                         nop
3CEB 00                         nop
3CEC 00                         nop
3CED 00                         nop
3CEE 00                         nop
3CEF 00                         nop
3CF0 00                         nop
3CF1 00                         nop
3CF2 00                         nop
3CF3 00                         nop
3CF4 00                         nop
3CF5 00                         nop
3CF6 00                         nop
3CF7 00                         nop
3CF8 00                         nop
3CF9 00                         nop
3CFA 00                         nop
3CFB 00                         nop
3CFC 00                         nop
3CFD 00                         nop
3CFE 00                         nop
3CFF 00                         nop
3D00 00                         nop
3D01 00                         nop
3D02 00                         nop
3D03 00                         nop
3D04 00                         nop
3D05 00                         nop
3D06 00                         nop
3D07 00                         nop
3D08 00                         nop
3D09 00                         nop
3D0A 00                         nop
3D0B 00                         nop
3D0C 00                         nop
3D0D 00                         nop
3D0E 00                         nop
3D0F 00                         nop
3D10 00                         nop
3D11 00                         nop
3D12 00                         nop
3D13 00                         nop
3D14 00                         nop
3D15 00                         nop
3D16 00                         nop
3D17 00                         nop
3D18 00                         nop
3D19 00                         nop
3D1A 00                         nop
3D1B 00                         nop
3D1C 00                         nop
3D1D 00                         nop
3D1E 00                         nop
3D1F 00                         nop
3D20 00                         nop
3D21 00                         nop
3D22 00                         nop
3D23 00                         nop
3D24 00                         nop
3D25 00                         nop
3D26 00                         nop
3D27 00                         nop
3D28 00                         nop
3D29 00                         nop
3D2A 00                         nop
3D2B 00                         nop
3D2C 00                         nop
3D2D 00                         nop
3D2E 00                         nop
3D2F 00                         nop
3D30 00                         nop
3D31 00                         nop
3D32 00                         nop
3D33 00                         nop
3D34 00                         nop
3D35 00                         nop
3D36 00                         nop
3D37 00                         nop
3D38 00                         nop
3D39 00                         nop
3D3A 00                         nop
3D3B 00                         nop
3D3C 00                         nop
3D3D 00                         nop
3D3E 00                         nop
3D3F 00                         nop
3D40 00                         nop
3D41 00                         nop
3D42 00                         nop
3D43 00                         nop
3D44 00                         nop
3D45 00                         nop
3D46 00                         nop
3D47 00                         nop
3D48 00                         nop
3D49 00                         nop
3D4A 00                         nop
3D4B 00                         nop
3D4C 00                         nop
3D4D 00                         nop
3D4E 00                         nop
3D4F 00                         nop
3D50 00                         nop
3D51 00                         nop
3D52 00                         nop
3D53 00                         nop
3D54 00                         nop
3D55 00                         nop
3D56 00                         nop
3D57 00                         nop
3D58 00                         nop
3D59 00                         nop
3D5A 00                         nop
3D5B 00                         nop
3D5C 00                         nop
3D5D 00                         nop
3D5E 00                         nop
3D5F 00                         nop
3D60 00                         nop
3D61 00                         nop
3D62 00                         nop
3D63 00                         nop
3D64 00                         nop
3D65 00                         nop
3D66 00                         nop
3D67 00                         nop
3D68 00                         nop
3D69 00                         nop
3D6A 00                         nop
3D6B 00                         nop
3D6C 00                         nop
3D6D 00                         nop
3D6E 00                         nop
3D6F 00                         nop
3D70 00                         nop
3D71 00                         nop
3D72 00                         nop
3D73 00                         nop
3D74 00                         nop
3D75 00                         nop
3D76 00                         nop
3D77 00                         nop
3D78 00                         nop
3D79 00            L3D79:       nop
3D7A 00                         nop
3D7B 00                         nop
3D7C 00                         nop
3D7D 00                         nop
3D7E 00                         nop
3D7F 00                         nop
3D80 00                         nop
3D81 00                         nop
3D82 00                         nop
3D83 00                         nop
3D84 00                         nop
3D85 00                         nop
3D86 00                         nop
3D87 00                         nop
3D88 00                         nop
3D89 00                         nop
3D8A 00                         nop
3D8B 00                         nop
3D8C 00                         nop
3D8D 00                         nop
3D8E 00                         nop
3D8F 00                         nop
3D90 00                         nop
3D91 00                         nop
3D92 00                         nop
3D93 00                         nop
3D94 00                         nop
3D95 00                         nop
3D96 00                         nop
3D97 00                         nop
3D98 00                         nop
3D99 00                         nop
3D9A 00                         nop
3D9B 00                         nop
3D9C 00                         nop
3D9D 00                         nop
3D9E 00                         nop
3D9F 00                         nop
3DA0 00                         nop
3DA1 00                         nop
3DA2 00                         nop
3DA3 00                         nop
3DA4 00                         nop
3DA5 00                         nop
3DA6 00                         nop
3DA7 00                         nop
3DA8 00                         nop
3DA9 00                         nop
3DAA 00                         nop
3DAB 00                         nop
3DAC 00                         nop
3DAD 00                         nop
3DAE 00                         nop
3DAF 00                         nop
3DB0 00                         nop
3DB1 00                         nop
3DB2 00                         nop
3DB3 00                         nop
3DB4 00                         nop
3DB5 00                         nop
3DB6 00                         nop
3DB7 00                         nop
3DB8 00                         nop
3DB9 00                         nop
3DBA 00                         nop
3DBB 00                         nop
3DBC 00                         nop
3DBD 00                         nop
3DBE 00                         nop
3DBF 00                         nop
3DC0 00                         nop
3DC1 00                         nop
3DC2 00                         nop
3DC3 00                         nop
3DC4 00                         nop
3DC5 00                         nop
3DC6 00                         nop
3DC7 00                         nop
3DC8 00                         nop
3DC9 00                         nop
3DCA 00                         nop
3DCB 00                         nop
3DCC 00                         nop
3DCD 00                         nop
3DCE 00                         nop
3DCF 00                         nop
3DD0 00                         nop
3DD1 00                         nop
3DD2 00                         nop
3DD3 00                         nop
3DD4 00                         nop
3DD5 00                         nop
3DD6 00                         nop
3DD7 00                         nop
3DD8 00                         nop
3DD9 00                         nop
3DDA 00                         nop
3DDB 00                         nop
3DDC 00                         nop
3DDD 00                         nop
3DDE 00                         nop
3DDF 00                         nop
3DE0 00                         nop
3DE1 00                         nop
3DE2 00                         nop
3DE3 00                         nop
3DE4 00                         nop
3DE5 00                         nop
3DE6 00                         nop
3DE7 00                         nop
3DE8 00                         nop
3DE9 00                         nop
3DEA 00                         nop
3DEB 00                         nop
3DEC 00                         nop
3DED 00                         nop
3DEE 00                         nop
3DEF 00                         nop
3DF0 00                         nop
3DF1 00                         nop
3DF2 00                         nop
3DF3 00                         nop
3DF4 00                         nop
3DF5 00                         nop
3DF6 00                         nop
3DF7 00                         nop
3DF8 00                         nop
3DF9 00                         nop
3DFA 00                         nop
3DFB 00                         nop
3DFC 00                         nop
3DFD 00                         nop
3DFE 00                         nop
3DFF 00                         nop
3E00 00                         nop
3E01 00                         nop
3E02 00                         nop
3E03 00                         nop
3E04 00                         nop
3E05 00            L3E05:       nop
3E06 00                         nop
3E07 00                         nop
3E08 00                         nop
3E09 00                         nop
3E0A 00                         nop
3E0B 00                         nop
3E0C 00                         nop
3E0D 00                         nop
3E0E 00                         nop
3E0F 00                         nop
3E10 00                         nop
3E11 00                         nop
3E12 00                         nop
3E13 00                         nop
3E14 00                         nop
3E15 00                         nop
3E16 00                         nop
3E17 00                         nop
3E18 00                         nop
3E19 00                         nop
3E1A 00                         nop
3E1B 00                         nop
3E1C 00                         nop
3E1D 00                         nop
3E1E 00                         nop
3E1F 00                         nop
3E20 00                         nop
3E21 00                         nop
3E22 00                         nop
3E23 00                         nop
3E24 00                         nop
3E25 00                         nop
3E26 00                         nop
3E27 00                         nop
3E28 00                         nop
3E29 00                         nop
3E2A 00                         nop
3E2B 00                         nop
3E2C 00                         nop
3E2D 00                         nop
3E2E 00                         nop
3E2F 00                         nop
3E30 00                         nop
3E31 00                         nop
3E32 00                         nop
3E33 00                         nop
3E34 00                         nop
3E35 00                         nop
3E36 00                         nop
3E37 00                         nop
3E38 00                         nop
3E39 00                         nop
3E3A 00                         nop
3E3B 00                         nop
3E3C 00                         nop
3E3D 00                         nop
3E3E 00                         nop
3E3F 00                         nop
3E40 00                         nop
3E41 00                         nop
3E42 00                         nop
3E43 00                         nop
3E44 00                         nop
3E45 00                         nop
3E46 00                         nop
3E47 00                         nop
3E48 00                         nop
3E49 00                         nop
3E4A 00                         nop
3E4B 00                         nop
3E4C 00                         nop
3E4D 00                         nop
3E4E 00                         nop
3E4F 00                         nop
3E50 00                         nop
3E51 00                         nop
3E52 00                         nop
3E53 00                         nop
3E54 00                         nop
3E55 00                         nop
3E56 00                         nop
3E57 00                         nop
3E58 00                         nop
3E59 00                         nop
3E5A 00                         nop
3E5B 00                         nop
3E5C 00                         nop
3E5D 00                         nop
3E5E 00                         nop
3E5F 00                         nop
3E60 00                         nop
3E61 00                         nop
3E62 00                         nop
3E63 00                         nop
3E64 00                         nop
3E65 00                         nop
3E66 00                         nop
3E67 00                         nop
3E68 00                         nop
3E69 00                         nop
3E6A 00                         nop
3E6B 00                         nop
3E6C 00                         nop
3E6D 00                         nop
3E6E 00                         nop
3E6F 00                         nop
3E70 00                         nop
3E71 00                         nop
3E72 00                         nop
3E73 00                         nop
3E74 00                         nop
3E75 00                         nop
3E76 00                         nop
3E77 00                         nop
3E78 00                         nop
3E79 00                         nop
3E7A 00                         nop
3E7B 00                         nop
3E7C 00                         nop
3E7D 00                         nop
3E7E 00                         nop
3E7F 00                         nop
3E80 00                         nop
3E81 00                         nop
3E82 00                         nop
3E83 00                         nop
3E84 00                         nop
3E85 00                         nop
3E86 00                         nop
3E87 00                         nop
3E88 00                         nop
3E89 00                         nop
3E8A 00                         nop
3E8B 00                         nop
3E8C 00                         nop
3E8D 00                         nop
3E8E 00                         nop
3E8F 00                         nop
3E90 00                         nop
3E91 00                         nop
3E92 00                         nop
3E93 00                         nop
3E94 00                         nop
3E95 00                         nop
3E96 00                         nop
3E97 00                         nop
3E98 00                         nop
3E99 00                         nop
3E9A 00                         nop
3E9B 00                         nop
3E9C 00                         nop
3E9D 00                         nop
3E9E 00                         nop
3E9F 00                         nop
3EA0 00                         nop
3EA1 00                         nop
3EA2 00                         nop
3EA3 00                         nop
3EA4 00                         nop
3EA5 00                         nop
3EA6 00                         nop
3EA7 00                         nop
3EA8 00                         nop
3EA9 00                         nop
3EAA 00                         nop
3EAB 00                         nop
3EAC 00                         nop
3EAD 00                         nop
3EAE 00                         nop
3EAF 00                         nop
3EB0 00                         nop
3EB1 00                         nop
3EB2 00                         nop
3EB3 00                         nop
3EB4 00                         nop
3EB5 00                         nop
3EB6 00                         nop
3EB7 00                         nop
3EB8 00                         nop
3EB9 00                         nop
3EBA 00                         nop
3EBB 00                         nop
3EBC 00                         nop
3EBD 00                         nop
3EBE 00                         nop
3EBF 00                         nop
3EC0 00                         nop
3EC1 00                         nop
3EC2 00                         nop
3EC3 00                         nop
3EC4 00                         nop
3EC5 00                         nop
3EC6 00                         nop
3EC7 00                         nop
3EC8 00                         nop
3EC9 00                         nop
3ECA 00                         nop
3ECB 00                         nop
3ECC 00                         nop
3ECD 00                         nop
3ECE 00                         nop
3ECF 00                         nop
3ED0 00                         nop
3ED1 00                         nop
3ED2 00                         nop
3ED3 00                         nop
3ED4 00                         nop
3ED5 00                         nop
3ED6 00                         nop
3ED7 00                         nop
3ED8 00                         nop
3ED9 00                         nop
3EDA 00                         nop
3EDB 00                         nop
3EDC 00                         nop
3EDD 00                         nop
3EDE 00                         nop
3EDF 00                         nop
3EE0 00                         nop
3EE1 00                         nop
3EE2 00                         nop
3EE3 00                         nop
3EE4 00                         nop
3EE5 00                         nop
3EE6 00                         nop
3EE7 00                         nop
3EE8 00                         nop
3EE9 00                         nop
3EEA 00                         nop
3EEB 00                         nop
3EEC 00                         nop
3EED 00                         nop
3EEE 00                         nop
3EEF 00                         nop
3EF0 00                         nop
3EF1 00                         nop
3EF2 00                         nop
3EF3 00                         nop
3EF4 00                         nop
3EF5 00                         nop
3EF6 00                         nop
3EF7 00                         nop
3EF8 00                         nop
3EF9 00                         nop
3EFA 00                         nop
3EFB 00                         nop
3EFC 00                         nop
3EFD 00                         nop
3EFE 00                         nop
3EFF 00                         nop
3F00 00                         nop
3F01 00                         nop
3F02 00                         nop
3F03 00                         nop
3F04 00                         nop
3F05 00                         nop
3F06 00                         nop
3F07 00                         nop
3F08 00                         nop
3F09 00                         nop
3F0A 00                         nop
3F0B 00                         nop
3F0C 00                         nop
3F0D 00                         nop
3F0E 00                         nop
3F0F 00                         nop
3F10 00                         nop
3F11 00                         nop
3F12 00                         nop
3F13 00                         nop
3F14 00                         nop
3F15 00                         nop
3F16 00                         nop
3F17 00                         nop
3F18 00                         nop
3F19 00                         nop
3F1A 00                         nop
3F1B 00                         nop
3F1C 00                         nop
3F1D 00                         nop
3F1E 00                         nop
3F1F 00                         nop
3F20 00                         nop
3F21 00                         nop
3F22 00                         nop
3F23 00                         nop
3F24 00                         nop
3F25 00                         nop
3F26 00                         nop
3F27 00                         nop
3F28 00                         nop
3F29 00                         nop
3F2A 00                         nop
3F2B 00                         nop
3F2C 00                         nop
3F2D 00                         nop
3F2E 00                         nop
3F2F 00                         nop
3F30 00                         nop
3F31 00                         nop
3F32 00                         nop
3F33 00                         nop
3F34 00                         nop
3F35 00                         nop
3F36 00                         nop
3F37 00                         nop
3F38 00                         nop
3F39 00                         nop
3F3A 00                         nop
3F3B 00                         nop
3F3C 00                         nop
3F3D 00                         nop
3F3E 00                         nop
3F3F 00                         nop
3F40 00                         nop
3F41 00                         nop
3F42 00                         nop
3F43 00                         nop
3F44 00                         nop
3F45 00                         nop
3F46 00                         nop
3F47 00                         nop
3F48 00                         nop
3F49 00                         nop
3F4A 00                         nop
3F4B 00                         nop
3F4C 00                         nop
3F4D 00                         nop
3F4E 00                         nop
3F4F 00                         nop
3F50 00                         nop
3F51 00                         nop
3F52 00                         nop
3F53 00                         nop
3F54 00                         nop
3F55 00                         nop
3F56 00                         nop
3F57 00                         nop
3F58 00                         nop
3F59 00                         nop
3F5A 00                         nop
3F5B 00                         nop
3F5C 00                         nop
3F5D 00                         nop
3F5E 00                         nop
3F5F 00                         nop
3F60 00                         nop
3F61 00                         nop
3F62 00                         nop
3F63 00                         nop
3F64 00                         nop
3F65 00                         nop
3F66 00                         nop
3F67 00                         nop
3F68 00                         nop
3F69 00                         nop
3F6A 00                         nop
3F6B 00                         nop
3F6C 00                         nop
3F6D 00                         nop
3F6E 00                         nop
3F6F 00                         nop
3F70 00                         nop
3F71 00                         nop
3F72 00                         nop
3F73 00                         nop
3F74 00                         nop
3F75 00                         nop
3F76 00                         nop
3F77 00                         nop
3F78 00                         nop
3F79 00                         nop
3F7A 00                         nop
3F7B 00                         nop
3F7C 00                         nop
3F7D 00                         nop
3F7E 00                         nop
3F7F 00                         nop
3F80 00                         nop
3F81 00                         nop
3F82 00                         nop
3F83 00                         nop
3F84 00                         nop
3F85 00                         nop
3F86 00                         nop
3F87 00                         nop
3F88 00                         nop
3F89 00                         nop
3F8A 00                         nop
3F8B 00                         nop
3F8C 00                         nop
3F8D 00                         nop
3F8E 00                         nop
3F8F 00                         nop
3F90 00                         nop
3F91 00                         nop
3F92 00                         nop
3F93 00                         nop
3F94 00                         nop
3F95 00                         nop
3F96 00                         nop
3F97 00                         nop
3F98 00                         nop
3F99 00                         nop
3F9A 00                         nop
3F9B 00                         nop
3F9C 00                         nop
3F9D 00                         nop
3F9E 00                         nop
3F9F 00                         nop
3FA0 00                         nop
3FA1 00                         nop
3FA2 00                         nop
3FA3 00                         nop
3FA4 00                         nop
3FA5 00                         nop
3FA6 00                         nop
3FA7 00                         nop
3FA8 00                         nop
3FA9 00                         nop
3FAA 00                         nop
3FAB 00                         nop
3FAC 00                         nop
3FAD 00                         nop
3FAE 00                         nop
3FAF 00                         nop
3FB0 00                         nop
3FB1 00                         nop
3FB2 00                         nop
3FB3 00                         nop
3FB4 00                         nop
3FB5 00                         nop
3FB6 00                         nop
3FB7 00                         nop
3FB8 00                         nop
3FB9 00                         nop
3FBA 00                         nop
3FBB 00                         nop
3FBC 00                         nop
3FBD 00                         nop
3FBE 00                         nop
3FBF 00                         nop
3FC0 00                         nop
3FC1 00                         nop
3FC2 00                         nop
3FC3 00                         nop
3FC4 00                         nop
3FC5 00                         nop
3FC6 00                         nop
3FC7 00                         nop
3FC8 00                         nop
3FC9 00                         nop
3FCA 00                         nop
3FCB 00                         nop
3FCC 00                         nop
3FCD 00                         nop
3FCE 00                         nop
3FCF 00                         nop
3FD0 00                         nop
3FD1 00                         nop
3FD2 00                         nop
3FD3 00                         nop
3FD4 00                         nop
3FD5 00                         nop
3FD6 00                         nop
3FD7 00                         nop
3FD8 00                         nop
3FD9 00                         nop
3FDA 00                         nop
3FDB 00                         nop
3FDC 00                         nop
3FDD 00                         nop
3FDE 00                         nop
3FDF 00                         nop
3FE0 00                         nop
3FE1 00                         nop
3FE2 00                         nop
3FE3 00                         nop
3FE4 00                         nop
3FE5 00                         nop
3FE6 00                         nop
3FE7 00                         nop
3FE8 00                         nop
3FE9 00                         nop
3FEA 00                         nop
3FEB 00                         nop
3FEC 00                         nop
3FED 00                         nop
3FEE 00                         nop
3FEF 00                         nop
3FF0 00                         nop
3FF1 00                         nop
3FF2 00                         nop
3FF3 00                         nop
3FF4 00                         nop
3FF5 00                         nop
3FF6 00                         nop
3FF7 00                         nop
3FF8 00                         nop
3FF9 00                         nop
3FFA 00                         nop
3FFB 00                         nop
3FFC 00                         nop
3FFD 00                         nop
3FFE 00                         nop
3FFF 00                         nop
